
../../../Binaries/ZLinky_GpProxy_Ota_OM15081/ZLinky_GpProxy_Ota_OM15081.axf:     file format elf32-littlearm


Disassembly of section .text:

00000200 <ResetISR>:
     200:	4804      	ldr	r0, [pc, #16]	; (214 <masterboot+0x4>)
     202:	6800      	ldr	r0, [r0, #0]
     204:	0000      	movs	r0, r0
     206:	d003      	beq.n	210 <masterboot>
     208:	4903      	ldr	r1, [pc, #12]	; (218 <masterboot+0x8>)
     20a:	6809      	ldr	r1, [r1, #0]
     20c:	468d      	mov	sp, r1
     20e:	4700      	bx	r0

00000210 <masterboot>:
     210:	4802      	ldr	r0, [pc, #8]	; (21c <masterboot+0xc>)
     212:	4700      	bx	r0
     214:	40000804 	.word	0x40000804
     218:	40000808 	.word	0x40000808
     21c:	0000029f 	.word	0x0000029f

00000220 <ADC_SEQA_IRQHandler>:
     220:	e7fe      	b.n	220 <ADC_SEQA_IRQHandler>

00000222 <NMI_Handler>:
     222:	e7fe      	b.n	222 <NMI_Handler>
     224:	e7fe      	b.n	224 <NMI_Handler+0x2>
     226:	e7fe      	b.n	226 <NMI_Handler+0x4>
     228:	e7fe      	b.n	228 <NMI_Handler+0x6>
     22a:	e7fe      	b.n	22a <NMI_Handler+0x8>

0000022c <SVC_Handler>:
     22c:	e7fe      	b.n	22c <SVC_Handler>

0000022e <DebugMon_Handler>:
     22e:	e7fe      	b.n	22e <DebugMon_Handler>

00000230 <PendSV_Handler>:
     230:	e7fe      	b.n	230 <PendSV_Handler>
     232:	e7fe      	b.n	232 <PendSV_Handler+0x2>

00000234 <MAC_154_IRQHandler>:
     234:	b508      	push	{r3, lr}
     236:	4b06      	ldr	r3, [pc, #24]	; (250 <MAC_154_IRQHandler+0x1c>)
     238:	b113      	cbz	r3, 240 <MAC_154_IRQHandler+0xc>
     23a:	f032 f9eb 	bl	32614 <vMMAC_IntHandlerBbc>
     23e:	bd08      	pop	{r3, pc}
     240:	4b04      	ldr	r3, [pc, #16]	; (254 <MAC_154_IRQHandler+0x20>)
     242:	b113      	cbz	r3, 24a <MAC_154_IRQHandler+0x16>
     244:	f035 fd34 	bl	35cb0 <__ZIGBEE_MAC_IRQHandler_veneer>
     248:	e7f9      	b.n	23e <MAC_154_IRQHandler+0xa>
     24a:	f7ff ffe9 	bl	220 <ADC_SEQA_IRQHandler>
     24e:	bf00      	nop
     250:	00032615 	.word	0x00032615
     254:	03006b65 	.word	0x03006b65

00000258 <MODEM_154_IRQHandler>:
     258:	b508      	push	{r3, lr}
     25a:	4b06      	ldr	r3, [pc, #24]	; (274 <MODEM_154_IRQHandler+0x1c>)
     25c:	b113      	cbz	r3, 264 <MODEM_154_IRQHandler+0xc>
     25e:	f032 f9f1 	bl	32644 <vMMAC_IntHandlerPhy>
     262:	bd08      	pop	{r3, pc}
     264:	4b04      	ldr	r3, [pc, #16]	; (278 <MODEM_154_IRQHandler+0x20>)
     266:	b113      	cbz	r3, 26e <MODEM_154_IRQHandler+0x16>
     268:	f035 fd1e 	bl	35ca8 <__ZIGBEE_MODEM_IRQHandler_veneer>
     26c:	e7f9      	b.n	262 <MODEM_154_IRQHandler+0xa>
     26e:	f7ff ffd7 	bl	220 <ADC_SEQA_IRQHandler>
     272:	bf00      	nop
     274:	00032645 	.word	0x00032645
     278:	03000151 	.word	0x03000151

0000027c <data_init>:
     27c:	440a      	add	r2, r1
     27e:	1a40      	subs	r0, r0, r1
     280:	4291      	cmp	r1, r2
     282:	d300      	bcc.n	286 <data_init+0xa>
     284:	4770      	bx	lr
     286:	580b      	ldr	r3, [r1, r0]
     288:	f841 3b04 	str.w	r3, [r1], #4
     28c:	e7f8      	b.n	280 <data_init+0x4>

0000028e <bss_init>:
     28e:	4401      	add	r1, r0
     290:	2300      	movs	r3, #0
     292:	4288      	cmp	r0, r1
     294:	d300      	bcc.n	298 <bss_init+0xa>
     296:	4770      	bx	lr
     298:	f840 3b04 	str.w	r3, [r0], #4
     29c:	e7f9      	b.n	292 <bss_init+0x4>

0000029e <ResetISR2>:
     29e:	b570      	push	{r4, r5, r6, lr}
     2a0:	f04f 4580 	mov.w	r5, #1073741824	; 0x40000000
     2a4:	2303      	movs	r3, #3
     2a6:	f8c5 3280 	str.w	r3, [r5, #640]	; 0x280
     2aa:	4b2e      	ldr	r3, [pc, #184]	; (364 <ResetISR2+0xc6>)
     2ac:	b98b      	cbnz	r3, 2d2 <ResetISR2+0x34>
     2ae:	4c2e      	ldr	r4, [pc, #184]	; (368 <ResetISR2+0xca>)
     2b0:	4d2e      	ldr	r5, [pc, #184]	; (36c <ResetISR2+0xce>)
     2b2:	42ac      	cmp	r4, r5
     2b4:	d348      	bcc.n	348 <ResetISR2+0xaa>
     2b6:	4a2e      	ldr	r2, [pc, #184]	; (370 <ResetISR2+0xd2>)
     2b8:	4c2e      	ldr	r4, [pc, #184]	; (374 <ResetISR2+0xd6>)
     2ba:	42a2      	cmp	r2, r4
     2bc:	d34b      	bcc.n	356 <ResetISR2+0xb8>
     2be:	4b2e      	ldr	r3, [pc, #184]	; (378 <ResetISR2+0xda>)
     2c0:	4a2e      	ldr	r2, [pc, #184]	; (37c <ResetISR2+0xde>)
     2c2:	601a      	str	r2, [r3, #0]
     2c4:	4b2e      	ldr	r3, [pc, #184]	; (380 <ResetISR2+0xe2>)
     2c6:	b10b      	cbz	r3, 2cc <ResetISR2+0x2e>
     2c8:	f005 f948 	bl	555c <SystemInit>
     2cc:	f009 ff3a 	bl	a144 <main>
     2d0:	e7fe      	b.n	2d0 <ResetISR2+0x32>
     2d2:	4b2c      	ldr	r3, [pc, #176]	; (384 <ResetISR2+0xe6>)
     2d4:	6f1c      	ldr	r4, [r3, #112]	; 0x70
     2d6:	f8d3 60b0 	ldr.w	r6, [r3, #176]	; 0xb0
     2da:	4b2b      	ldr	r3, [pc, #172]	; (388 <ResetISR2+0xea>)
     2dc:	f004 047f 	and.w	r4, r4, #127	; 0x7f
     2e0:	4798      	blx	r3
     2e2:	2c40      	cmp	r4, #64	; 0x40
     2e4:	d1e3      	bne.n	2ae <ResetISR2+0x10>
     2e6:	4b29      	ldr	r3, [pc, #164]	; (38c <ResetISR2+0xee>)
     2e8:	4033      	ands	r3, r6
     2ea:	2b04      	cmp	r3, #4
     2ec:	d1df      	bne.n	2ae <ResetISR2+0x10>
     2ee:	2802      	cmp	r0, #2
     2f0:	d1dd      	bne.n	2ae <ResetISR2+0x10>
     2f2:	f8d5 3808 	ldr.w	r3, [r5, #2056]	; 0x808
     2f6:	b113      	cbz	r3, 2fe <ResetISR2+0x60>
     2f8:	4927      	ldr	r1, [pc, #156]	; (398 <ResetISR2+0xfa>)
     2fa:	6809      	ldr	r1, [r1, #0]
     2fc:	468d      	mov	sp, r1
     2fe:	4c24      	ldr	r4, [pc, #144]	; (390 <ResetISR2+0xf2>)
     300:	b994      	cbnz	r4, 328 <ResetISR2+0x8a>
     302:	4a24      	ldr	r2, [pc, #144]	; (394 <ResetISR2+0xf6>)
     304:	b9da      	cbnz	r2, 33e <ResetISR2+0xa0>
     306:	4b1c      	ldr	r3, [pc, #112]	; (378 <ResetISR2+0xda>)
     308:	4a1c      	ldr	r2, [pc, #112]	; (37c <ResetISR2+0xde>)
     30a:	601a      	str	r2, [r3, #0]
     30c:	4b1c      	ldr	r3, [pc, #112]	; (380 <ResetISR2+0xe2>)
     30e:	b9c3      	cbnz	r3, 342 <ResetISR2+0xa4>
     310:	f008 fef6 	bl	9100 <WarmMain>
     314:	e7fe      	b.n	314 <ResetISR2+0x76>
     316:	e9d4 0100 	ldrd	r0, r1, [r4]
     31a:	68a2      	ldr	r2, [r4, #8]
     31c:	340c      	adds	r4, #12
     31e:	f7ff ffad 	bl	27c <data_init>
     322:	42ac      	cmp	r4, r5
     324:	d3f7      	bcc.n	316 <ResetISR2+0x78>
     326:	e7ec      	b.n	302 <ResetISR2+0x64>
     328:	4d10      	ldr	r5, [pc, #64]	; (36c <ResetISR2+0xce>)
     32a:	e7fa      	b.n	322 <ResetISR2+0x84>
     32c:	f852 0b08 	ldr.w	r0, [r2], #8
     330:	f852 1c04 	ldr.w	r1, [r2, #-4]
     334:	f7ff ffab 	bl	28e <bss_init>
     338:	42a2      	cmp	r2, r4
     33a:	d3f7      	bcc.n	32c <ResetISR2+0x8e>
     33c:	e7e3      	b.n	306 <ResetISR2+0x68>
     33e:	4c0d      	ldr	r4, [pc, #52]	; (374 <ResetISR2+0xd6>)
     340:	e7fa      	b.n	338 <ResetISR2+0x9a>
     342:	f005 f90b 	bl	555c <SystemInit>
     346:	e7e3      	b.n	310 <ResetISR2+0x72>
     348:	e9d4 0100 	ldrd	r0, r1, [r4]
     34c:	68a2      	ldr	r2, [r4, #8]
     34e:	340c      	adds	r4, #12
     350:	f7ff ff94 	bl	27c <data_init>
     354:	e7ad      	b.n	2b2 <ResetISR2+0x14>
     356:	f852 0b08 	ldr.w	r0, [r2], #8
     35a:	f852 1c04 	ldr.w	r1, [r2, #-4]
     35e:	f7ff ff96 	bl	28e <bss_init>
     362:	e7aa      	b.n	2ba <ResetISR2+0x1c>
     364:	00009101 	.word	0x00009101
     368:	00000120 	.word	0x00000120
     36c:	00000138 	.word	0x00000138
     370:	00000138 	.word	0x00000138
     374:	00000148 	.word	0x00000148
     378:	e000ed08 	.word	0xe000ed08
     37c:	00000000 	.word	0x00000000
     380:	0000555d 	.word	0x0000555d
     384:	40012000 	.word	0x40012000
     388:	03000e9d 	.word	0x03000e9d
     38c:	00020004 	.word	0x00020004
	...
     398:	40000808 	.word	0x40000808

0000039c <System_IRQHandler>:
     39c:	4b17      	ldr	r3, [pc, #92]	; (3fc <System_IRQHandler+0x60>)
     39e:	4918      	ldr	r1, [pc, #96]	; (400 <BOOT_RESUME_STACK_SIZE>)
     3a0:	681a      	ldr	r2, [r3, #0]
     3a2:	6f09      	ldr	r1, [r1, #112]	; 0x70
     3a4:	06c9      	lsls	r1, r1, #27
     3a6:	b510      	push	{r4, lr}
     3a8:	f002 040c 	and.w	r4, r2, #12
     3ac:	d50d      	bpl.n	3ca <System_IRQHandler+0x2e>
     3ae:	f044 0404 	orr.w	r4, r4, #4
     3b2:	681a      	ldr	r2, [r3, #0]
     3b4:	4811      	ldr	r0, [pc, #68]	; (3fc <System_IRQHandler+0x60>)
     3b6:	f022 0201 	bic.w	r2, r2, #1
     3ba:	601a      	str	r2, [r3, #0]
     3bc:	2104      	movs	r1, #4
     3be:	f005 f9d7 	bl	5770 <WWDT_ClearStatusFlags>
     3c2:	4810      	ldr	r0, [pc, #64]	; (404 <BOOT_RESUME_STACK_SIZE+0x4>)
     3c4:	f001 fb76 	bl	1ab4 <DbgConsole_Printf>
     3c8:	e001      	b.n	3ce <System_IRQHandler+0x32>
     3ca:	0752      	lsls	r2, r2, #29
     3cc:	d4f1      	bmi.n	3b2 <System_IRQHandler+0x16>
     3ce:	0723      	lsls	r3, r4, #28
     3d0:	d512      	bpl.n	3f8 <System_IRQHandler+0x5c>
     3d2:	4c0d      	ldr	r4, [pc, #52]	; (408 <BOOT_RESUME_STACK_SIZE+0x8>)
     3d4:	4809      	ldr	r0, [pc, #36]	; (3fc <System_IRQHandler+0x60>)
     3d6:	2108      	movs	r1, #8
     3d8:	f005 f9ca 	bl	5770 <WWDT_ClearStatusFlags>
     3dc:	7823      	ldrb	r3, [r4, #0]
     3de:	2b07      	cmp	r3, #7
     3e0:	d80a      	bhi.n	3f8 <System_IRQHandler+0x5c>
     3e2:	4806      	ldr	r0, [pc, #24]	; (3fc <System_IRQHandler+0x60>)
     3e4:	3301      	adds	r3, #1
     3e6:	7023      	strb	r3, [r4, #0]
     3e8:	f005 f9b8 	bl	575c <WWDT_Refresh>
     3ec:	7821      	ldrb	r1, [r4, #0]
     3ee:	4807      	ldr	r0, [pc, #28]	; (40c <BOOT_RESUME_STACK_SIZE+0xc>)
     3f0:	e8bd 4010 	ldmia.w	sp!, {r4, lr}
     3f4:	f001 bb5e 	b.w	1ab4 <DbgConsole_Printf>
     3f8:	bd10      	pop	{r4, pc}
     3fa:	bf00      	nop
     3fc:	4000a000 	.word	0x4000a000
     400:	40012000 	.word	0x40012000
     404:	00035cb8 	.word	0x00035cb8
     408:	040012a8 	.word	0x040012a8
     40c:	00035cd0 	.word	0x00035cd0

00000410 <main_task>:
     410:	b570      	push	{r4, r5, r6, lr}
     412:	4b14      	ldr	r3, [pc, #80]	; (464 <main_task+0x54>)
     414:	781a      	ldrb	r2, [r3, #0]
     416:	b97a      	cbnz	r2, 438 <main_task+0x28>
     418:	2201      	movs	r2, #1
     41a:	701a      	strb	r2, [r3, #0]
     41c:	f007 fdda 	bl	7fd4 <SecLib_Init>
     420:	f007 ff24 	bl	826c <RNG_Init>
     424:	b110      	cbz	r0, 42c <main_task+0x1c>
     426:	4810      	ldr	r0, [pc, #64]	; (468 <main_task+0x58>)
     428:	f001 fb44 	bl	1ab4 <DbgConsole_Printf>
     42c:	f007 ffc4 	bl	83b8 <MEM_Init>
     430:	f008 f896 	bl	8560 <TMR_Init>
     434:	f000 fad6 	bl	9e4 <vAppMain>
     438:	4e0c      	ldr	r6, [pc, #48]	; (46c <main_task+0x5c>)
     43a:	4d0d      	ldr	r5, [pc, #52]	; (470 <main_task+0x60>)
     43c:	4c0d      	ldr	r4, [pc, #52]	; (474 <main_task+0x64>)
     43e:	f019 f9e1 	bl	19804 <zps_taskZPS>
     442:	f014 fc11 	bl	14c68 <bdb_taskBDB>
     446:	f004 fe37 	bl	50b8 <ZTIMER_vTask>
     44a:	f000 fd17 	bl	e7c <APP_taskRouter>
     44e:	4630      	mov	r0, r6
     450:	f005 f984 	bl	575c <WWDT_Refresh>
     454:	2300      	movs	r3, #0
     456:	702b      	strb	r3, [r5, #0]
     458:	f008 fd0e 	bl	8e78 <PWR_EnterLowPower>
     45c:	7823      	ldrb	r3, [r4, #0]
     45e:	2b00      	cmp	r3, #0
     460:	d1ed      	bne.n	43e <main_task+0x2e>
     462:	bd70      	pop	{r4, r5, r6, pc}
     464:	0400129e 	.word	0x0400129e
     468:	00035ceb 	.word	0x00035ceb
     46c:	4000a000 	.word	0x4000a000
     470:	040012a8 	.word	0x040012a8
     474:	00039edc 	.word	0x00039edc

00000478 <APP_vSetUpHardware>:
     478:	b570      	push	{r4, r5, r6, lr}
     47a:	4b2a      	ldr	r3, [pc, #168]	; (524 <APP_vSetUpHardware+0xac>)
     47c:	4a2a      	ldr	r2, [pc, #168]	; (528 <APP_vSetUpHardware+0xb0>)
     47e:	601a      	str	r2, [r3, #0]
     480:	f240 1209 	movw	r2, #265	; 0x109
     484:	b086      	sub	sp, #24
     486:	605a      	str	r2, [r3, #4]
     488:	f001 fb98 	bl	1bbc <BOARD_InitHardware>
     48c:	f005 fc75 	bl	5d7a <CLOCK_EnableAPBBridge>
     490:	4826      	ldr	r0, [pc, #152]	; (52c <APP_vSetUpHardware+0xb4>)
     492:	4c27      	ldr	r4, [pc, #156]	; (530 <APP_vSetUpHardware+0xb8>)
     494:	f005 fd26 	bl	5ee4 <CLOCK_EnableClock>
     498:	4826      	ldr	r0, [pc, #152]	; (534 <APP_vSetUpHardware+0xbc>)
     49a:	f005 fd23 	bl	5ee4 <CLOCK_EnableClock>
     49e:	220a      	movs	r2, #10
     4a0:	2100      	movs	r1, #0
     4a2:	4b25      	ldr	r3, [pc, #148]	; (538 <APP_vSetUpHardware+0xc0>)
     4a4:	4825      	ldr	r0, [pc, #148]	; (53c <APP_vSetUpHardware+0xc4>)
     4a6:	f001 fb25 	bl	1af4 <GPIO_PinInit>
     4aa:	2016      	movs	r0, #22
     4ac:	f005 fb80 	bl	5bb0 <CLOCK_GetFreq>
     4b0:	2601      	movs	r6, #1
     4b2:	0885      	lsrs	r5, r0, #2
     4b4:	6026      	str	r6, [r4, #0]
     4b6:	a801      	add	r0, sp, #4
     4b8:	f005 f8ca 	bl	5650 <WWDT_GetDefaultConfig>
     4bc:	f44f 7300 	mov.w	r3, #512	; 0x200
     4c0:	2016      	movs	r0, #22
     4c2:	9304      	str	r3, [sp, #16]
     4c4:	9503      	str	r5, [sp, #12]
     4c6:	9502      	str	r5, [sp, #8]
     4c8:	f88d 6005 	strb.w	r6, [sp, #5]
     4cc:	f005 fb70 	bl	5bb0 <CLOCK_GetFreq>
     4d0:	a901      	add	r1, sp, #4
     4d2:	9005      	str	r0, [sp, #20]
     4d4:	481a      	ldr	r0, [pc, #104]	; (540 <APP_vSetUpHardware+0xc8>)
     4d6:	f005 f8d9 	bl	568c <WWDT_Init>
     4da:	4819      	ldr	r0, [pc, #100]	; (540 <APP_vSetUpHardware+0xc8>)
     4dc:	f005 f93e 	bl	575c <WWDT_Refresh>
     4e0:	4818      	ldr	r0, [pc, #96]	; (544 <APP_vSetUpHardware+0xcc>)
     4e2:	f06f 037f 	mvn.w	r3, #127	; 0x7f
     4e6:	21a0      	movs	r1, #160	; 0xa0
     4e8:	2b00      	cmp	r3, #0
     4ea:	bfbb      	ittet	lt
     4ec:	f003 020f 	andlt.w	r2, r3, #15
     4f0:	3a04      	sublt	r2, #4
     4f2:	18e2      	addge	r2, r4, r3
     4f4:	1812      	addlt	r2, r2, r0
     4f6:	f103 0301 	add.w	r3, r3, #1
     4fa:	bfac      	ite	ge
     4fc:	f882 1300 	strbge.w	r1, [r2, #768]	; 0x300
     500:	7611      	strblt	r1, [r2, #24]
     502:	2b36      	cmp	r3, #54	; 0x36
     504:	d1f0      	bne.n	4e8 <APP_vSetUpHardware+0x70>
     506:	4b0a      	ldr	r3, [pc, #40]	; (530 <APP_vSetUpHardware+0xb8>)
     508:	2220      	movs	r2, #32
     50a:	f883 2300 	strb.w	r2, [r3, #768]	; 0x300
     50e:	f04f 4380 	mov.w	r3, #1073741824	; 0x40000000
     512:	2203      	movs	r2, #3
     514:	f8c3 2280 	str.w	r2, [r3, #640]	; 0x280
     518:	f004 ffd0 	bl	54bc <SystemCoreClockUpdate>
     51c:	f009 fdc0 	bl	a0a0 <OSA_TimeInit>
     520:	b006      	add	sp, #24
     522:	bd70      	pop	{r4, r5, r6, pc}
     524:	40001000 	.word	0x40001000
     528:	e000f733 	.word	0xe000f733
     52c:	00010004 	.word	0x00010004
     530:	e000e100 	.word	0xe000e100
     534:	00010003 	.word	0x00010003
     538:	04000600 	.word	0x04000600
     53c:	40080000 	.word	0x40080000
     540:	4000a000 	.word	0x4000a000
     544:	e000ed00 	.word	0xe000ed00

00000548 <APP_vInitResources>:
     548:	b510      	push	{r4, lr}
     54a:	2106      	movs	r1, #6
     54c:	482f      	ldr	r0, [pc, #188]	; (60c <APP_vInitResources+0xc4>)
     54e:	f004 fda1 	bl	5094 <ZTIMER_eInit>
     552:	492f      	ldr	r1, [pc, #188]	; (610 <APP_vInitResources+0xc8>)
     554:	482f      	ldr	r0, [pc, #188]	; (614 <APP_vInitResources+0xcc>)
     556:	2301      	movs	r3, #1
     558:	2200      	movs	r2, #0
     55a:	f004 fdfb 	bl	5154 <ZTIMER_eOpen>
     55e:	492e      	ldr	r1, [pc, #184]	; (618 <APP_vInitResources+0xd0>)
     560:	482e      	ldr	r0, [pc, #184]	; (61c <APP_vInitResources+0xd4>)
     562:	2301      	movs	r3, #1
     564:	2200      	movs	r2, #0
     566:	f004 fdf5 	bl	5154 <ZTIMER_eOpen>
     56a:	492d      	ldr	r1, [pc, #180]	; (620 <APP_vInitResources+0xd8>)
     56c:	482d      	ldr	r0, [pc, #180]	; (624 <APP_vInitResources+0xdc>)
     56e:	2301      	movs	r3, #1
     570:	2200      	movs	r2, #0
     572:	f004 fdef 	bl	5154 <ZTIMER_eOpen>
     576:	492c      	ldr	r1, [pc, #176]	; (628 <APP_vInitResources+0xe0>)
     578:	482c      	ldr	r0, [pc, #176]	; (62c <APP_vInitResources+0xe4>)
     57a:	2301      	movs	r3, #1
     57c:	2200      	movs	r2, #0
     57e:	f004 fde9 	bl	5154 <ZTIMER_eOpen>
     582:	492b      	ldr	r1, [pc, #172]	; (630 <APP_vInitResources+0xe8>)
     584:	482b      	ldr	r0, [pc, #172]	; (634 <APP_vInitResources+0xec>)
     586:	2301      	movs	r3, #1
     588:	2200      	movs	r2, #0
     58a:	f004 fde3 	bl	5154 <ZTIMER_eOpen>
     58e:	492a      	ldr	r1, [pc, #168]	; (638 <APP_vInitResources+0xf0>)
     590:	482a      	ldr	r0, [pc, #168]	; (63c <APP_vInitResources+0xf4>)
     592:	2301      	movs	r3, #1
     594:	2200      	movs	r2, #0
     596:	f004 fddd 	bl	5154 <ZTIMER_eOpen>
     59a:	4929      	ldr	r1, [pc, #164]	; (640 <APP_vInitResources+0xf8>)
     59c:	4829      	ldr	r0, [pc, #164]	; (644 <APP_vInitResources+0xfc>)
     59e:	2301      	movs	r3, #1
     5a0:	2200      	movs	r2, #0
     5a2:	f004 fdd7 	bl	5154 <ZTIMER_eOpen>
     5a6:	4828      	ldr	r0, [pc, #160]	; (648 <APP_vInitResources+0x100>)
     5a8:	2300      	movs	r3, #0
     5aa:	220c      	movs	r2, #12
     5ac:	2108      	movs	r1, #8
     5ae:	f004 fd15 	bl	4fdc <ZQ_vQueueCreate>
     5b2:	4826      	ldr	r0, [pc, #152]	; (64c <APP_vInitResources+0x104>)
     5b4:	2300      	movs	r3, #0
     5b6:	2240      	movs	r2, #64	; 0x40
     5b8:	2102      	movs	r1, #2
     5ba:	f004 fd0f 	bl	4fdc <ZQ_vQueueCreate>
     5be:	4824      	ldr	r0, [pc, #144]	; (650 <APP_vInitResources+0x108>)
     5c0:	2300      	movs	r3, #0
     5c2:	222c      	movs	r2, #44	; 0x2c
     5c4:	2108      	movs	r1, #8
     5c6:	f004 fd09 	bl	4fdc <ZQ_vQueueCreate>
     5ca:	4822      	ldr	r0, [pc, #136]	; (654 <APP_vInitResources+0x10c>)
     5cc:	2300      	movs	r3, #0
     5ce:	222c      	movs	r2, #44	; 0x2c
     5d0:	2110      	movs	r1, #16
     5d2:	f004 fd03 	bl	4fdc <ZQ_vQueueCreate>
     5d6:	2208      	movs	r2, #8
     5d8:	4611      	mov	r1, r2
     5da:	481f      	ldr	r0, [pc, #124]	; (658 <APP_vInitResources+0x110>)
     5dc:	2300      	movs	r3, #0
     5de:	f004 fcfd 	bl	4fdc <ZQ_vQueueCreate>
     5e2:	481e      	ldr	r0, [pc, #120]	; (65c <APP_vInitResources+0x114>)
     5e4:	2300      	movs	r3, #0
     5e6:	220c      	movs	r2, #12
     5e8:	2108      	movs	r1, #8
     5ea:	f004 fcf7 	bl	4fdc <ZQ_vQueueCreate>
     5ee:	481c      	ldr	r0, [pc, #112]	; (660 <APP_vInitResources+0x118>)
     5f0:	2300      	movs	r3, #0
     5f2:	2201      	movs	r2, #1
     5f4:	2102      	movs	r1, #2
     5f6:	f004 fcf1 	bl	4fdc <ZQ_vQueueCreate>
     5fa:	e8bd 4010 	ldmia.w	sp!, {r4, lr}
     5fe:	4b19      	ldr	r3, [pc, #100]	; (664 <APP_vInitResources+0x11c>)
     600:	4819      	ldr	r0, [pc, #100]	; (668 <APP_vInitResources+0x120>)
     602:	2201      	movs	r2, #1
     604:	f44f 7187 	mov.w	r1, #270	; 0x10e
     608:	f004 bce8 	b.w	4fdc <ZQ_vQueueCreate>
     60c:	04001130 	.word	0x04001130
     610:	00001e79 	.word	0x00001e79
     614:	040012a6 	.word	0x040012a6
     618:	000016b5 	.word	0x000016b5
     61c:	040012a4 	.word	0x040012a4
     620:	000012c1 	.word	0x000012c1
     624:	040012a7 	.word	0x040012a7
     628:	00001295 	.word	0x00001295
     62c:	040012a5 	.word	0x040012a5
     630:	00002749 	.word	0x00002749
     634:	040012a3 	.word	0x040012a3
     638:	00002725 	.word	0x00002725
     63c:	040012a2 	.word	0x040012a2
     640:	0000134d 	.word	0x0000134d
     644:	0400129f 	.word	0x0400129f
     648:	040010f0 	.word	0x040010f0
     64c:	04001100 	.word	0x04001100
     650:	04003f50 	.word	0x04003f50
     654:	04003f40 	.word	0x04003f40
     658:	04003f30 	.word	0x04003f30
     65c:	04003f20 	.word	0x04003f20
     660:	04001110 	.word	0x04001110
     664:	04001190 	.word	0x04001190
     668:	04001120 	.word	0x04001120

0000066c <APP_vRadioTempUpdate>:
     66c:	b51f      	push	{r0, r1, r2, r3, r4, lr}
     66e:	4604      	mov	r4, r0
     670:	f009 fd2e 	bl	a0d0 <OSA_TimeGetMsec>
     674:	4622      	mov	r2, r4
     676:	4601      	mov	r1, r0
     678:	481a      	ldr	r0, [pc, #104]	; (6e4 <APP_vRadioTempUpdate+0x78>)
     67a:	f001 fa1b 	bl	1ab4 <DbgConsole_Printf>
     67e:	bb0c      	cbnz	r4, 6c4 <APP_vRadioTempUpdate+0x58>
     680:	ab03      	add	r3, sp, #12
     682:	f44f 7296 	mov.w	r2, #300	; 0x12c
     686:	2107      	movs	r1, #7
     688:	9300      	str	r3, [sp, #0]
     68a:	4817      	ldr	r0, [pc, #92]	; (6e8 <APP_vRadioTempUpdate+0x7c>)
     68c:	2308      	movs	r3, #8
     68e:	f001 fd37 	bl	2100 <get_temperature>
     692:	4604      	mov	r4, r0
     694:	f009 fd1c 	bl	a0d0 <OSA_TimeGetMsec>
     698:	4622      	mov	r2, r4
     69a:	4601      	mov	r1, r0
     69c:	4813      	ldr	r0, [pc, #76]	; (6ec <APP_vRadioTempUpdate+0x80>)
     69e:	f001 fa09 	bl	1ab4 <DbgConsole_Printf>
     6a2:	b1e4      	cbz	r4, 6de <APP_vRadioTempUpdate+0x72>
     6a4:	9903      	ldr	r1, [sp, #12]
     6a6:	4812      	ldr	r0, [pc, #72]	; (6f0 <APP_vRadioTempUpdate+0x84>)
     6a8:	2900      	cmp	r1, #0
     6aa:	460c      	mov	r4, r1
     6ac:	bfb8      	it	lt
     6ae:	f101 043f 	addlt.w	r4, r1, #63	; 0x3f
     6b2:	f344 148f 	sbfx	r4, r4, #6, #16
     6b6:	4622      	mov	r2, r4
     6b8:	f001 f9fc 	bl	1ab4 <DbgConsole_Printf>
     6bc:	4620      	mov	r0, r4
     6be:	f034 f80b 	bl	346d8 <vRadio_Temp_Update>
     6c2:	e00c      	b.n	6de <APP_vRadioTempUpdate+0x72>
     6c4:	4808      	ldr	r0, [pc, #32]	; (6e8 <APP_vRadioTempUpdate+0x7c>)
     6c6:	f001 fcd9 	bl	207c <load_calibration_param_from_flash>
     6ca:	4604      	mov	r4, r0
     6cc:	f009 fd00 	bl	a0d0 <OSA_TimeGetMsec>
     6d0:	4622      	mov	r2, r4
     6d2:	4601      	mov	r1, r0
     6d4:	4807      	ldr	r0, [pc, #28]	; (6f4 <APP_vRadioTempUpdate+0x88>)
     6d6:	f001 f9ed 	bl	1ab4 <DbgConsole_Printf>
     6da:	2c00      	cmp	r4, #0
     6dc:	d1d0      	bne.n	680 <APP_vRadioTempUpdate+0x14>
     6de:	b004      	add	sp, #16
     6e0:	bd10      	pop	{r4, pc}
     6e2:	bf00      	nop
     6e4:	00035cff 	.word	0x00035cff
     6e8:	40089000 	.word	0x40089000
     6ec:	00035d1e 	.word	0x00035d1e
     6f0:	00035d6a 	.word	0x00035d6a
     6f4:	00035d3b 	.word	0x00035d3b

000006f8 <bRadioCB_WriteNVM>:
     6f8:	b573      	push	{r0, r1, r4, r5, r6, lr}
     6fa:	460a      	mov	r2, r1
     6fc:	460d      	mov	r5, r1
     6fe:	4601      	mov	r1, r0
     700:	f44f 407f 	mov.w	r0, #65280	; 0xff00
     704:	f017 fc3a 	bl	17f7c <PDM_eSaveRecordData>
     708:	4606      	mov	r6, r0
     70a:	fab0 f480 	clz	r4, r0
     70e:	f009 fcdf 	bl	a0d0 <OSA_TimeGetMsec>
     712:	0964      	lsrs	r4, r4, #5
     714:	4601      	mov	r1, r0
     716:	9600      	str	r6, [sp, #0]
     718:	4623      	mov	r3, r4
     71a:	462a      	mov	r2, r5
     71c:	4802      	ldr	r0, [pc, #8]	; (728 <bRadioCB_WriteNVM+0x30>)
     71e:	f001 f9c9 	bl	1ab4 <DbgConsole_Printf>
     722:	4620      	mov	r0, r4
     724:	b002      	add	sp, #8
     726:	bd70      	pop	{r4, r5, r6, pc}
     728:	00035d8f 	.word	0x00035d8f

0000072c <u16RadioCB_ReadNVM>:
     72c:	b530      	push	{r4, r5, lr}
     72e:	b085      	sub	sp, #20
     730:	2300      	movs	r3, #0
     732:	460a      	mov	r2, r1
     734:	460c      	mov	r4, r1
     736:	f8ad 300e 	strh.w	r3, [sp, #14]
     73a:	4601      	mov	r1, r0
     73c:	f10d 030e 	add.w	r3, sp, #14
     740:	f44f 407f 	mov.w	r0, #65280	; 0xff00
     744:	f015 fece 	bl	164e4 <PDM_eReadDataFromRecord>
     748:	4605      	mov	r5, r0
     74a:	f009 fcc1 	bl	a0d0 <OSA_TimeGetMsec>
     74e:	f8bd 300e 	ldrh.w	r3, [sp, #14]
     752:	9500      	str	r5, [sp, #0]
     754:	4601      	mov	r1, r0
     756:	4622      	mov	r2, r4
     758:	4803      	ldr	r0, [pc, #12]	; (768 <u16RadioCB_ReadNVM+0x3c>)
     75a:	f001 f9ab 	bl	1ab4 <DbgConsole_Printf>
     75e:	f8bd 000e 	ldrh.w	r0, [sp, #14]
     762:	b005      	add	sp, #20
     764:	bd30      	pop	{r4, r5, pc}
     766:	bf00      	nop
     768:	00035dbe 	.word	0x00035dbe

0000076c <ZPS_u8GrabMutexLock>:
     76c:	b538      	push	{r3, r4, r5, lr}
     76e:	460d      	mov	r5, r1
     770:	4604      	mov	r4, r0
     772:	b128      	cbz	r0, 780 <ZPS_u8GrabMutexLock+0x14>
     774:	4780      	blx	r0
     776:	7803      	ldrb	r3, [r0, #0]
     778:	b113      	cbz	r3, 780 <ZPS_u8GrabMutexLock+0x14>
     77a:	4b07      	ldr	r3, [pc, #28]	; (798 <ZPS_u8GrabMutexLock+0x2c>)
     77c:	2201      	movs	r2, #1
     77e:	601a      	str	r2, [r3, #0]
     780:	4628      	mov	r0, r5
     782:	f009 fcb5 	bl	a0f0 <OSA_InterruptEnableRestricted>
     786:	b114      	cbz	r4, 78e <ZPS_u8GrabMutexLock+0x22>
     788:	47a0      	blx	r4
     78a:	2301      	movs	r3, #1
     78c:	7003      	strb	r3, [r0, #0]
     78e:	4628      	mov	r0, r5
     790:	f009 fcbb 	bl	a10a <OSA_InterruptEnableRestore>
     794:	2000      	movs	r0, #0
     796:	bd38      	pop	{r3, r4, r5, pc}
     798:	badadd04 	.word	0xbadadd04

0000079c <ZPS_u8ReleaseMutexLock>:
     79c:	b538      	push	{r3, r4, r5, lr}
     79e:	4605      	mov	r5, r0
     7a0:	4608      	mov	r0, r1
     7a2:	460c      	mov	r4, r1
     7a4:	f009 fca4 	bl	a0f0 <OSA_InterruptEnableRestricted>
     7a8:	b115      	cbz	r5, 7b0 <ZPS_u8ReleaseMutexLock+0x14>
     7aa:	47a8      	blx	r5
     7ac:	2300      	movs	r3, #0
     7ae:	7003      	strb	r3, [r0, #0]
     7b0:	4620      	mov	r0, r4
     7b2:	f009 fcaa 	bl	a10a <OSA_InterruptEnableRestore>
     7b6:	2000      	movs	r0, #0
     7b8:	bd38      	pop	{r3, r4, r5, pc}
     7ba:	Address 0x000007ba is out of bounds.


000007bc <ZPS_eEnterCriticalSection>:
     7bc:	b538      	push	{r3, r4, r5, lr}
     7be:	460d      	mov	r5, r1
     7c0:	4604      	mov	r4, r0
     7c2:	b128      	cbz	r0, 7d0 <ZPS_eEnterCriticalSection+0x14>
     7c4:	4780      	blx	r0
     7c6:	7803      	ldrb	r3, [r0, #0]
     7c8:	b113      	cbz	r3, 7d0 <ZPS_eEnterCriticalSection+0x14>
     7ca:	4b06      	ldr	r3, [pc, #24]	; (7e4 <ZPS_eEnterCriticalSection+0x28>)
     7cc:	2201      	movs	r2, #1
     7ce:	601a      	str	r2, [r3, #0]
     7d0:	4628      	mov	r0, r5
     7d2:	f009 fc8d 	bl	a0f0 <OSA_InterruptEnableRestricted>
     7d6:	b114      	cbz	r4, 7de <ZPS_eEnterCriticalSection+0x22>
     7d8:	47a0      	blx	r4
     7da:	2301      	movs	r3, #1
     7dc:	7003      	strb	r3, [r0, #0]
     7de:	2000      	movs	r0, #0
     7e0:	bd38      	pop	{r3, r4, r5, pc}
     7e2:	bf00      	nop
     7e4:	badadd08 	.word	0xbadadd08

000007e8 <ZPS_eExitCriticalSection>:
     7e8:	b510      	push	{r4, lr}
     7ea:	460c      	mov	r4, r1
     7ec:	b110      	cbz	r0, 7f4 <ZPS_eExitCriticalSection+0xc>
     7ee:	4780      	blx	r0
     7f0:	2300      	movs	r3, #0
     7f2:	7003      	strb	r3, [r0, #0]
     7f4:	4620      	mov	r0, r4
     7f6:	f009 fc88 	bl	a10a <OSA_InterruptEnableRestore>
     7fa:	2000      	movs	r0, #0
     7fc:	bd10      	pop	{r4, pc}
     7fe:	Address 0x000007fe is out of bounds.


00000800 <PDUM_vInit>:
     800:	b510      	push	{r4, lr}
     802:	4c07      	ldr	r4, [pc, #28]	; (820 <PDUM_vInit+0x20>)
     804:	4807      	ldr	r0, [pc, #28]	; (824 <PDUM_vInit+0x24>)
     806:	2300      	movs	r3, #0
     808:	2119      	movs	r1, #25
     80a:	80a3      	strh	r3, [r4, #4]
     80c:	8223      	strh	r3, [r4, #16]
     80e:	f015 f93d 	bl	15a8c <pdum_vNPduInit>
     812:	4620      	mov	r0, r4
     814:	2102      	movs	r1, #2
     816:	e8bd 4010 	ldmia.w	sp!, {r4, lr}
     81a:	f015 ba5d 	b.w	15cd8 <pdum_vAPduInit>
     81e:	bf00      	nop
     820:	04000ab0 	.word	0x04000ab0
     824:	040012ac 	.word	0x040012ac

00000828 <zps_vGetZpsMutex>:
     828:	4800      	ldr	r0, [pc, #0]	; (82c <zps_vGetZpsMutex+0x4>)
     82a:	4770      	bx	lr
     82c:	04002a40 	.word	0x04002a40

00000830 <vZdoServersInit>:
     830:	b510      	push	{r4, lr}
     832:	4c2c      	ldr	r4, [pc, #176]	; (8e4 <vZdoServersInit+0xb4>)
     834:	482c      	ldr	r0, [pc, #176]	; (8e8 <vZdoServersInit+0xb8>)
     836:	4621      	mov	r1, r4
     838:	f01e feec 	bl	1f614 <zps_vAplZdoDefaultServerInit>
     83c:	4621      	mov	r1, r4
     83e:	482b      	ldr	r0, [pc, #172]	; (8ec <vZdoServersInit+0xbc>)
     840:	f021 fe1a 	bl	22478 <zps_vAplZdoZdoClientInit>
     844:	482a      	ldr	r0, [pc, #168]	; (8f0 <vZdoServersInit+0xc0>)
     846:	f01f feed 	bl	20624 <zps_vAplZdoDeviceAnnceServerInit>
     84a:	4621      	mov	r1, r4
     84c:	4829      	ldr	r0, [pc, #164]	; (8f4 <vZdoServersInit+0xc4>)
     84e:	f01f fe79 	bl	20544 <zps_vAplZdoActiveEpServerInit>
     852:	4621      	mov	r1, r4
     854:	4828      	ldr	r0, [pc, #160]	; (8f8 <vZdoServersInit+0xc8>)
     856:	f01f f937 	bl	1fac8 <zps_vAplZdoNwkAddrServerInit>
     85a:	4621      	mov	r1, r4
     85c:	4827      	ldr	r0, [pc, #156]	; (8fc <vZdoServersInit+0xcc>)
     85e:	f01f fa0b 	bl	1fc78 <zps_vAplZdoIeeeAddrServerInit>
     862:	4621      	mov	r1, r4
     864:	4826      	ldr	r0, [pc, #152]	; (900 <vZdoServersInit+0xd0>)
     866:	f020 f993 	bl	20b90 <zps_vAplZdoSystemServerDiscoveryServerInit>
     86a:	4621      	mov	r1, r4
     86c:	4825      	ldr	r0, [pc, #148]	; (904 <vZdoServersInit+0xd4>)
     86e:	f01f fc41 	bl	200f4 <zps_vAplZdoNodeDescServerInit>
     872:	4621      	mov	r1, r4
     874:	4824      	ldr	r0, [pc, #144]	; (908 <vZdoServersInit+0xd8>)
     876:	f01f fdeb 	bl	20450 <zps_vAplZdoPowerDescServerInit>
     87a:	4621      	mov	r1, r4
     87c:	4823      	ldr	r0, [pc, #140]	; (90c <vZdoServersInit+0xdc>)
     87e:	f01f fac7 	bl	1fe10 <zps_vAplZdoMatchDescServerInit>
     882:	4621      	mov	r1, r4
     884:	4822      	ldr	r0, [pc, #136]	; (910 <vZdoServersInit+0xe0>)
     886:	f01f fcd5 	bl	20234 <zps_vAplZdoSimpleDescServerInit>
     88a:	4621      	mov	r1, r4
     88c:	4821      	ldr	r0, [pc, #132]	; (914 <vZdoServersInit+0xe4>)
     88e:	f020 f9c5 	bl	20c1c <zps_vAplZdoMgmtLqiServerInit>
     892:	4621      	mov	r1, r4
     894:	4820      	ldr	r0, [pc, #128]	; (918 <vZdoServersInit+0xe8>)
     896:	f020 fb7b 	bl	20f90 <zps_vAplZdoMgmtLeaveServerInit>
     89a:	4a20      	ldr	r2, [pc, #128]	; (91c <vZdoServersInit+0xec>)
     89c:	4820      	ldr	r0, [pc, #128]	; (920 <vZdoServersInit+0xf0>)
     89e:	4621      	mov	r1, r4
     8a0:	f020 fcce 	bl	21240 <zps_vAplZdoMgmtNWKUpdateServerInit>
     8a4:	4621      	mov	r1, r4
     8a6:	481f      	ldr	r0, [pc, #124]	; (924 <vZdoServersInit+0xf4>)
     8a8:	f020 ffb7 	bl	2181a <zps_vAplZdoBindUnbindServerInit>
     8ac:	4b1e      	ldr	r3, [pc, #120]	; (928 <vZdoServersInit+0xf8>)
     8ae:	481f      	ldr	r0, [pc, #124]	; (92c <vZdoServersInit+0xfc>)
     8b0:	2203      	movs	r2, #3
     8b2:	2101      	movs	r1, #1
     8b4:	f021 fa14 	bl	21ce0 <zps_vAplZdoBindRequestServerInit>
     8b8:	4621      	mov	r1, r4
     8ba:	481d      	ldr	r0, [pc, #116]	; (930 <vZdoServersInit+0x100>)
     8bc:	f021 fe66 	bl	2258c <zps_vAplZdoMgmtBindServerInit>
     8c0:	4621      	mov	r1, r4
     8c2:	481c      	ldr	r0, [pc, #112]	; (934 <vZdoServersInit+0x104>)
     8c4:	f020 f8f8 	bl	20ab8 <zps_vAplZdoPermitJoiningServerInit>
     8c8:	4621      	mov	r1, r4
     8ca:	481b      	ldr	r0, [pc, #108]	; (938 <vZdoServersInit+0x108>)
     8cc:	f020 faa8 	bl	20e20 <zps_vAplZdoMgmtRtgServerInit>
     8d0:	481a      	ldr	r0, [pc, #104]	; (93c <vZdoServersInit+0x10c>)
     8d2:	4621      	mov	r1, r4
     8d4:	f01f ff84 	bl	207e0 <zps_vAplZdoParentAnnceServerInit>
     8d8:	e8bd 4010 	ldmia.w	sp!, {r4, lr}
     8dc:	4818      	ldr	r0, [pc, #96]	; (940 <vZdoServersInit+0x110>)
     8de:	f026 b9e3 	b.w	26ca8 <zps_vRegisterCallbackForSecondsTick>
     8e2:	bf00      	nop
     8e4:	04000ab0 	.word	0x04000ab0
     8e8:	04003610 	.word	0x04003610
     8ec:	04003f18 	.word	0x04003f18
     8f0:	04003614 	.word	0x04003614
     8f4:	04003544 	.word	0x04003544
     8f8:	040036ac 	.word	0x040036ac
     8fc:	04003614 	.word	0x04003614
     900:	04003f14 	.word	0x04003f14
     904:	040036a8 	.word	0x040036a8
     908:	04003f0c 	.word	0x04003f0c
     90c:	04003618 	.word	0x04003618
     910:	04003f10 	.word	0x04003f10
     914:	04003648 	.word	0x04003648
     918:	04003620 	.word	0x04003620
     91c:	0400082c 	.word	0x0400082c
     920:	0400364c 	.word	0x0400364c
     924:	040035e0 	.word	0x040035e0
     928:	04003580 	.word	0x04003580
     92c:	0400358c 	.word	0x0400358c
     930:	0400361c 	.word	0x0400361c
     934:	04003f08 	.word	0x04003f08
     938:	040036a4 	.word	0x040036a4
     93c:	04003f00 	.word	0x04003f00
     940:	0001e719 	.word	0x0001e719

00000944 <ZPS_pvAplZdoGetAplHandle>:
     944:	4b01      	ldr	r3, [pc, #4]	; (94c <ZPS_pvAplZdoGetAplHandle+0x8>)
     946:	6818      	ldr	r0, [r3, #0]
     948:	4770      	bx	lr
     94a:	bf00      	nop
     94c:	04000a9c 	.word	0x04000a9c

00000950 <ZPS_u32ApsFcSaveCountBitShift>:
     950:	200a      	movs	r0, #10
     952:	4770      	bx	lr

00000954 <ZPS_psAplDefaultDistributedAPSLinkKey>:
     954:	4800      	ldr	r0, [pc, #0]	; (958 <ZPS_psAplDefaultDistributedAPSLinkKey+0x4>)
     956:	4770      	bx	lr
     958:	04000710 	.word	0x04000710

0000095c <ZPS_psAplDefaultGlobalAPSLinkKey>:
     95c:	4800      	ldr	r0, [pc, #0]	; (960 <ZPS_psAplDefaultGlobalAPSLinkKey+0x4>)
     95e:	4770      	bx	lr
     960:	04000714 	.word	0x04000714

00000964 <ZPS_ps_groupPdmTable>:
     964:	4800      	ldr	r0, [pc, #0]	; (968 <ZPS_ps_groupPdmTable+0x4>)
     966:	4770      	bx	lr
     968:	040007b4 	.word	0x040007b4

0000096c <ZPS_pu8MaxZpsConfigEp>:
     96c:	4800      	ldr	r0, [pc, #0]	; (970 <ZPS_pu8MaxZpsConfigEp+0x4>)
     96e:	4770      	bx	lr
     970:	04000a98 	.word	0x04000a98

00000974 <ZPS_pau8EpMapPresent>:
     974:	4800      	ldr	r0, [pc, #0]	; (978 <ZPS_pau8EpMapPresent+0x4>)
     976:	4770      	bx	lr
     978:	040006a0 	.word	0x040006a0

0000097c <ZPS_u8ConfigStackProfileId>:
     97c:	4b01      	ldr	r3, [pc, #4]	; (984 <ZPS_u8ConfigStackProfileId+0x8>)
     97e:	7818      	ldrb	r0, [r3, #0]
     980:	4770      	bx	lr
     982:	bf00      	nop
     984:	04000a99 	.word	0x04000a99

00000988 <ZPS_u32NwkFcSaveCountBitShift>:
     988:	200a      	movs	r0, #10
     98a:	4770      	bx	lr

0000098c <ZPS_psMacIFTGetTable>:
     98c:	4800      	ldr	r0, [pc, #0]	; (990 <ZPS_psMacIFTGetTable+0x4>)
     98e:	4770      	bx	lr
     990:	040006a4 	.word	0x040006a4

00000994 <ZPS_psMacIFTGetInterface>:
     994:	4b04      	ldr	r3, [pc, #16]	; (9a8 <ZPS_psMacIFTGetInterface+0x14>)
     996:	f893 2040 	ldrb.w	r2, [r3, #64]	; 0x40
     99a:	4282      	cmp	r2, r0
     99c:	bf86      	itte	hi
     99e:	685b      	ldrhi	r3, [r3, #4]
     9a0:	eb03 0080 	addhi.w	r0, r3, r0, lsl #2
     9a4:	2000      	movls	r0, #0
     9a6:	4770      	bx	lr
     9a8:	040006a4 	.word	0x040006a4

000009ac <ZPS_vGetGpContext>:
     9ac:	4b01      	ldr	r3, [pc, #4]	; (9b4 <ZPS_vGetGpContext+0x8>)
     9ae:	6818      	ldr	r0, [r3, #0]
     9b0:	4770      	bx	lr
     9b2:	bf00      	nop
     9b4:	040006ec 	.word	0x040006ec

000009b8 <ZPS_vGetOptionalFeatures>:
     9b8:	b510      	push	{r4, lr}
     9ba:	4c06      	ldr	r4, [pc, #24]	; (9d4 <ZPS_vGetOptionalFeatures+0x1c>)
     9bc:	6820      	ldr	r0, [r4, #0]
     9be:	f025 fb83 	bl	260c8 <zps_vAfInterPanInit>
     9c2:	6820      	ldr	r0, [r4, #0]
     9c4:	f024 fad6 	bl	24f74 <zps_vRegisterGreenPower>
     9c8:	f024 feea 	bl	257a0 <ZPS_vZgpInitGpTxQueue>
     9cc:	e8bd 4010 	ldmia.w	sp!, {r4, lr}
     9d0:	f024 bfd0 	b.w	25974 <ZPS_vZgpInitGpSecurityTable>
     9d4:	04000a9c 	.word	0x04000a9c

000009d8 <vfExtendedStatusCallBack>:
     9d8:	4601      	mov	r1, r0
     9da:	4801      	ldr	r0, [pc, #4]	; (9e0 <vfExtendedStatusCallBack+0x8>)
     9dc:	f001 b86a 	b.w	1ab4 <DbgConsole_Printf>
     9e0:	000361d8 	.word	0x000361d8

000009e4 <vAppMain>:
     9e4:	b530      	push	{r4, r5, lr}
     9e6:	b087      	sub	sp, #28
     9e8:	f006 fc8c 	bl	7304 <vDebugExceptionHandlersInitialise>
     9ec:	a801      	add	r0, sp, #4
     9ee:	f004 fe2f 	bl	5650 <WWDT_GetDefaultConfig>
     9f2:	4b37      	ldr	r3, [pc, #220]	; (ad0 <vAppMain+0xec>)
     9f4:	6f1c      	ldr	r4, [r3, #112]	; 0x70
     9f6:	f014 0410 	ands.w	r4, r4, #16
     9fa:	d025      	beq.n	a48 <vAppMain+0x64>
     9fc:	2016      	movs	r0, #22
     9fe:	f005 fa71 	bl	5ee4 <CLOCK_EnableClock>
     a02:	2016      	movs	r0, #22
     a04:	f005 fb34 	bl	6070 <RESET_PeripheralReset>
     a08:	4832      	ldr	r0, [pc, #200]	; (ad4 <vAppMain+0xf0>)
     a0a:	f004 fe9f 	bl	574c <WWDT_Deinit>
     a0e:	4832      	ldr	r0, [pc, #200]	; (ad8 <vAppMain+0xf4>)
     a10:	f001 f850 	bl	1ab4 <DbgConsole_Printf>
     a14:	f005 ff46 	bl	68a4 <POWER_ClearResetCause>
     a18:	4830      	ldr	r0, [pc, #192]	; (adc <vAppMain+0xf8>)
     a1a:	4931      	ldr	r1, [pc, #196]	; (ae0 <vAppMain+0xfc>)
     a1c:	2300      	movs	r3, #0
     a1e:	4604      	mov	r4, r0
     a20:	2501      	movs	r5, #1
     a22:	9300      	str	r3, [sp, #0]
     a24:	9a00      	ldr	r2, [sp, #0]
     a26:	428a      	cmp	r2, r1
     a28:	d906      	bls.n	a38 <vAppMain+0x54>
     a2a:	7283      	strb	r3, [r0, #10]
     a2c:	9300      	str	r3, [sp, #0]
     a2e:	9a00      	ldr	r2, [sp, #0]
     a30:	428a      	cmp	r2, r1
     a32:	d905      	bls.n	a40 <vAppMain+0x5c>
     a34:	72a5      	strb	r5, [r4, #10]
     a36:	e7f4      	b.n	a22 <vAppMain+0x3e>
     a38:	9a00      	ldr	r2, [sp, #0]
     a3a:	3201      	adds	r2, #1
     a3c:	9200      	str	r2, [sp, #0]
     a3e:	e7f1      	b.n	a24 <vAppMain+0x40>
     a40:	9a00      	ldr	r2, [sp, #0]
     a42:	3201      	adds	r2, #1
     a44:	9200      	str	r2, [sp, #0]
     a46:	e7f2      	b.n	a2e <vAppMain+0x4a>
     a48:	4826      	ldr	r0, [pc, #152]	; (ae4 <vAppMain+0x100>)
     a4a:	f001 f833 	bl	1ab4 <DbgConsole_Printf>
     a4e:	4826      	ldr	r0, [pc, #152]	; (ae8 <vAppMain+0x104>)
     a50:	f001 f830 	bl	1ab4 <DbgConsole_Printf>
     a54:	f04f 4580 	mov.w	r5, #1073741824	; 0x40000000
     a58:	4824      	ldr	r0, [pc, #144]	; (aec <vAppMain+0x108>)
     a5a:	f001 f82b 	bl	1ab4 <DbgConsole_Printf>
     a5e:	4822      	ldr	r0, [pc, #136]	; (ae8 <vAppMain+0x104>)
     a60:	f001 f828 	bl	1ab4 <DbgConsole_Printf>
     a64:	6829      	ldr	r1, [r5, #0]
     a66:	4822      	ldr	r0, [pc, #136]	; (af0 <vAppMain+0x10c>)
     a68:	f001 f824 	bl	1ab4 <DbgConsole_Printf>
     a6c:	4821      	ldr	r0, [pc, #132]	; (af4 <vAppMain+0x110>)
     a6e:	f001 f821 	bl	1ab4 <DbgConsole_Printf>
     a72:	f7ff fd69 	bl	548 <APP_vInitResources>
     a76:	4820      	ldr	r0, [pc, #128]	; (af8 <vAppMain+0x114>)
     a78:	f001 f81c 	bl	1ab4 <DbgConsole_Printf>
     a7c:	2001      	movs	r0, #1
     a7e:	f008 f8dd 	bl	8c3c <PWR_ChangeDeepSleepMode>
     a82:	f008 f8fd 	bl	8c80 <PWR_Init>
     a86:	2001      	movs	r0, #1
     a88:	f008 fb06 	bl	9098 <PWR_vForceRadioRetention>
     a8c:	4622      	mov	r2, r4
     a8e:	213f      	movs	r1, #63	; 0x3f
     a90:	f44f 6096 	mov.w	r0, #1200	; 0x4b0
     a94:	f015 fb50 	bl	16138 <PDM_eInitialise>
     a98:	f7ff feb2 	bl	800 <PDUM_vInit>
     a9c:	4817      	ldr	r0, [pc, #92]	; (afc <vAppMain+0x118>)
     a9e:	f026 f947 	bl	26d30 <ZPS_vExtendedStatusSetCallback>
     aa2:	2001      	movs	r0, #1
     aa4:	f7ff fde2 	bl	66c <APP_vRadioTempUpdate>
     aa8:	f000 fa72 	bl	f90 <APP_vInitialiseRouter>
     aac:	4814      	ldr	r0, [pc, #80]	; (b00 <vAppMain+0x11c>)
     aae:	f001 f801 	bl	1ab4 <DbgConsole_Printf>
     ab2:	f014 f891 	bl	14bd8 <BDB_vStart>
     ab6:	2302      	movs	r3, #2
     ab8:	f8c5 3280 	str.w	r3, [r5, #640]	; 0x280
     abc:	f004 fcfe 	bl	54bc <SystemCoreClockUpdate>
     ac0:	f009 faee 	bl	a0a0 <OSA_TimeInit>
     ac4:	4b05      	ldr	r3, [pc, #20]	; (adc <vAppMain+0xf8>)
     ac6:	2201      	movs	r2, #1
     ac8:	729a      	strb	r2, [r3, #10]
     aca:	b007      	add	sp, #28
     acc:	bd30      	pop	{r4, r5, pc}
     ace:	bf00      	nop
     ad0:	40012000 	.word	0x40012000
     ad4:	4000a000 	.word	0x4000a000
     ad8:	000361f8 	.word	0x000361f8
     adc:	40080000 	.word	0x40080000
     ae0:	0001869f 	.word	0x0001869f
     ae4:	00037cd0 	.word	0x00037cd0
     ae8:	00036220 	.word	0x00036220
     aec:	00036252 	.word	0x00036252
     af0:	00036288 	.word	0x00036288
     af4:	000362a6 	.word	0x000362a6
     af8:	000362ca 	.word	0x000362ca
     afc:	000009d9 	.word	0x000009d9
     b00:	000362eb 	.word	0x000362eb

00000b04 <hardware_init>:
     b04:	f7ff bcb8 	b.w	478 <APP_vSetUpHardware>

00000b08 <APP_vFactoryResetRecords>:
     b08:	b510      	push	{r4, lr}
     b0a:	f7ff ff1b 	bl	944 <ZPS_pvAplZdoGetAplHandle>
     b0e:	f01d fe59 	bl	1e7c4 <zps_vDefaultStack>
     b12:	4c0e      	ldr	r4, [pc, #56]	; (b4c <APP_vFactoryResetRecords+0x44>)
     b14:	f7ff ff16 	bl	944 <ZPS_pvAplZdoGetAplHandle>
     b18:	2200      	movs	r2, #0
     b1a:	2300      	movs	r3, #0
     b1c:	f01c f9a7 	bl	1ce6e <zps_eAplAibSetApsUseExtendedPanId>
     b20:	f01c fd7a 	bl	1d618 <ZPS_vSetKeys>
     b24:	f004 fa22 	bl	4f6c <vAPP_GP_ResetData>
     b28:	2300      	movs	r3, #0
     b2a:	7023      	strb	r3, [r4, #0]
     b2c:	f003 fc6a 	bl	4404 <vResetOTADiscovery>
     b30:	f003 ff12 	bl	4958 <vOTAResetPersist>
     b34:	4621      	mov	r1, r4
     b36:	2201      	movs	r2, #1
     b38:	2007      	movs	r0, #7
     b3a:	f017 fa1f 	bl	17f7c <PDM_eSaveRecordData>
     b3e:	f7ff ff01 	bl	944 <ZPS_pvAplZdoGetAplHandle>
     b42:	e8bd 4010 	ldmia.w	sp!, {r4, lr}
     b46:	f01c bd41 	b.w	1d5cc <zps_vSaveAllZpsRecords>
     b4a:	bf00      	nop
     b4c:	04003f60 	.word	0x04003f60

00000b50 <APP_vBdbCallback>:
     b50:	b57f      	push	{r0, r1, r2, r3, r4, r5, r6, lr}
     b52:	7803      	ldrb	r3, [r0, #0]
     b54:	3b01      	subs	r3, #1
     b56:	4604      	mov	r4, r0
     b58:	2b09      	cmp	r3, #9
     b5a:	f200 8117 	bhi.w	d8c <APP_vBdbCallback+0x23c>
     b5e:	e8df f013 	tbh	[pc, r3, lsl #1]
     b62:	000a      	.short	0x000a
     b64:	01380117 	.word	0x01380117
     b68:	014d0132 	.word	0x014d0132
     b6c:	01150141 	.word	0x01150141
     b70:	01150115 	.word	0x01150115
     b74:	013a      	.short	0x013a
     b76:	7a03      	ldrb	r3, [r0, #8]
     b78:	7c01      	ldrb	r1, [r0, #16]
     b7a:	2b01      	cmp	r3, #1
     b7c:	d111      	bne.n	ba2 <APP_vBdbCallback+0x52>
     b7e:	2901      	cmp	r1, #1
     b80:	d001      	beq.n	b86 <APP_vBdbCallback+0x36>
     b82:	2916      	cmp	r1, #22
     b84:	d103      	bne.n	b8e <APP_vBdbCallback+0x3e>
     b86:	f104 0010 	add.w	r0, r4, #16
     b8a:	f000 fbf3 	bl	1374 <APP_ZCL_vEventHandler>
     b8e:	7c23      	ldrb	r3, [r4, #16]
     b90:	2b01      	cmp	r3, #1
     b92:	f040 80f8 	bne.w	d86 <APP_vBdbCallback+0x236>
     b96:	6aa0      	ldr	r0, [r4, #40]	; 0x28
     b98:	b004      	add	sp, #16
     b9a:	e8bd 4070 	ldmia.w	sp!, {r4, r5, r6, lr}
     b9e:	f015 b84b 	b.w	15c38 <PDUM_eAPduFreeAPduInstance>
     ba2:	2b00      	cmp	r3, #0
     ba4:	f040 80e2 	bne.w	d6c <APP_vBdbCallback+0x21c>
     ba8:	1e4b      	subs	r3, r1, #1
     baa:	2b19      	cmp	r3, #25
     bac:	f200 80dc 	bhi.w	d68 <APP_vBdbCallback+0x218>
     bb0:	a201      	add	r2, pc, #4	; (adr r2, bb8 <APP_vBdbCallback+0x68>)
     bb2:	f852 f023 	ldr.w	pc, [r2, r3, lsl #2]
     bb6:	bf00      	nop
     bb8:	00000c21 	.word	0x00000c21
     bbc:	00000b8f 	.word	0x00000b8f
     bc0:	00000b8f 	.word	0x00000b8f
     bc4:	00000c75 	.word	0x00000c75
     bc8:	00000c7d 	.word	0x00000c7d
     bcc:	00000d69 	.word	0x00000d69
     bd0:	00000cb1 	.word	0x00000cb1
     bd4:	00000cb5 	.word	0x00000cb5
     bd8:	00000cc1 	.word	0x00000cc1
     bdc:	00000ccb 	.word	0x00000ccb
     be0:	00000cd3 	.word	0x00000cd3
     be4:	00000d09 	.word	0x00000d09
     be8:	00000d2f 	.word	0x00000d2f
     bec:	00000d37 	.word	0x00000d37
     bf0:	00000d69 	.word	0x00000d69
     bf4:	00000d3b 	.word	0x00000d3b
     bf8:	00000d41 	.word	0x00000d41
     bfc:	00000d45 	.word	0x00000d45
     c00:	00000d49 	.word	0x00000d49
     c04:	00000d57 	.word	0x00000d57
     c08:	00000d5b 	.word	0x00000d5b
     c0c:	00000d69 	.word	0x00000d69
     c10:	00000d69 	.word	0x00000d69
     c14:	00000d69 	.word	0x00000d69
     c18:	00000d69 	.word	0x00000d69
     c1c:	00000d61 	.word	0x00000d61
     c20:	8e43      	ldrh	r3, [r0, #50]	; 0x32
     c22:	9302      	str	r3, [sp, #8]
     c24:	8e03      	ldrh	r3, [r0, #48]	; 0x30
     c26:	9301      	str	r3, [sp, #4]
     c28:	f890 3035 	ldrb.w	r3, [r0, #53]	; 0x35
     c2c:	9300      	str	r3, [sp, #0]
     c2e:	f890 3037 	ldrb.w	r3, [r0, #55]	; 0x37
     c32:	8c02      	ldrh	r2, [r0, #32]
     c34:	f890 1038 	ldrb.w	r1, [r0, #56]	; 0x38
     c38:	4871      	ldr	r0, [pc, #452]	; (e00 <APP_vBdbCallback+0x2b0>)
     c3a:	f000 ff3b 	bl	1ab4 <DbgConsole_Printf>
     c3e:	f894 3038 	ldrb.w	r3, [r4, #56]	; 0x38
     c42:	2b00      	cmp	r3, #0
     c44:	d1a3      	bne.n	b8e <APP_vBdbCallback+0x3e>
     c46:	f894 3035 	ldrb.w	r3, [r4, #53]	; 0x35
     c4a:	2b00      	cmp	r3, #0
     c4c:	d19f      	bne.n	b8e <APP_vBdbCallback+0x3e>
     c4e:	8e63      	ldrh	r3, [r4, #50]	; 0x32
     c50:	f248 0206 	movw	r2, #32774	; 0x8006
     c54:	4293      	cmp	r3, r2
     c56:	d104      	bne.n	c62 <APP_vBdbCallback+0x112>
     c58:	f104 0010 	add.w	r0, r4, #16
     c5c:	f003 faf8 	bl	4250 <vHandleMatchDescriptor>
     c60:	e795      	b.n	b8e <APP_vBdbCallback+0x3e>
     c62:	f248 0201 	movw	r2, #32769	; 0x8001
     c66:	4293      	cmp	r3, r2
     c68:	d191      	bne.n	b8e <APP_vBdbCallback+0x3e>
     c6a:	f104 0010 	add.w	r0, r4, #16
     c6e:	f003 fb47 	bl	4300 <vHandleIeeeAddressRsp>
     c72:	e78c      	b.n	b8e <APP_vBdbCallback+0x3e>
     c74:	4863      	ldr	r0, [pc, #396]	; (e04 <APP_vBdbCallback+0x2b4>)
     c76:	f000 ff1d 	bl	1ab4 <DbgConsole_Printf>
     c7a:	e788      	b.n	b8e <APP_vBdbCallback+0x3e>
     c7c:	7e82      	ldrb	r2, [r0, #26]
     c7e:	8b01      	ldrh	r1, [r0, #24]
     c80:	4861      	ldr	r0, [pc, #388]	; (e08 <APP_vBdbCallback+0x2b8>)
     c82:	f000 ff17 	bl	1ab4 <DbgConsole_Printf>
     c86:	4961      	ldr	r1, [pc, #388]	; (e0c <APP_vBdbCallback+0x2bc>)
     c88:	2201      	movs	r2, #1
     c8a:	2007      	movs	r0, #7
     c8c:	700a      	strb	r2, [r1, #0]
     c8e:	f017 f975 	bl	17f7c <PDM_eSaveRecordData>
     c92:	f7ff fe57 	bl	944 <ZPS_pvAplZdoGetAplHandle>
     c96:	f01c ffbd 	bl	1dc14 <zps_pvAplZdoGetNwkHandle>
     c9a:	f028 fdb0 	bl	297fe <ZPS_u64NwkNibGetEpid>
     c9e:	4606      	mov	r6, r0
     ca0:	460d      	mov	r5, r1
     ca2:	f7ff fe4f 	bl	944 <ZPS_pvAplZdoGetAplHandle>
     ca6:	4632      	mov	r2, r6
     ca8:	462b      	mov	r3, r5
     caa:	f01c f8e0 	bl	1ce6e <zps_eAplAibSetApsUseExtendedPanId>
     cae:	e76e      	b.n	b8e <APP_vBdbCallback+0x3e>
     cb0:	4857      	ldr	r0, [pc, #348]	; (e10 <APP_vBdbCallback+0x2c0>)
     cb2:	e7e0      	b.n	c76 <APP_vBdbCallback+0x126>
     cb4:	7e42      	ldrb	r2, [r0, #25]
     cb6:	7e01      	ldrb	r1, [r0, #24]
     cb8:	4856      	ldr	r0, [pc, #344]	; (e14 <APP_vBdbCallback+0x2c4>)
     cba:	f000 fefb 	bl	1ab4 <DbgConsole_Printf>
     cbe:	e766      	b.n	b8e <APP_vBdbCallback+0x3e>
     cc0:	8c01      	ldrh	r1, [r0, #32]
     cc2:	4855      	ldr	r0, [pc, #340]	; (e18 <APP_vBdbCallback+0x2c8>)
     cc4:	f000 fef6 	bl	1ab4 <DbgConsole_Printf>
     cc8:	e761      	b.n	b8e <APP_vBdbCallback+0x3e>
     cca:	f890 1020 	ldrb.w	r1, [r0, #32]
     cce:	4853      	ldr	r0, [pc, #332]	; (e1c <APP_vBdbCallback+0x2cc>)
     cd0:	e7f8      	b.n	cc4 <APP_vBdbCallback+0x174>
     cd2:	f890 3020 	ldrb.w	r3, [r0, #32]
     cd6:	9300      	str	r3, [sp, #0]
     cd8:	e9d0 2306 	ldrd	r2, r3, [r0, #24]
     cdc:	4850      	ldr	r0, [pc, #320]	; (e20 <APP_vBdbCallback+0x2d0>)
     cde:	f000 fee9 	bl	1ab4 <DbgConsole_Printf>
     ce2:	e9d4 2306 	ldrd	r2, r3, [r4, #24]
     ce6:	4313      	orrs	r3, r2
     ce8:	f47f af51 	bne.w	b8e <APP_vBdbCallback+0x3e>
     cec:	f894 3020 	ldrb.w	r3, [r4, #32]
     cf0:	2b00      	cmp	r3, #0
     cf2:	f47f af4c 	bne.w	b8e <APP_vBdbCallback+0x3e>
     cf6:	484b      	ldr	r0, [pc, #300]	; (e24 <APP_vBdbCallback+0x2d4>)
     cf8:	f000 fedc 	bl	1ab4 <DbgConsole_Printf>
     cfc:	f7ff ff04 	bl	b08 <APP_vFactoryResetRecords>
     d00:	b672      	cpsid	i
     d02:	f005 f9bf 	bl	6084 <RESET_SystemReset>
     d06:	e742      	b.n	b8e <APP_vBdbCallback+0x3e>
     d08:	e9d0 2306 	ldrd	r2, r3, [r0, #24]
     d0c:	f890 1020 	ldrb.w	r1, [r0, #32]
     d10:	4845      	ldr	r0, [pc, #276]	; (e28 <APP_vBdbCallback+0x2d8>)
     d12:	f000 fecf 	bl	1ab4 <DbgConsole_Printf>
     d16:	f894 3020 	ldrb.w	r3, [r4, #32]
     d1a:	2b00      	cmp	r3, #0
     d1c:	f47f af37 	bne.w	b8e <APP_vBdbCallback+0x3e>
     d20:	e9d4 2306 	ldrd	r2, r3, [r4, #24]
     d24:	4313      	orrs	r3, r2
     d26:	f47f af32 	bne.w	b8e <APP_vBdbCallback+0x3e>
     d2a:	4840      	ldr	r0, [pc, #256]	; (e2c <APP_vBdbCallback+0x2dc>)
     d2c:	e7e4      	b.n	cf8 <APP_vBdbCallback+0x1a8>
     d2e:	8b02      	ldrh	r2, [r0, #24]
     d30:	7e81      	ldrb	r1, [r0, #26]
     d32:	483f      	ldr	r0, [pc, #252]	; (e30 <APP_vBdbCallback+0x2e0>)
     d34:	e7c1      	b.n	cba <APP_vBdbCallback+0x16a>
     d36:	483f      	ldr	r0, [pc, #252]	; (e34 <APP_vBdbCallback+0x2e4>)
     d38:	e79d      	b.n	c76 <APP_vBdbCallback+0x126>
     d3a:	7e01      	ldrb	r1, [r0, #24]
     d3c:	483e      	ldr	r0, [pc, #248]	; (e38 <APP_vBdbCallback+0x2e8>)
     d3e:	e7c1      	b.n	cc4 <APP_vBdbCallback+0x174>
     d40:	483e      	ldr	r0, [pc, #248]	; (e3c <APP_vBdbCallback+0x2ec>)
     d42:	e798      	b.n	c76 <APP_vBdbCallback+0x126>
     d44:	483e      	ldr	r0, [pc, #248]	; (e40 <APP_vBdbCallback+0x2f0>)
     d46:	e796      	b.n	c76 <APP_vBdbCallback+0x126>
     d48:	e9d0 2308 	ldrd	r2, r3, [r0, #32]
     d4c:	7e01      	ldrb	r1, [r0, #24]
     d4e:	483d      	ldr	r0, [pc, #244]	; (e44 <APP_vBdbCallback+0x2f4>)
     d50:	f000 feb0 	bl	1ab4 <DbgConsole_Printf>
     d54:	e71b      	b.n	b8e <APP_vBdbCallback+0x3e>
     d56:	483c      	ldr	r0, [pc, #240]	; (e48 <APP_vBdbCallback+0x2f8>)
     d58:	e78d      	b.n	c76 <APP_vBdbCallback+0x126>
     d5a:	7e01      	ldrb	r1, [r0, #24]
     d5c:	483b      	ldr	r0, [pc, #236]	; (e4c <APP_vBdbCallback+0x2fc>)
     d5e:	e7b1      	b.n	cc4 <APP_vBdbCallback+0x174>
     d60:	f890 1020 	ldrb.w	r1, [r0, #32]
     d64:	483a      	ldr	r0, [pc, #232]	; (e50 <APP_vBdbCallback+0x300>)
     d66:	e7ad      	b.n	cc4 <APP_vBdbCallback+0x174>
     d68:	483a      	ldr	r0, [pc, #232]	; (e54 <APP_vBdbCallback+0x304>)
     d6a:	e7ab      	b.n	cc4 <APP_vBdbCallback+0x174>
     d6c:	2bf2      	cmp	r3, #242	; 0xf2
     d6e:	d007      	beq.n	d80 <APP_vBdbCallback+0x230>
     d70:	2919      	cmp	r1, #25
     d72:	f47f af0c 	bne.w	b8e <APP_vBdbCallback+0x3e>
     d76:	3918      	subs	r1, #24
     d78:	2901      	cmp	r1, #1
     d7a:	f63f af08 	bhi.w	b8e <APP_vBdbCallback+0x3e>
     d7e:	e702      	b.n	b86 <APP_vBdbCallback+0x36>
     d80:	2901      	cmp	r1, #1
     d82:	d1f8      	bne.n	d76 <APP_vBdbCallback+0x226>
     d84:	e6ff      	b.n	b86 <APP_vBdbCallback+0x36>
     d86:	2b16      	cmp	r3, #22
     d88:	f43f af05 	beq.w	b96 <APP_vBdbCallback+0x46>
     d8c:	b004      	add	sp, #16
     d8e:	bd70      	pop	{r4, r5, r6, pc}
     d90:	4c1e      	ldr	r4, [pc, #120]	; (e0c <APP_vBdbCallback+0x2bc>)
     d92:	4831      	ldr	r0, [pc, #196]	; (e58 <APP_vBdbCallback+0x308>)
     d94:	f000 fe8e 	bl	1ab4 <DbgConsole_Printf>
     d98:	7823      	ldrb	r3, [r4, #0]
     d9a:	b943      	cbnz	r3, dae <APP_vBdbCallback+0x25e>
     d9c:	f014 f922 	bl	14fe4 <BDB_eNsStartNwkSteering>
     da0:	4601      	mov	r1, r0
     da2:	482e      	ldr	r0, [pc, #184]	; (e5c <APP_vBdbCallback+0x30c>)
     da4:	b004      	add	sp, #16
     da6:	e8bd 4070 	ldmia.w	sp!, {r4, r5, r6, lr}
     daa:	f000 be83 	b.w	1ab4 <DbgConsole_Printf>
     dae:	482c      	ldr	r0, [pc, #176]	; (e60 <APP_vBdbCallback+0x310>)
     db0:	f000 fe80 	bl	1ab4 <DbgConsole_Printf>
     db4:	2201      	movs	r2, #1
     db6:	7022      	strb	r2, [r4, #0]
     db8:	4621      	mov	r1, r4
     dba:	2007      	movs	r0, #7
     dbc:	b004      	add	sp, #16
     dbe:	e8bd 4070 	ldmia.w	sp!, {r4, r5, r6, lr}
     dc2:	f017 b8db 	b.w	17f7c <PDM_eSaveRecordData>
     dc6:	4827      	ldr	r0, [pc, #156]	; (e64 <APP_vBdbCallback+0x314>)
     dc8:	b004      	add	sp, #16
     dca:	e8bd 4070 	ldmia.w	sp!, {r4, r5, r6, lr}
     dce:	f000 be71 	b.w	1ab4 <DbgConsole_Printf>
     dd2:	4825      	ldr	r0, [pc, #148]	; (e68 <APP_vBdbCallback+0x318>)
     dd4:	e7f8      	b.n	dc8 <APP_vBdbCallback+0x278>
     dd6:	4825      	ldr	r0, [pc, #148]	; (e6c <APP_vBdbCallback+0x31c>)
     dd8:	f000 fe6c 	bl	1ab4 <DbgConsole_Printf>
     ddc:	490b      	ldr	r1, [pc, #44]	; (e0c <APP_vBdbCallback+0x2bc>)
     dde:	2201      	movs	r2, #1
     de0:	700a      	strb	r2, [r1, #0]
     de2:	e7ea      	b.n	dba <APP_vBdbCallback+0x26a>
     de4:	4822      	ldr	r0, [pc, #136]	; (e70 <APP_vBdbCallback+0x320>)
     de6:	f000 fe65 	bl	1ab4 <DbgConsole_Printf>
     dea:	4b08      	ldr	r3, [pc, #32]	; (e0c <APP_vBdbCallback+0x2bc>)
     dec:	781b      	ldrb	r3, [r3, #0]
     dee:	2b00      	cmp	r3, #0
     df0:	d1cc      	bne.n	d8c <APP_vBdbCallback+0x23c>
     df2:	f014 f8f7 	bl	14fe4 <BDB_eNsStartNwkSteering>
     df6:	4601      	mov	r1, r0
     df8:	481e      	ldr	r0, [pc, #120]	; (e74 <APP_vBdbCallback+0x324>)
     dfa:	e7d3      	b.n	da4 <APP_vBdbCallback+0x254>
     dfc:	481e      	ldr	r0, [pc, #120]	; (e78 <APP_vBdbCallback+0x328>)
     dfe:	e7eb      	b.n	dd8 <APP_vBdbCallback+0x288>
     e00:	00036307 	.word	0x00036307
     e04:	00036366 	.word	0x00036366
     e08:	00036381 	.word	0x00036381
     e0c:	04003f60 	.word	0x04003f60
     e10:	000363af 	.word	0x000363af
     e14:	000363d2 	.word	0x000363d2
     e18:	000363fb 	.word	0x000363fb
     e1c:	0003641f 	.word	0x0003641f
     e20:	00036442 	.word	0x00036442
     e24:	00036470 	.word	0x00036470
     e28:	00036490 	.word	0x00036490
     e2c:	000364c2 	.word	0x000364c2
     e30:	000364e3 	.word	0x000364e3
     e34:	00036517 	.word	0x00036517
     e38:	00036534 	.word	0x00036534
     e3c:	00036557 	.word	0x00036557
     e40:	00036571 	.word	0x00036571
     e44:	0003658e 	.word	0x0003658e
     e48:	000365c1 	.word	0x000365c1
     e4c:	000365e6 	.word	0x000365e6
     e50:	00036603 	.word	0x00036603
     e54:	00036627 	.word	0x00036627
     e58:	00036645 	.word	0x00036645
     e5c:	00036663 	.word	0x00036663
     e60:	00036680 	.word	0x00036680
     e64:	00036694 	.word	0x00036694
     e68:	000366bd 	.word	0x000366bd
     e6c:	000366e6 	.word	0x000366e6
     e70:	00036703 	.word	0x00036703
     e74:	0003671a 	.word	0x0003671a
     e78:	00036738 	.word	0x00036738

00000e7c <APP_taskRouter>:
     e7c:	b530      	push	{r4, r5, lr}
     e7e:	b093      	sub	sp, #76	; 0x4c
     e80:	4838      	ldr	r0, [pc, #224]	; (f64 <APP_taskRouter+0xe8>)
     e82:	2400      	movs	r4, #0
     e84:	a903      	add	r1, sp, #12
     e86:	f88d 400c 	strb.w	r4, [sp, #12]
     e8a:	f004 f8d3 	bl	5034 <ZQ_bQueueReceive>
     e8e:	2801      	cmp	r0, #1
     e90:	d15b      	bne.n	f4a <APP_taskRouter+0xce>
     e92:	4d35      	ldr	r5, [pc, #212]	; (f68 <APP_taskRouter+0xec>)
     e94:	f89d 100c 	ldrb.w	r1, [sp, #12]
     e98:	782a      	ldrb	r2, [r5, #0]
     e9a:	4834      	ldr	r0, [pc, #208]	; (f6c <APP_taskRouter+0xf0>)
     e9c:	f000 fe0a 	bl	1ab4 <DbgConsole_Printf>
     ea0:	f89d 300c 	ldrb.w	r3, [sp, #12]
     ea4:	2b02      	cmp	r3, #2
     ea6:	d12e      	bne.n	f06 <APP_taskRouter+0x8a>
     ea8:	f89d 3010 	ldrb.w	r3, [sp, #16]
     eac:	b9b3      	cbnz	r3, edc <APP_taskRouter+0x60>
     eae:	782b      	ldrb	r3, [r5, #0]
     eb0:	2b01      	cmp	r3, #1
     eb2:	d115      	bne.n	ee0 <APP_taskRouter+0x64>
     eb4:	482e      	ldr	r0, [pc, #184]	; (f70 <APP_taskRouter+0xf4>)
     eb6:	f000 fdfd 	bl	1ab4 <DbgConsole_Printf>
     eba:	f014 f893 	bl	14fe4 <BDB_eNsStartNwkSteering>
     ebe:	4601      	mov	r1, r0
     ec0:	b110      	cbz	r0, ec8 <APP_taskRouter+0x4c>
     ec2:	482c      	ldr	r0, [pc, #176]	; (f74 <APP_taskRouter+0xf8>)
     ec4:	f000 fdf6 	bl	1ab4 <DbgConsole_Printf>
     ec8:	2001      	movs	r0, #1
     eca:	f014 fb99 	bl	15600 <BDB_eFbTriggerAsTarget>
     ece:	4601      	mov	r1, r0
     ed0:	b120      	cbz	r0, edc <APP_taskRouter+0x60>
     ed2:	2809      	cmp	r0, #9
     ed4:	d002      	beq.n	edc <APP_taskRouter+0x60>
     ed6:	4828      	ldr	r0, [pc, #160]	; (f78 <APP_taskRouter+0xfc>)
     ed8:	f000 fdec 	bl	1ab4 <DbgConsole_Printf>
     edc:	b013      	add	sp, #76	; 0x4c
     ede:	bd30      	pop	{r4, r5, pc}
     ee0:	4826      	ldr	r0, [pc, #152]	; (f7c <APP_taskRouter+0x100>)
     ee2:	f000 fde7 	bl	1ab4 <DbgConsole_Printf>
     ee6:	f014 fb35 	bl	15554 <BDB_eNfStartNwkFormation>
     eea:	4601      	mov	r1, r0
     eec:	b118      	cbz	r0, ef6 <APP_taskRouter+0x7a>
     eee:	2807      	cmp	r0, #7
     ef0:	d001      	beq.n	ef6 <APP_taskRouter+0x7a>
     ef2:	4823      	ldr	r0, [pc, #140]	; (f80 <APP_taskRouter+0x104>)
     ef4:	e7f0      	b.n	ed8 <APP_taskRouter+0x5c>
     ef6:	f7ff fd25 	bl	944 <ZPS_pvAplZdoGetAplHandle>
     efa:	f01c fe8d 	bl	1dc18 <zps_psAplZdoGetNib>
     efe:	f890 10bc 	ldrb.w	r1, [r0, #188]	; 0xbc
     f02:	4820      	ldr	r0, [pc, #128]	; (f84 <APP_taskRouter+0x108>)
     f04:	e7e8      	b.n	ed8 <APP_taskRouter+0x5c>
     f06:	2b01      	cmp	r3, #1
     f08:	d0e8      	beq.n	edc <APP_taskRouter+0x60>
     f0a:	2b06      	cmp	r3, #6
     f0c:	d113      	bne.n	f36 <APP_taskRouter+0xba>
     f0e:	782b      	ldrb	r3, [r5, #0]
     f10:	2b01      	cmp	r3, #1
     f12:	d108      	bne.n	f26 <APP_taskRouter+0xaa>
     f14:	f7ff fd16 	bl	944 <ZPS_pvAplZdoGetAplHandle>
     f18:	e9cd 4400 	strd	r4, r4, [sp]
     f1c:	2200      	movs	r2, #0
     f1e:	2300      	movs	r3, #0
     f20:	f01c fecc 	bl	1dcbc <zps_eAplZdoLeaveNetwork>
     f24:	b120      	cbz	r0, f30 <APP_taskRouter+0xb4>
     f26:	f7ff fdef 	bl	b08 <APP_vFactoryResetRecords>
     f2a:	b672      	cpsid	i
     f2c:	f005 f8aa 	bl	6084 <RESET_SystemReset>
     f30:	f015 fc5a 	bl	167e8 <PDM_vDeleteAllDataRecords>
     f34:	e7d2      	b.n	edc <APP_taskRouter+0x60>
     f36:	2b0b      	cmp	r3, #11
     f38:	d102      	bne.n	f40 <APP_taskRouter+0xc4>
     f3a:	f002 ff53 	bl	3de4 <vAPP_LinkySensorSample>
     f3e:	e7cd      	b.n	edc <APP_taskRouter+0x60>
     f40:	2b09      	cmp	r3, #9
     f42:	d1cb      	bne.n	edc <APP_taskRouter+0x60>
     f44:	f004 f812 	bl	4f6c <vAPP_GP_ResetData>
     f48:	e7c8      	b.n	edc <APP_taskRouter+0x60>
     f4a:	490f      	ldr	r1, [pc, #60]	; (f88 <APP_taskRouter+0x10c>)
     f4c:	480f      	ldr	r0, [pc, #60]	; (f8c <APP_taskRouter+0x110>)
     f4e:	f004 f871 	bl	5034 <ZQ_bQueueReceive>
     f52:	2801      	cmp	r0, #1
     f54:	d1c2      	bne.n	edc <APP_taskRouter+0x60>
     f56:	2320      	movs	r3, #32
     f58:	a806      	add	r0, sp, #24
     f5a:	f88d 3018 	strb.w	r3, [sp, #24]
     f5e:	f011 fcdf 	bl	12920 <vZCL_EventHandler>
     f62:	e7bb      	b.n	edc <APP_taskRouter+0x60>
     f64:	040010f0 	.word	0x040010f0
     f68:	04003f60 	.word	0x04003f60
     f6c:	00036754 	.word	0x00036754
     f70:	00036776 	.word	0x00036776
     f74:	000367a6 	.word	0x000367a6
     f78:	000367c9 	.word	0x000367c9
     f7c:	000367f1 	.word	0x000367f1
     f80:	00036814 	.word	0x00036814
     f84:	00036837 	.word	0x00036837
     f88:	040012a0 	.word	0x040012a0
     f8c:	04001110 	.word	0x04001110

00000f90 <APP_vInitialiseRouter>:
     f90:	e92d 47ff 	stmdb	sp!, {r0, r1, r2, r3, r4, r5, r6, r7, r8, r9, sl, lr}
     f94:	4c52      	ldr	r4, [pc, #328]	; (10e0 <STACK_SIZE+0x100>)
     f96:	f003 f929 	bl	41ec <vLoadOTAPersistedData>
     f9a:	f000 ff3f 	bl	1e1c <vManagePowerOnCountLoadRecord>
     f9e:	f003 ffcb 	bl	4f38 <vAPP_GP_LoadPDMData>
     fa2:	f007 fe3b 	bl	8c1c <PWR_DisallowDeviceToSleep>
     fa6:	2300      	movs	r3, #0
     fa8:	2201      	movs	r2, #1
     faa:	4621      	mov	r1, r4
     fac:	7023      	strb	r3, [r4, #0]
     fae:	2007      	movs	r0, #7
     fb0:	f10d 030a 	add.w	r3, sp, #10
     fb4:	f015 fa96 	bl	164e4 <PDM_eReadDataFromRecord>
     fb8:	f001 fa1e 	bl	23f8 <eRestoreReports>
     fbc:	4605      	mov	r5, r0
     fbe:	2004      	movs	r0, #4
     fc0:	f022 fdec 	bl	23b9c <ZPS_u32MacSetTxBuffers>
     fc4:	f7ff fcbe 	bl	944 <ZPS_pvAplZdoGetAplHandle>
     fc8:	f01b ff4f 	bl	1ce6a <zps_psAplAibGetAib>
     fcc:	2601      	movs	r6, #1
     fce:	f880 602d 	strb.w	r6, [r0, #45]	; 0x2d
     fd2:	f7ff fcb7 	bl	944 <ZPS_pvAplZdoGetAplHandle>
     fd6:	4631      	mov	r1, r6
     fd8:	f017 fba4 	bl	18724 <zps_eAplAfInit>
     fdc:	f000 f91c 	bl	1218 <APP_ZCL_vInitialise>
     fe0:	7823      	ldrb	r3, [r4, #0]
     fe2:	4e40      	ldr	r6, [pc, #256]	; (10e4 <STACK_SIZE+0x104>)
     fe4:	3b00      	subs	r3, #0
     fe6:	bf18      	it	ne
     fe8:	2301      	movne	r3, #1
     fea:	a803      	add	r0, sp, #12
     fec:	f886 302a 	strb.w	r3, [r6, #42]	; 0x2a
     ff0:	4b3d      	ldr	r3, [pc, #244]	; (10e8 <STACK_SIZE+0x108>)
     ff2:	9303      	str	r3, [sp, #12]
     ff4:	f013 fbcc 	bl	14790 <BDB_vInit>
     ff8:	f000 fc4e 	bl	1898 <APP_vLedInitialise>
     ffc:	f000 fbee 	bl	17dc <APP_bButtonInitialise>
    1000:	f000 fb50 	bl	16a4 <APP_u32GetSwitchIOState>
    1004:	07c2      	lsls	r2, r0, #31
    1006:	d416      	bmi.n	1036 <STACK_SIZE+0x56>
    1008:	f000 fb4c 	bl	16a4 <APP_u32GetSwitchIOState>
    100c:	07c3      	lsls	r3, r0, #31
    100e:	d5fb      	bpl.n	1008 <STACK_SIZE+0x28>
    1010:	f7ff fc98 	bl	944 <ZPS_pvAplZdoGetAplHandle>
    1014:	2300      	movs	r3, #0
    1016:	e9cd 3300 	strd	r3, r3, [sp]
    101a:	2200      	movs	r2, #0
    101c:	2300      	movs	r3, #0
    101e:	f01c fe4d 	bl	1dcbc <zps_eAplZdoLeaveNetwork>
    1022:	4601      	mov	r1, r0
    1024:	b380      	cbz	r0, 1088 <STACK_SIZE+0xa8>
    1026:	4831      	ldr	r0, [pc, #196]	; (10ec <STACK_SIZE+0x10c>)
    1028:	f000 fd44 	bl	1ab4 <DbgConsole_Printf>
    102c:	f7ff fd6c 	bl	b08 <APP_vFactoryResetRecords>
    1030:	b672      	cpsid	i
    1032:	f005 f827 	bl	6084 <RESET_SystemReset>
    1036:	4b2e      	ldr	r3, [pc, #184]	; (10f0 <STACK_SIZE+0x110>)
    1038:	7821      	ldrb	r1, [r4, #0]
    103a:	482e      	ldr	r0, [pc, #184]	; (10f4 <STACK_SIZE+0x114>)
    103c:	2205      	movs	r2, #5
    103e:	701a      	strb	r2, [r3, #0]
    1040:	f896 202a 	ldrb.w	r2, [r6, #42]	; 0x2a
    1044:	f000 fd36 	bl	1ab4 <DbgConsole_Printf>
    1048:	b10d      	cbz	r5, 104e <STACK_SIZE+0x6e>
    104a:	f001 fa25 	bl	2498 <vLoadDefaultConfigForReportable>
    104e:	f001 f9e9 	bl	2424 <vMakeSupportedAttributesReportable>
    1052:	f004 f9bd 	bl	53d0 <vDisplayBindingTable>
    1056:	f7ff fc75 	bl	944 <ZPS_pvAplZdoGetAplHandle>
    105a:	f01b ff06 	bl	1ce6a <zps_psAplAibGetAib>
    105e:	4f26      	ldr	r7, [pc, #152]	; (10f8 <STACK_SIZE+0x118>)
    1060:	f8df 809c 	ldr.w	r8, [pc, #156]	; 1100 <STACK_SIZE+0x120>
    1064:	f8df 909c 	ldr.w	r9, [pc, #156]	; 1104 <STACK_SIZE+0x124>
    1068:	4604      	mov	r4, r0
    106a:	2600      	movs	r6, #0
    106c:	6a63      	ldr	r3, [r4, #36]	; 0x24
    106e:	889b      	ldrh	r3, [r3, #4]
    1070:	fa5f fa86 	uxtb.w	sl, r6
    1074:	3302      	adds	r3, #2
    1076:	459a      	cmp	sl, r3
    1078:	dd0a      	ble.n	1090 <STACK_SIZE+0xb0>
    107a:	f002 feb3 	bl	3de4 <vAPP_LinkySensorSample>
    107e:	f000 fedb 	bl	1e38 <vManagePowerOnCountInit>
    1082:	b004      	add	sp, #16
    1084:	e8bd 87f0 	ldmia.w	sp!, {r4, r5, r6, r7, r8, r9, sl, pc}
    1088:	481c      	ldr	r0, [pc, #112]	; (10fc <STACK_SIZE+0x11c>)
    108a:	f000 fd13 	bl	1ab4 <DbgConsole_Printf>
    108e:	e7d2      	b.n	1036 <STACK_SIZE+0x56>
    1090:	f7ff fc58 	bl	944 <ZPS_pvAplZdoGetAplHandle>
    1094:	f01c fdbe 	bl	1dc14 <zps_pvAplZdoGetNwkHandle>
    1098:	6a63      	ldr	r3, [r4, #36]	; 0x24
    109a:	2518      	movs	r5, #24
    109c:	681b      	ldr	r3, [r3, #0]
    109e:	fb05 f50a 	mul.w	r5, r5, sl
    10a2:	442b      	add	r3, r5
    10a4:	8899      	ldrh	r1, [r3, #4]
    10a6:	f026 fca3 	bl	279f0 <ZPS_u64NwkNibGetMappedIeeeAddr>
    10aa:	4603      	mov	r3, r0
    10ac:	460a      	mov	r2, r1
    10ae:	4638      	mov	r0, r7
    10b0:	4651      	mov	r1, sl
    10b2:	f000 fcff 	bl	1ab4 <DbgConsole_Printf>
    10b6:	f04f 0a00 	mov.w	sl, #0
    10ba:	6a63      	ldr	r3, [r4, #36]	; 0x24
    10bc:	681b      	ldr	r3, [r3, #0]
    10be:	442b      	add	r3, r5
    10c0:	4453      	add	r3, sl
    10c2:	4640      	mov	r0, r8
    10c4:	7999      	ldrb	r1, [r3, #6]
    10c6:	f10a 0a01 	add.w	sl, sl, #1
    10ca:	f000 fcf3 	bl	1ab4 <DbgConsole_Printf>
    10ce:	f1ba 0f10 	cmp.w	sl, #16
    10d2:	d1f2      	bne.n	10ba <STACK_SIZE+0xda>
    10d4:	4648      	mov	r0, r9
    10d6:	f000 fced 	bl	1ab4 <DbgConsole_Printf>
    10da:	3601      	adds	r6, #1
    10dc:	e7c6      	b.n	106c <STACK_SIZE+0x8c>
    10de:	bf00      	nop
    10e0:	04003f60 	.word	0x04003f60
    10e4:	04007ef0 	.word	0x04007ef0
    10e8:	04001100 	.word	0x04001100
    10ec:	0003685f 	.word	0x0003685f
    10f0:	04003f61 	.word	0x04003f61
    10f4:	0003689d 	.word	0x0003689d
    10f8:	000368bf 	.word	0x000368bf
    10fc:	00036889 	.word	0x00036889
    1100:	000381cd 	.word	0x000381cd
    1104:	00037cd0 	.word	0x00037cd0

00001108 <sGetOTACallBackPersistdata>:
    1108:	b510      	push	{r4, lr}
    110a:	4903      	ldr	r1, [pc, #12]	; (1118 <sGetOTACallBackPersistdata+0x10>)
    110c:	4604      	mov	r4, r0
    110e:	22a8      	movs	r2, #168	; 0xa8
    1110:	f034 fb9c 	bl	3584c <memcpy>
    1114:	4620      	mov	r0, r4
    1116:	bd10      	pop	{r4, pc}
    1118:	04004428 	.word	0x04004428

0000111c <app_u8GetDeviceEndpoint>:
    111c:	2001      	movs	r0, #1
    111e:	4770      	bx	lr

00001120 <APP_ZCL_cbGeneralCallback>:
    1120:	7803      	ldrb	r3, [r0, #0]
    1122:	2b0a      	cmp	r3, #10
    1124:	d81c      	bhi.n	1160 <APP_ZCL_cbGeneralCallback+0x40>
    1126:	e8df f003 	tbb	[pc, r3]
    112a:	0906      	.short	0x0906
    112c:	0f0d1b0b 	.word	0x0f0d1b0b
    1130:	17151311 	.word	0x17151311
    1134:	19          	.byte	0x19
    1135:	00          	.byte	0x00
    1136:	480b      	ldr	r0, [pc, #44]	; (1164 <APP_ZCL_cbGeneralCallback+0x44>)
    1138:	f000 bcbc 	b.w	1ab4 <DbgConsole_Printf>
    113c:	480a      	ldr	r0, [pc, #40]	; (1168 <APP_ZCL_cbGeneralCallback+0x48>)
    113e:	e7fb      	b.n	1138 <APP_ZCL_cbGeneralCallback+0x18>
    1140:	480a      	ldr	r0, [pc, #40]	; (116c <APP_ZCL_cbGeneralCallback+0x4c>)
    1142:	e7f9      	b.n	1138 <APP_ZCL_cbGeneralCallback+0x18>
    1144:	480a      	ldr	r0, [pc, #40]	; (1170 <APP_ZCL_cbGeneralCallback+0x50>)
    1146:	e7f7      	b.n	1138 <APP_ZCL_cbGeneralCallback+0x18>
    1148:	480a      	ldr	r0, [pc, #40]	; (1174 <APP_ZCL_cbGeneralCallback+0x54>)
    114a:	e7f5      	b.n	1138 <APP_ZCL_cbGeneralCallback+0x18>
    114c:	480a      	ldr	r0, [pc, #40]	; (1178 <APP_ZCL_cbGeneralCallback+0x58>)
    114e:	e7f3      	b.n	1138 <APP_ZCL_cbGeneralCallback+0x18>
    1150:	480a      	ldr	r0, [pc, #40]	; (117c <APP_ZCL_cbGeneralCallback+0x5c>)
    1152:	e7f1      	b.n	1138 <APP_ZCL_cbGeneralCallback+0x18>
    1154:	480a      	ldr	r0, [pc, #40]	; (1180 <APP_ZCL_cbGeneralCallback+0x60>)
    1156:	e7ef      	b.n	1138 <APP_ZCL_cbGeneralCallback+0x18>
    1158:	480a      	ldr	r0, [pc, #40]	; (1184 <APP_ZCL_cbGeneralCallback+0x64>)
    115a:	e7ed      	b.n	1138 <APP_ZCL_cbGeneralCallback+0x18>
    115c:	480a      	ldr	r0, [pc, #40]	; (1188 <APP_ZCL_cbGeneralCallback+0x68>)
    115e:	e7eb      	b.n	1138 <APP_ZCL_cbGeneralCallback+0x18>
    1160:	480a      	ldr	r0, [pc, #40]	; (118c <APP_ZCL_cbGeneralCallback+0x6c>)
    1162:	e7e9      	b.n	1138 <APP_ZCL_cbGeneralCallback+0x18>
    1164:	000368d5 	.word	0x000368d5
    1168:	000368ea 	.word	0x000368ea
    116c:	00036901 	.word	0x00036901
    1170:	0003691b 	.word	0x0003691b
    1174:	0003693b 	.word	0x0003693b
    1178:	0003694f 	.word	0x0003694f
    117c:	00036967 	.word	0x00036967
    1180:	00036974 	.word	0x00036974
    1184:	00036981 	.word	0x00036981
    1188:	0003698f 	.word	0x0003698f
    118c:	000369a0 	.word	0x000369a0

00001190 <APP_vZCL_DeviceSpecific_Init>:
    1190:	b510      	push	{r4, lr}
    1192:	4c19      	ldr	r4, [pc, #100]	; (11f8 <APP_vZCL_DeviceSpecific_Init+0x68>)
    1194:	4919      	ldr	r1, [pc, #100]	; (11fc <APP_vZCL_DeviceSpecific_Init+0x6c>)
    1196:	2205      	movs	r2, #5
    1198:	f504 7082 	add.w	r0, r4, #260	; 0x104
    119c:	f034 fb56 	bl	3584c <memcpy>
    11a0:	4917      	ldr	r1, [pc, #92]	; (1200 <APP_vZCL_DeviceSpecific_Init+0x70>)
    11a2:	220b      	movs	r2, #11
    11a4:	f504 7096 	add.w	r0, r4, #300	; 0x12c
    11a8:	f034 fb50 	bl	3584c <memcpy>
    11ac:	4915      	ldr	r1, [pc, #84]	; (1204 <APP_vZCL_DeviceSpecific_Init+0x74>)
    11ae:	2208      	movs	r2, #8
    11b0:	f504 70aa 	add.w	r0, r4, #340	; 0x154
    11b4:	f034 fb4a 	bl	3584c <memcpy>
    11b8:	4913      	ldr	r1, [pc, #76]	; (1208 <APP_vZCL_DeviceSpecific_Init+0x78>)
    11ba:	2209      	movs	r2, #9
    11bc:	f504 70d8 	add.w	r0, r4, #432	; 0x1b0
    11c0:	f034 fb44 	bl	3584c <memcpy>
    11c4:	4911      	ldr	r1, [pc, #68]	; (120c <APP_vZCL_DeviceSpecific_Init+0x7c>)
    11c6:	220c      	movs	r2, #12
    11c8:	f504 70c4 	add.w	r0, r4, #392	; 0x188
    11cc:	f034 fb3e 	bl	3584c <memcpy>
    11d0:	490f      	ldr	r1, [pc, #60]	; (1210 <APP_vZCL_DeviceSpecific_Init+0x80>)
    11d2:	2204      	movs	r2, #4
    11d4:	f504 70b8 	add.w	r0, r4, #368	; 0x170
    11d8:	f034 fb38 	bl	3584c <memcpy>
    11dc:	490d      	ldr	r1, [pc, #52]	; (1214 <APP_vZCL_DeviceSpecific_Init+0x84>)
    11de:	2204      	movs	r2, #4
    11e0:	f504 60bc 	add.w	r0, r4, #1504	; 0x5e0
    11e4:	f034 fb32 	bl	3584c <memcpy>
    11e8:	2306      	movs	r3, #6
    11ea:	f884 30f9 	strb.w	r3, [r4, #249]	; 0xf9
    11ee:	2300      	movs	r3, #0
    11f0:	f884 3343 	strb.w	r3, [r4, #835]	; 0x343
    11f4:	bd10      	pop	{r4, pc}
    11f6:	bf00      	nop
    11f8:	04003f68 	.word	0x04003f68
    11fc:	000369b5 	.word	0x000369b5
    1200:	000369bb 	.word	0x000369bb
    1204:	000369c6 	.word	0x000369c6
    1208:	000369cf 	.word	0x000369cf
    120c:	000369d9 	.word	0x000369d9
    1210:	000369d4 	.word	0x000369d4
    1214:	000369e2 	.word	0x000369e2

00001218 <APP_ZCL_vInitialise>:
    1218:	4915      	ldr	r1, [pc, #84]	; (1270 <APP_ZCL_vInitialise+0x58>)
    121a:	4816      	ldr	r0, [pc, #88]	; (1274 <APP_ZCL_vInitialise+0x5c>)
    121c:	b508      	push	{r3, lr}
    121e:	f011 f80d 	bl	1223c <eZCL_Initialise>
    1222:	4601      	mov	r1, r0
    1224:	b110      	cbz	r0, 122c <APP_ZCL_vInitialise+0x14>
    1226:	4814      	ldr	r0, [pc, #80]	; (1278 <APP_ZCL_vInitialise+0x60>)
    1228:	f000 fc44 	bl	1ab4 <DbgConsole_Printf>
    122c:	4b13      	ldr	r3, [pc, #76]	; (127c <APP_ZCL_vInitialise+0x64>)
    122e:	2164      	movs	r1, #100	; 0x64
    1230:	7818      	ldrb	r0, [r3, #0]
    1232:	f003 ffab 	bl	518c <ZTIMER_eStart>
    1236:	b110      	cbz	r0, 123e <APP_ZCL_vInitialise+0x26>
    1238:	4811      	ldr	r0, [pc, #68]	; (1280 <APP_ZCL_vInitialise+0x68>)
    123a:	f000 fc3b 	bl	1ab4 <DbgConsole_Printf>
    123e:	4911      	ldr	r1, [pc, #68]	; (1284 <APP_ZCL_vInitialise+0x6c>)
    1240:	4a11      	ldr	r2, [pc, #68]	; (1288 <APP_ZCL_vInitialise+0x70>)
    1242:	2001      	movs	r0, #1
    1244:	f00d f9f8 	bl	e638 <eZHA_RegisterBaseDeviceEndPoint>
    1248:	4601      	mov	r1, r0
    124a:	b110      	cbz	r0, 1252 <APP_ZCL_vInitialise+0x3a>
    124c:	480f      	ldr	r0, [pc, #60]	; (128c <APP_ZCL_vInitialise+0x74>)
    124e:	f000 fc31 	bl	1ab4 <DbgConsole_Printf>
    1252:	f7ff ff9d 	bl	1190 <APP_vZCL_DeviceSpecific_Init>
    1256:	f002 fed3 	bl	4000 <vAppInitOTA>
    125a:	480a      	ldr	r0, [pc, #40]	; (1284 <APP_ZCL_vInitialise+0x6c>)
    125c:	f003 fe2c 	bl	4eb8 <vApp_GP_RegisterDevice>
    1260:	4b0b      	ldr	r3, [pc, #44]	; (1290 <APP_ZCL_vInitialise+0x78>)
    1262:	2101      	movs	r1, #1
    1264:	7818      	ldrb	r0, [r3, #0]
    1266:	e8bd 4008 	ldmia.w	sp!, {r3, lr}
    126a:	f003 bf8f 	b.w	518c <ZTIMER_eStart>
    126e:	bf00      	nop
    1270:	04000abc 	.word	0x04000abc
    1274:	00001121 	.word	0x00001121
    1278:	000369e7 	.word	0x000369e7
    127c:	040012a7 	.word	0x040012a7
    1280:	00036a01 	.word	0x00036a01
    1284:	000013e1 	.word	0x000013e1
    1288:	04003f68 	.word	0x04003f68
    128c:	00036a23 	.word	0x00036a23
    1290:	0400129f 	.word	0x0400129f

00001294 <APP_cbTimerLinky>:
    1294:	b51f      	push	{r0, r1, r2, r3, r4, lr}
    1296:	230b      	movs	r3, #11
    1298:	4807      	ldr	r0, [pc, #28]	; (12b8 <APP_cbTimerLinky+0x24>)
    129a:	f88d 3004 	strb.w	r3, [sp, #4]
    129e:	a901      	add	r1, sp, #4
    12a0:	f003 fea3 	bl	4fea <ZQ_bQueueSend>
    12a4:	b920      	cbnz	r0, 12b0 <APP_cbTimerLinky+0x1c>
    12a6:	f89d 1004 	ldrb.w	r1, [sp, #4]
    12aa:	4804      	ldr	r0, [pc, #16]	; (12bc <APP_cbTimerLinky+0x28>)
    12ac:	f000 fc02 	bl	1ab4 <DbgConsole_Printf>
    12b0:	b005      	add	sp, #20
    12b2:	f85d fb04 	ldr.w	pc, [sp], #4
    12b6:	bf00      	nop
    12b8:	040010f0 	.word	0x040010f0
    12bc:	00036a53 	.word	0x00036a53

000012c0 <APP_cbTimerZclTick>:
    12c0:	b570      	push	{r4, r5, r6, lr}
    12c2:	4b1c      	ldr	r3, [pc, #112]	; (1334 <APP_cbTimerZclTick+0x74>)
    12c4:	b08c      	sub	sp, #48	; 0x30
    12c6:	7818      	ldrb	r0, [r3, #0]
    12c8:	210a      	movs	r1, #10
    12ca:	f003 ff5f 	bl	518c <ZTIMER_eStart>
    12ce:	b110      	cbz	r0, 12d6 <APP_cbTimerZclTick+0x16>
    12d0:	4819      	ldr	r0, [pc, #100]	; (1338 <APP_cbTimerZclTick+0x78>)
    12d2:	f000 fbef 	bl	1ab4 <DbgConsole_Printf>
    12d6:	4d19      	ldr	r5, [pc, #100]	; (133c <APP_cbTimerZclTick+0x7c>)
    12d8:	4c19      	ldr	r4, [pc, #100]	; (1340 <APP_cbTimerZclTick+0x80>)
    12da:	4e1a      	ldr	r6, [pc, #104]	; (1344 <APP_cbTimerZclTick+0x84>)
    12dc:	682b      	ldr	r3, [r5, #0]
    12de:	6822      	ldr	r2, [r4, #0]
    12e0:	6831      	ldr	r1, [r6, #0]
    12e2:	3301      	adds	r3, #1
    12e4:	3201      	adds	r2, #1
    12e6:	310a      	adds	r1, #10
    12e8:	2b09      	cmp	r3, #9
    12ea:	602b      	str	r3, [r5, #0]
    12ec:	6022      	str	r2, [r4, #0]
    12ee:	6031      	str	r1, [r6, #0]
    12f0:	d903      	bls.n	12fa <APP_cbTimerZclTick+0x3a>
    12f2:	f010 ffc3 	bl	1227c <eZCL_Update100mS>
    12f6:	2300      	movs	r3, #0
    12f8:	602b      	str	r3, [r5, #0]
    12fa:	6823      	ldr	r3, [r4, #0]
    12fc:	2b52      	cmp	r3, #82	; 0x52
    12fe:	d103      	bne.n	1308 <APP_cbTimerZclTick+0x48>
    1300:	f44f 707a 	mov.w	r0, #1000	; 0x3e8
    1304:	f003 f890 	bl	4428 <vRunAppOTAStateMachine>
    1308:	6823      	ldr	r3, [r4, #0]
    130a:	2b63      	cmp	r3, #99	; 0x63
    130c:	d908      	bls.n	1320 <APP_cbTimerZclTick+0x60>
    130e:	2300      	movs	r3, #0
    1310:	6023      	str	r3, [r4, #0]
    1312:	930a      	str	r3, [sp, #40]	; 0x28
    1314:	4668      	mov	r0, sp
    1316:	2308      	movs	r3, #8
    1318:	f88d 3000 	strb.w	r3, [sp]
    131c:	f011 fb00 	bl	12920 <vZCL_EventHandler>
    1320:	6832      	ldr	r2, [r6, #0]
    1322:	4b09      	ldr	r3, [pc, #36]	; (1348 <APP_cbTimerZclTick+0x88>)
    1324:	429a      	cmp	r2, r3
    1326:	d903      	bls.n	1330 <APP_cbTimerZclTick+0x70>
    1328:	2000      	movs	r0, #0
    132a:	6030      	str	r0, [r6, #0]
    132c:	f7ff f99e 	bl	66c <APP_vRadioTempUpdate>
    1330:	b00c      	add	sp, #48	; 0x30
    1332:	bd70      	pop	{r4, r5, r6, pc}
    1334:	040012a7 	.word	0x040012a7
    1338:	00036a01 	.word	0x00036a01
    133c:	04000aa0 	.word	0x04000aa0
    1340:	04000aa4 	.word	0x04000aa4
    1344:	04004738 	.word	0x04004738
    1348:	000493df 	.word	0x000493df

0000134c <APP_cbTimerGPZclTick>:
    134c:	b508      	push	{r3, lr}
    134e:	4b06      	ldr	r3, [pc, #24]	; (1368 <APP_cbTimerGPZclTick+0x1c>)
    1350:	2101      	movs	r1, #1
    1352:	7818      	ldrb	r0, [r3, #0]
    1354:	f003 ff1a 	bl	518c <ZTIMER_eStart>
    1358:	4904      	ldr	r1, [pc, #16]	; (136c <APP_cbTimerGPZclTick+0x20>)
    135a:	4805      	ldr	r0, [pc, #20]	; (1370 <APP_cbTimerGPZclTick+0x24>)
    135c:	2305      	movs	r3, #5
    135e:	700b      	strb	r3, [r1, #0]
    1360:	e8bd 4008 	ldmia.w	sp!, {r3, lr}
    1364:	f003 be41 	b.w	4fea <ZQ_bQueueSend>
    1368:	0400129f 	.word	0x0400129f
    136c:	040012a0 	.word	0x040012a0
    1370:	04001110 	.word	0x04001110

00001374 <APP_ZCL_vEventHandler>:
    1374:	b500      	push	{lr}
    1376:	b08d      	sub	sp, #52	; 0x34
    1378:	7801      	ldrb	r1, [r0, #0]
    137a:	900a      	str	r0, [sp, #40]	; 0x28
    137c:	4805      	ldr	r0, [pc, #20]	; (1394 <APP_ZCL_vEventHandler+0x20>)
    137e:	f000 fb99 	bl	1ab4 <DbgConsole_Printf>
    1382:	2309      	movs	r3, #9
    1384:	4668      	mov	r0, sp
    1386:	f88d 3000 	strb.w	r3, [sp]
    138a:	f011 fac9 	bl	12920 <vZCL_EventHandler>
    138e:	b00d      	add	sp, #52	; 0x34
    1390:	f85d fb04 	ldr.w	pc, [sp], #4
    1394:	00036a76 	.word	0x00036a76

00001398 <APP_vHandleIdentify>:
    1398:	b538      	push	{r3, r4, r5, lr}
    139a:	4d0e      	ldr	r5, [pc, #56]	; (13d4 <APP_vHandleIdentify+0x3c>)
    139c:	4604      	mov	r4, r0
    139e:	b938      	cbnz	r0, 13b0 <APP_vHandleIdentify+0x18>
    13a0:	2005      	movs	r0, #5
    13a2:	f001 f993 	bl	26cc <vStartAwakeTimer>
    13a6:	2032      	movs	r0, #50	; 0x32
    13a8:	f001 f99a 	bl	26e0 <vStartBlinkTimer>
    13ac:	702c      	strb	r4, [r5, #0]
    13ae:	bd38      	pop	{r3, r4, r5, pc}
    13b0:	782b      	ldrb	r3, [r5, #0]
    13b2:	2b00      	cmp	r3, #0
    13b4:	d1fb      	bne.n	13ae <APP_vHandleIdentify+0x16>
    13b6:	4a08      	ldr	r2, [pc, #32]	; (13d8 <APP_vHandleIdentify+0x40>)
    13b8:	2005      	movs	r0, #5
    13ba:	7010      	strb	r0, [r2, #0]
    13bc:	4a07      	ldr	r2, [pc, #28]	; (13dc <APP_vHandleIdentify+0x44>)
    13be:	2301      	movs	r3, #1
    13c0:	702b      	strb	r3, [r5, #0]
    13c2:	7013      	strb	r3, [r2, #0]
    13c4:	f001 f982 	bl	26cc <vStartAwakeTimer>
    13c8:	e8bd 4038 	ldmia.w	sp!, {r3, r4, r5, lr}
    13cc:	2032      	movs	r0, #50	; 0x32
    13ce:	f001 b987 	b.w	26e0 <vStartBlinkTimer>
    13d2:	bf00      	nop
    13d4:	04003f62 	.word	0x04003f62
    13d8:	0400473c 	.word	0x0400473c
    13dc:	04003f63 	.word	0x04003f63

000013e0 <APP_ZCL_cbEndpointCallback>:
    13e0:	b570      	push	{r4, r5, r6, lr}
    13e2:	7801      	ldrb	r1, [r0, #0]
    13e4:	b088      	sub	sp, #32
    13e6:	4604      	mov	r4, r0
    13e8:	291d      	cmp	r1, #29
    13ea:	f200 80ee 	bhi.w	15ca <APP_ZCL_cbEndpointCallback+0x1ea>
    13ee:	e8df f011 	tbh	[pc, r1, lsl #1]
    13f2:	0027      	.short	0x0027
    13f4:	001e0027 	.word	0x001e0027
    13f8:	00290022 	.word	0x00290022
    13fc:	002d002b 	.word	0x002d002b
    1400:	0031002f 	.word	0x0031002f
    1404:	00350033 	.word	0x00350033
    1408:	00ec006e 	.word	0x00ec006e
    140c:	00ec00ec 	.word	0x00ec00ec
    1410:	00ec00ec 	.word	0x00ec00ec
    1414:	00ec0073 	.word	0x00ec0073
    1418:	00ec00ec 	.word	0x00ec00ec
    141c:	00ec0084 	.word	0x00ec0084
    1420:	00ec00ec 	.word	0x00ec00ec
    1424:	00ec00ec 	.word	0x00ec00ec
    1428:	00ec00ce 	.word	0x00ec00ce
    142c:	0027      	.short	0x0027
    142e:	4868      	ldr	r0, [pc, #416]	; (15d0 <APP_ZCL_cbEndpointCallback+0x1f0>)
    1430:	f000 fb40 	bl	1ab4 <DbgConsole_Printf>
    1434:	e004      	b.n	1440 <APP_ZCL_cbEndpointCallback+0x60>
    1436:	7ac2      	ldrb	r2, [r0, #11]
    1438:	8901      	ldrh	r1, [r0, #8]
    143a:	4866      	ldr	r0, [pc, #408]	; (15d4 <APP_ZCL_cbEndpointCallback+0x1f4>)
    143c:	f000 fb3a 	bl	1ab4 <DbgConsole_Printf>
    1440:	b008      	add	sp, #32
    1442:	bd70      	pop	{r4, r5, r6, pc}
    1444:	4864      	ldr	r0, [pc, #400]	; (15d8 <APP_ZCL_cbEndpointCallback+0x1f8>)
    1446:	e7f3      	b.n	1430 <APP_ZCL_cbEndpointCallback+0x50>
    1448:	4864      	ldr	r0, [pc, #400]	; (15dc <APP_ZCL_cbEndpointCallback+0x1fc>)
    144a:	e7f1      	b.n	1430 <APP_ZCL_cbEndpointCallback+0x50>
    144c:	4864      	ldr	r0, [pc, #400]	; (15e0 <APP_ZCL_cbEndpointCallback+0x200>)
    144e:	e7ef      	b.n	1430 <APP_ZCL_cbEndpointCallback+0x50>
    1450:	4864      	ldr	r0, [pc, #400]	; (15e4 <APP_ZCL_cbEndpointCallback+0x204>)
    1452:	e7ed      	b.n	1430 <APP_ZCL_cbEndpointCallback+0x50>
    1454:	4864      	ldr	r0, [pc, #400]	; (15e8 <APP_ZCL_cbEndpointCallback+0x208>)
    1456:	e7eb      	b.n	1430 <APP_ZCL_cbEndpointCallback+0x50>
    1458:	4864      	ldr	r0, [pc, #400]	; (15ec <APP_ZCL_cbEndpointCallback+0x20c>)
    145a:	e7e9      	b.n	1430 <APP_ZCL_cbEndpointCallback+0x50>
    145c:	8901      	ldrh	r1, [r0, #8]
    145e:	4864      	ldr	r0, [pc, #400]	; (15f0 <APP_ZCL_cbEndpointCallback+0x210>)
    1460:	f000 fb28 	bl	1ab4 <DbgConsole_Printf>
    1464:	8923      	ldrh	r3, [r4, #8]
    1466:	2b19      	cmp	r3, #25
    1468:	d02d      	beq.n	14c6 <APP_ZCL_cbEndpointCallback+0xe6>
    146a:	d80c      	bhi.n	1486 <APP_ZCL_cbEndpointCallback+0xa6>
    146c:	b18b      	cbz	r3, 1492 <APP_ZCL_cbEndpointCallback+0xb2>
    146e:	2b03      	cmp	r3, #3
    1470:	d1e6      	bne.n	1440 <APP_ZCL_cbEndpointCallback+0x60>
    1472:	68e3      	ldr	r3, [r4, #12]
    1474:	781b      	ldrb	r3, [r3, #0]
    1476:	2b00      	cmp	r3, #0
    1478:	d1e2      	bne.n	1440 <APP_ZCL_cbEndpointCallback+0x60>
    147a:	4b5e      	ldr	r3, [pc, #376]	; (15f4 <APP_ZCL_cbEndpointCallback+0x214>)
    147c:	f8b3 01c8 	ldrh.w	r0, [r3, #456]	; 0x1c8
    1480:	f7ff ff8a 	bl	1398 <APP_vHandleIdentify>
    1484:	e7dc      	b.n	1440 <APP_ZCL_cbEndpointCallback+0x60>
    1486:	2b21      	cmp	r3, #33	; 0x21
    1488:	d1da      	bne.n	1440 <APP_ZCL_cbEndpointCallback+0x60>
    148a:	68e0      	ldr	r0, [r4, #12]
    148c:	f003 fd88 	bl	4fa0 <vHandleGreenPowerEvent>
    1490:	e7d6      	b.n	1440 <APP_ZCL_cbEndpointCallback+0x60>
    1492:	68e3      	ldr	r3, [r4, #12]
    1494:	781c      	ldrb	r4, [r3, #0]
    1496:	2c00      	cmp	r4, #0
    1498:	d1d2      	bne.n	1440 <APP_ZCL_cbEndpointCallback+0x60>
    149a:	4857      	ldr	r0, [pc, #348]	; (15f8 <APP_ZCL_cbEndpointCallback+0x218>)
    149c:	f000 fb0a 	bl	1ab4 <DbgConsole_Printf>
    14a0:	4621      	mov	r1, r4
    14a2:	f44f 62fa 	mov.w	r2, #2000	; 0x7d0
    14a6:	4853      	ldr	r0, [pc, #332]	; (15f4 <APP_ZCL_cbEndpointCallback+0x214>)
    14a8:	f034 fa6a 	bl	35980 <memset>
    14ac:	f7ff fe70 	bl	1190 <APP_vZCL_DeviceSpecific_Init>
    14b0:	f002 fda6 	bl	4000 <vAppInitOTA>
    14b4:	4a4f      	ldr	r2, [pc, #316]	; (15f4 <APP_ZCL_cbEndpointCallback+0x214>)
    14b6:	4951      	ldr	r1, [pc, #324]	; (15fc <APP_ZCL_cbEndpointCallback+0x21c>)
    14b8:	2001      	movs	r0, #1
    14ba:	f00d f8bd 	bl	e638 <eZHA_RegisterBaseDeviceEndPoint>
    14be:	484f      	ldr	r0, [pc, #316]	; (15fc <APP_ZCL_cbEndpointCallback+0x21c>)
    14c0:	f003 fcfa 	bl	4eb8 <vApp_GP_RegisterDevice>
    14c4:	e7bc      	b.n	1440 <APP_ZCL_cbEndpointCallback+0x60>
    14c6:	68e0      	ldr	r0, [r4, #12]
    14c8:	f003 fa62 	bl	4990 <vHandleAppOtaClient>
    14cc:	e7b8      	b.n	1440 <APP_ZCL_cbEndpointCallback+0x60>
    14ce:	78c1      	ldrb	r1, [r0, #3]
    14d0:	484b      	ldr	r0, [pc, #300]	; (1600 <APP_ZCL_cbEndpointCallback+0x220>)
    14d2:	f000 faef 	bl	1ab4 <DbgConsole_Printf>
    14d6:	e7b3      	b.n	1440 <APP_ZCL_cbEndpointCallback+0x60>
    14d8:	6ac3      	ldr	r3, [r0, #44]	; 0x2c
    14da:	484a      	ldr	r0, [pc, #296]	; (1604 <APP_ZCL_cbEndpointCallback+0x224>)
    14dc:	685b      	ldr	r3, [r3, #4]
    14de:	8819      	ldrh	r1, [r3, #0]
    14e0:	f000 fae8 	bl	1ab4 <DbgConsole_Printf>
    14e4:	7aa1      	ldrb	r1, [r4, #10]
    14e6:	4848      	ldr	r0, [pc, #288]	; (1608 <APP_ZCL_cbEndpointCallback+0x228>)
    14e8:	f000 fae4 	bl	1ab4 <DbgConsole_Printf>
    14ec:	8921      	ldrh	r1, [r4, #8]
    14ee:	4847      	ldr	r0, [pc, #284]	; (160c <APP_ZCL_cbEndpointCallback+0x22c>)
    14f0:	f000 fae0 	bl	1ab4 <DbgConsole_Printf>
    14f4:	7ae1      	ldrb	r1, [r4, #11]
    14f6:	4846      	ldr	r0, [pc, #280]	; (1610 <APP_ZCL_cbEndpointCallback+0x230>)
    14f8:	e7eb      	b.n	14d2 <APP_ZCL_cbEndpointCallback+0xf2>
    14fa:	6ac3      	ldr	r3, [r0, #44]	; 0x2c
    14fc:	685b      	ldr	r3, [r3, #4]
    14fe:	f100 0608 	add.w	r6, r0, #8
    1502:	8819      	ldrh	r1, [r3, #0]
    1504:	e9d6 2304 	ldrd	r2, r3, [r6, #16]
    1508:	e9cd 2304 	strd	r2, r3, [sp, #16]
    150c:	7a03      	ldrb	r3, [r0, #8]
    150e:	9303      	str	r3, [sp, #12]
    1510:	8a03      	ldrh	r3, [r0, #16]
    1512:	9302      	str	r3, [sp, #8]
    1514:	89c3      	ldrh	r3, [r0, #14]
    1516:	9301      	str	r3, [sp, #4]
    1518:	8983      	ldrh	r3, [r0, #12]
    151a:	9300      	str	r3, [sp, #0]
    151c:	7a43      	ldrb	r3, [r0, #9]
    151e:	8942      	ldrh	r2, [r0, #10]
    1520:	483c      	ldr	r0, [pc, #240]	; (1614 <APP_ZCL_cbEndpointCallback+0x234>)
    1522:	f000 fac7 	bl	1ab4 <DbgConsole_Printf>
    1526:	78e1      	ldrb	r1, [r4, #3]
    1528:	483b      	ldr	r0, [pc, #236]	; (1618 <APP_ZCL_cbEndpointCallback+0x238>)
    152a:	f000 fac3 	bl	1ab4 <DbgConsole_Printf>
    152e:	6ae3      	ldr	r3, [r4, #44]	; 0x2c
    1530:	685b      	ldr	r3, [r3, #4]
    1532:	881d      	ldrh	r5, [r3, #0]
    1534:	f240 7302 	movw	r3, #1794	; 0x702
    1538:	429d      	cmp	r5, r3
    153a:	d111      	bne.n	1560 <APP_ZCL_cbEndpointCallback+0x180>
    153c:	78e3      	ldrb	r3, [r4, #3]
    153e:	b91b      	cbnz	r3, 1548 <APP_ZCL_cbEndpointCallback+0x168>
    1540:	4631      	mov	r1, r6
    1542:	4628      	mov	r0, r5
    1544:	f001 f822 	bl	258c <vSaveReportableRecord>
    1548:	78e3      	ldrb	r3, [r4, #3]
    154a:	2b37      	cmp	r3, #55	; 0x37
    154c:	f47f af78 	bne.w	1440 <APP_ZCL_cbEndpointCallback+0x60>
    1550:	f7ff fde4 	bl	111c <app_u8GetDeviceEndpoint>
    1554:	4632      	mov	r2, r6
    1556:	f240 7102 	movw	r1, #1794	; 0x702
    155a:	f000 ffe3 	bl	2524 <vRestoreDefaultRecord>
    155e:	e76f      	b.n	1440 <APP_ZCL_cbEndpointCallback+0x60>
    1560:	f640 3304 	movw	r3, #2820	; 0xb04
    1564:	429d      	cmp	r5, r3
    1566:	d10c      	bne.n	1582 <APP_ZCL_cbEndpointCallback+0x1a2>
    1568:	78e1      	ldrb	r1, [r4, #3]
    156a:	482c      	ldr	r0, [pc, #176]	; (161c <APP_ZCL_cbEndpointCallback+0x23c>)
    156c:	f000 faa2 	bl	1ab4 <DbgConsole_Printf>
    1570:	78e3      	ldrb	r3, [r4, #3]
    1572:	2b00      	cmp	r3, #0
    1574:	f47f af64 	bne.w	1440 <APP_ZCL_cbEndpointCallback+0x60>
    1578:	4631      	mov	r1, r6
    157a:	4628      	mov	r0, r5
    157c:	f001 f806 	bl	258c <vSaveReportableRecord>
    1580:	e75e      	b.n	1440 <APP_ZCL_cbEndpointCallback+0x60>
    1582:	f64f 7366 	movw	r3, #65382	; 0xff66
    1586:	429d      	cmp	r5, r3
    1588:	f47f af5a 	bne.w	1440 <APP_ZCL_cbEndpointCallback+0x60>
    158c:	e7ec      	b.n	1568 <APP_ZCL_cbEndpointCallback+0x188>
    158e:	6ac3      	ldr	r3, [r0, #44]	; 0x2c
    1590:	4823      	ldr	r0, [pc, #140]	; (1620 <APP_ZCL_cbEndpointCallback+0x240>)
    1592:	685b      	ldr	r3, [r3, #4]
    1594:	8819      	ldrh	r1, [r3, #0]
    1596:	f000 fa8d 	bl	1ab4 <DbgConsole_Printf>
    159a:	6ae3      	ldr	r3, [r4, #44]	; 0x2c
    159c:	685b      	ldr	r3, [r3, #4]
    159e:	881b      	ldrh	r3, [r3, #0]
    15a0:	2b03      	cmp	r3, #3
    15a2:	f47f af4d 	bne.w	1440 <APP_ZCL_cbEndpointCallback+0x60>
    15a6:	4d13      	ldr	r5, [pc, #76]	; (15f4 <APP_ZCL_cbEndpointCallback+0x214>)
    15a8:	f8b5 01c8 	ldrh.w	r0, [r5, #456]	; 0x1c8
    15ac:	f7ff fef4 	bl	1398 <APP_vHandleIdentify>
    15b0:	f8b5 31c8 	ldrh.w	r3, [r5, #456]	; 0x1c8
    15b4:	2b00      	cmp	r3, #0
    15b6:	f47f af43 	bne.w	1440 <APP_ZCL_cbEndpointCallback+0x60>
    15ba:	2309      	movs	r3, #9
    15bc:	a806      	add	r0, sp, #24
    15be:	f88d 3018 	strb.w	r3, [sp, #24]
    15c2:	9407      	str	r4, [sp, #28]
    15c4:	f013 fb7a 	bl	14cbc <BDB_vZclEventHandler>
    15c8:	e73a      	b.n	1440 <APP_ZCL_cbEndpointCallback+0x60>
    15ca:	4816      	ldr	r0, [pc, #88]	; (1624 <APP_ZCL_cbEndpointCallback+0x244>)
    15cc:	e781      	b.n	14d2 <APP_ZCL_cbEndpointCallback+0xf2>
    15ce:	bf00      	nop
    15d0:	00036a94 	.word	0x00036a94
    15d4:	00036aae 	.word	0x00036aae
    15d8:	00036acf 	.word	0x00036acf
    15dc:	00036af2 	.word	0x00036af2
    15e0:	00036b09 	.word	0x00036b09
    15e4:	00036b24 	.word	0x00036b24
    15e8:	00036b34 	.word	0x00036b34
    15ec:	00036b44 	.word	0x00036b44
    15f0:	00036b55 	.word	0x00036b55
    15f4:	04003f68 	.word	0x04003f68
    15f8:	00036b70 	.word	0x00036b70
    15fc:	000013e1 	.word	0x000013e1
    1600:	00036b8f 	.word	0x00036b8f
    1604:	00036bc2 	.word	0x00036bc2
    1608:	00036bf1 	.word	0x00036bf1
    160c:	00036c0b 	.word	0x00036c0b
    1610:	00036c23 	.word	0x00036c23
    1614:	00036c3b 	.word	0x00036c3b
    1618:	00036ca1 	.word	0x00036ca1
    161c:	00036cbd 	.word	0x00036cbd
    1620:	00036cd9 	.word	0x00036cd9
    1624:	00036cea 	.word	0x00036cea

00001628 <vIdEffectTick>:
    1628:	2801      	cmp	r0, #1
    162a:	d112      	bne.n	1652 <vIdEffectTick+0x2a>
    162c:	4b09      	ldr	r3, [pc, #36]	; (1654 <vIdEffectTick+0x2c>)
    162e:	f8b3 31c8 	ldrh.w	r3, [r3, #456]	; 0x1c8
    1632:	b173      	cbz	r3, 1652 <vIdEffectTick+0x2a>
    1634:	4a08      	ldr	r2, [pc, #32]	; (1658 <vIdEffectTick+0x30>)
    1636:	7813      	ldrb	r3, [r2, #0]
    1638:	3b01      	subs	r3, #1
    163a:	f013 03ff 	ands.w	r3, r3, #255	; 0xff
    163e:	bf01      	itttt	eq
    1640:	2305      	moveq	r3, #5
    1642:	7013      	strbeq	r3, [r2, #0]
    1644:	4a05      	ldreq	r2, [pc, #20]	; (165c <vIdEffectTick+0x34>)
    1646:	7813      	ldrbeq	r3, [r2, #0]
    1648:	bf04      	itt	eq
    164a:	fab3 f383 	clzeq	r3, r3
    164e:	095b      	lsreq	r3, r3, #5
    1650:	7013      	strb	r3, [r2, #0]
    1652:	4770      	bx	lr
    1654:	04003f68 	.word	0x04003f68
    1658:	0400473c 	.word	0x0400473c
    165c:	04003f63 	.word	0x04003f63

00001660 <gint_callback>:
    1660:	4b0c      	ldr	r3, [pc, #48]	; (1694 <gint_callback+0x34>)
    1662:	480d      	ldr	r0, [pc, #52]	; (1698 <gint_callback+0x38>)
    1664:	b510      	push	{r4, lr}
    1666:	681c      	ldr	r4, [r3, #0]
    1668:	f004 0405 	and.w	r4, r4, #5
    166c:	4621      	mov	r1, r4
    166e:	f000 fa21 	bl	1ab4 <DbgConsole_Printf>
    1672:	2c05      	cmp	r4, #5
    1674:	d00c      	beq.n	1690 <gint_callback+0x30>
    1676:	4c09      	ldr	r4, [pc, #36]	; (169c <gint_callback+0x3c>)
    1678:	4809      	ldr	r0, [pc, #36]	; (16a0 <gint_callback+0x40>)
    167a:	f000 fba7 	bl	1dcc <GINT_DisableCallback>
    167e:	7820      	ldrb	r0, [r4, #0]
    1680:	f003 fdae 	bl	51e0 <ZTIMER_eStop>
    1684:	7820      	ldrb	r0, [r4, #0]
    1686:	210a      	movs	r1, #10
    1688:	e8bd 4010 	ldmia.w	sp!, {r4, lr}
    168c:	f003 bd7e 	b.w	518c <ZTIMER_eStart>
    1690:	bd10      	pop	{r4, pc}
    1692:	bf00      	nop
    1694:	40082100 	.word	0x40082100
    1698:	00036d0a 	.word	0x00036d0a
    169c:	040012a4 	.word	0x040012a4
    16a0:	40011000 	.word	0x40011000

000016a4 <APP_u32GetSwitchIOState>:
    16a4:	4b02      	ldr	r3, [pc, #8]	; (16b0 <APP_u32GetSwitchIOState+0xc>)
    16a6:	6818      	ldr	r0, [r3, #0]
    16a8:	f000 0005 	and.w	r0, r0, #5
    16ac:	4770      	bx	lr
    16ae:	bf00      	nop
    16b0:	40082100 	.word	0x40082100

000016b4 <APP_cbTimerButtonScan>:
    16b4:	e92d 4ff0 	stmdb	sp!, {r4, r5, r6, r7, r8, r9, sl, fp, lr}
    16b8:	4b3b      	ldr	r3, [pc, #236]	; (17a8 <APP_cbTimerButtonScan+0xf4>)
    16ba:	f8df 9110 	ldr.w	r9, [pc, #272]	; 17cc <APP_cbTimerButtonScan+0x118>
    16be:	681b      	ldr	r3, [r3, #0]
    16c0:	f8df 810c 	ldr.w	r8, [pc, #268]	; 17d0 <APP_cbTimerButtonScan+0x11c>
    16c4:	4d39      	ldr	r5, [pc, #228]	; (17ac <APP_cbTimerButtonScan+0xf8>)
    16c6:	4e3a      	ldr	r6, [pc, #232]	; (17b0 <APP_cbTimerButtonScan+0xfc>)
    16c8:	f8df a108 	ldr.w	sl, [pc, #264]	; 17d4 <APP_cbTimerButtonScan+0x120>
    16cc:	f8df b108 	ldr.w	fp, [pc, #264]	; 17d8 <APP_cbTimerButtonScan+0x124>
    16d0:	b087      	sub	sp, #28
    16d2:	f003 0305 	and.w	r3, r3, #5
    16d6:	9301      	str	r3, [sp, #4]
    16d8:	2400      	movs	r4, #0
    16da:	27ff      	movs	r7, #255	; 0xff
    16dc:	f819 3b01 	ldrb.w	r3, [r9], #1
    16e0:	9901      	ldr	r1, [sp, #4]
    16e2:	f898 2000 	ldrb.w	r2, [r8]
    16e6:	fa21 f303 	lsr.w	r3, r1, r3
    16ea:	f003 0301 	and.w	r3, r3, #1
    16ee:	ea43 0342 	orr.w	r3, r3, r2, lsl #1
    16f2:	b2db      	uxtb	r3, r3
    16f4:	f808 3b01 	strb.w	r3, [r8], #1
    16f8:	401f      	ands	r7, r3
    16fa:	bb6b      	cbnz	r3, 1758 <APP_cbTimerButtonScan+0xa4>
    16fc:	782b      	ldrb	r3, [r5, #0]
    16fe:	b9bb      	cbnz	r3, 1730 <APP_cbTimerButtonScan+0x7c>
    1700:	2301      	movs	r3, #1
    1702:	702b      	strb	r3, [r5, #0]
    1704:	2302      	movs	r3, #2
    1706:	f88d 300c 	strb.w	r3, [sp, #12]
    170a:	f88d 4010 	strb.w	r4, [sp, #16]
    170e:	f008 fcdf 	bl	a0d0 <OSA_TimeGetMsec>
    1712:	4621      	mov	r1, r4
    1714:	6030      	str	r0, [r6, #0]
    1716:	4827      	ldr	r0, [pc, #156]	; (17b4 <APP_cbTimerButtonScan+0x100>)
    1718:	f000 f9cc 	bl	1ab4 <DbgConsole_Printf>
    171c:	4826      	ldr	r0, [pc, #152]	; (17b8 <APP_cbTimerButtonScan+0x104>)
    171e:	a903      	add	r1, sp, #12
    1720:	f003 fc63 	bl	4fea <ZQ_bQueueSend>
    1724:	b920      	cbnz	r0, 1730 <APP_cbTimerButtonScan+0x7c>
    1726:	f89d 100c 	ldrb.w	r1, [sp, #12]
    172a:	4824      	ldr	r0, [pc, #144]	; (17bc <APP_cbTimerButtonScan+0x108>)
    172c:	f000 f9c2 	bl	1ab4 <DbgConsole_Printf>
    1730:	3501      	adds	r5, #1
    1732:	b17c      	cbz	r4, 1754 <APP_cbTimerButtonScan+0xa0>
    1734:	2fff      	cmp	r7, #255	; 0xff
    1736:	4c22      	ldr	r4, [pc, #136]	; (17c0 <APP_cbTimerButtonScan+0x10c>)
    1738:	d12d      	bne.n	1796 <APP_cbTimerButtonScan+0xe2>
    173a:	2102      	movs	r1, #2
    173c:	4821      	ldr	r0, [pc, #132]	; (17c4 <APP_cbTimerButtonScan+0x110>)
    173e:	f000 f9b9 	bl	1ab4 <DbgConsole_Printf>
    1742:	4821      	ldr	r0, [pc, #132]	; (17c8 <APP_cbTimerButtonScan+0x114>)
    1744:	f000 fb32 	bl	1dac <GINT_EnableCallback>
    1748:	7820      	ldrb	r0, [r4, #0]
    174a:	f003 fd49 	bl	51e0 <ZTIMER_eStop>
    174e:	b007      	add	sp, #28
    1750:	e8bd 8ff0 	ldmia.w	sp!, {r4, r5, r6, r7, r8, r9, sl, fp, pc}
    1754:	2401      	movs	r4, #1
    1756:	e7c1      	b.n	16dc <APP_cbTimerButtonScan+0x28>
    1758:	2bff      	cmp	r3, #255	; 0xff
    175a:	d1e9      	bne.n	1730 <APP_cbTimerButtonScan+0x7c>
    175c:	782b      	ldrb	r3, [r5, #0]
    175e:	2b00      	cmp	r3, #0
    1760:	d0e6      	beq.n	1730 <APP_cbTimerButtonScan+0x7c>
    1762:	2300      	movs	r3, #0
    1764:	702b      	strb	r3, [r5, #0]
    1766:	f008 fcb3 	bl	a0d0 <OSA_TimeGetMsec>
    176a:	6831      	ldr	r1, [r6, #0]
    176c:	1a41      	subs	r1, r0, r1
    176e:	4650      	mov	r0, sl
    1770:	6031      	str	r1, [r6, #0]
    1772:	f000 f99f 	bl	1ab4 <DbgConsole_Printf>
    1776:	6832      	ldr	r2, [r6, #0]
    1778:	f88d 4010 	strb.w	r4, [sp, #16]
    177c:	f241 3387 	movw	r3, #4999	; 0x1387
    1780:	429a      	cmp	r2, r3
    1782:	bf94      	ite	ls
    1784:	2201      	movls	r2, #1
    1786:	2206      	movhi	r2, #6
    1788:	4621      	mov	r1, r4
    178a:	4658      	mov	r0, fp
    178c:	f88d 200c 	strb.w	r2, [sp, #12]
    1790:	f000 f990 	bl	1ab4 <DbgConsole_Printf>
    1794:	e7c2      	b.n	171c <APP_cbTimerButtonScan+0x68>
    1796:	7820      	ldrb	r0, [r4, #0]
    1798:	f003 fd22 	bl	51e0 <ZTIMER_eStop>
    179c:	7820      	ldrb	r0, [r4, #0]
    179e:	210a      	movs	r1, #10
    17a0:	f003 fcf4 	bl	518c <ZTIMER_eStart>
    17a4:	e7d3      	b.n	174e <APP_cbTimerButtonScan+0x9a>
    17a6:	bf00      	nop
    17a8:	40082100 	.word	0x40082100
    17ac:	0400473f 	.word	0x0400473f
    17b0:	04004744 	.word	0x04004744
    17b4:	00036d31 	.word	0x00036d31
    17b8:	040010f0 	.word	0x040010f0
    17bc:	00036d40 	.word	0x00036d40
    17c0:	040012a4 	.word	0x040012a4
    17c4:	00036db8 	.word	0x00036db8
    17c8:	40011000 	.word	0x40011000
    17cc:	00036dc1 	.word	0x00036dc1
    17d0:	0400473d 	.word	0x0400473d
    17d4:	00036d63 	.word	0x00036d63
    17d8:	00036d9f 	.word	0x00036d9f

000017dc <APP_bButtonInitialise>:
    17dc:	b5f7      	push	{r0, r1, r2, r4, r5, r6, r7, lr}
    17de:	2400      	movs	r4, #0
    17e0:	4e1e      	ldr	r6, [pc, #120]	; (185c <APP_bButtonInitialise+0x80>)
    17e2:	4d1f      	ldr	r5, [pc, #124]	; (1860 <APP_bButtonInitialise+0x84>)
    17e4:	481f      	ldr	r0, [pc, #124]	; (1864 <APP_bButtonInitialise+0x88>)
    17e6:	f8ad 4004 	strh.w	r4, [sp, #4]
    17ea:	2202      	movs	r2, #2
    17ec:	21ff      	movs	r1, #255	; 0xff
    17ee:	f034 f8c7 	bl	35980 <memset>
    17f2:	2780      	movs	r7, #128	; 0x80
    17f4:	4621      	mov	r1, r4
    17f6:	2202      	movs	r2, #2
    17f8:	481b      	ldr	r0, [pc, #108]	; (1868 <APP_bButtonInitialise+0x8c>)
    17fa:	f034 f8c1 	bl	35980 <memset>
    17fe:	6037      	str	r7, [r6, #0]
    1800:	ab01      	add	r3, sp, #4
    1802:	4622      	mov	r2, r4
    1804:	4621      	mov	r1, r4
    1806:	4628      	mov	r0, r5
    1808:	f000 f974 	bl	1af4 <GPIO_PinInit>
    180c:	ab01      	add	r3, sp, #4
    180e:	4621      	mov	r1, r4
    1810:	60b7      	str	r7, [r6, #8]
    1812:	2202      	movs	r2, #2
    1814:	f506 5600 	add.w	r6, r6, #8192	; 0x2000
    1818:	4628      	mov	r0, r5
    181a:	f000 f96b 	bl	1af4 <GPIO_PinInit>
    181e:	4630      	mov	r0, r6
    1820:	f000 fa96 	bl	1d50 <GINT_Init>
    1824:	4622      	mov	r2, r4
    1826:	4621      	mov	r1, r4
    1828:	4630      	mov	r0, r6
    182a:	4b10      	ldr	r3, [pc, #64]	; (186c <APP_bButtonInitialise+0x90>)
    182c:	f000 faa2 	bl	1d74 <GINT_SetCtrl>
    1830:	2305      	movs	r3, #5
    1832:	4622      	mov	r2, r4
    1834:	4621      	mov	r1, r4
    1836:	4630      	mov	r0, r6
    1838:	f000 fab2 	bl	1da0 <GINT_ConfigPins>
    183c:	f505 5504 	add.w	r5, r5, #8448	; 0x2100
    1840:	4630      	mov	r0, r6
    1842:	f000 fab3 	bl	1dac <GINT_EnableCallback>
    1846:	4620      	mov	r0, r4
    1848:	f7ff ff34 	bl	16b4 <APP_cbTimerButtonScan>
    184c:	6828      	ldr	r0, [r5, #0]
    184e:	f000 0005 	and.w	r0, r0, #5
    1852:	3805      	subs	r0, #5
    1854:	bf18      	it	ne
    1856:	2001      	movne	r0, #1
    1858:	b003      	add	sp, #12
    185a:	bdf0      	pop	{r4, r5, r6, r7, pc}
    185c:	4000f000 	.word	0x4000f000
    1860:	40080000 	.word	0x40080000
    1864:	0400473d 	.word	0x0400473d
    1868:	0400473f 	.word	0x0400473f
    186c:	00001661 	.word	0x00001661

00001870 <APP_vWhiteLedOff>:
    1870:	4a06      	ldr	r2, [pc, #24]	; (188c <APP_vWhiteLedOff+0x1c>)
    1872:	4807      	ldr	r0, [pc, #28]	; (1890 <APP_vWhiteLedOff+0x20>)
    1874:	b508      	push	{r3, lr}
    1876:	2106      	movs	r1, #6
    1878:	2300      	movs	r3, #0
    187a:	80d3      	strh	r3, [r2, #6]
    187c:	f000 fa03 	bl	1c86 <PWM_SetupPwm>
    1880:	b118      	cbz	r0, 188a <APP_vWhiteLedOff+0x1a>
    1882:	4804      	ldr	r0, [pc, #16]	; (1894 <APP_vWhiteLedOff+0x24>)
    1884:	f000 f916 	bl	1ab4 <DbgConsole_Printf>
    1888:	e7fe      	b.n	1888 <APP_vWhiteLedOff+0x18>
    188a:	bd08      	pop	{r3, pc}
    188c:	04004748 	.word	0x04004748
    1890:	4000c000 	.word	0x4000c000
    1894:	00036dc3 	.word	0x00036dc3

00001898 <APP_vLedInitialise>:
    1898:	b573      	push	{r0, r1, r4, r5, r6, lr}
    189a:	2301      	movs	r3, #1
    189c:	4824      	ldr	r0, [pc, #144]	; (1930 <APP_vLedInitialise+0x98>)
    189e:	f8ad 3004 	strh.w	r3, [sp, #4]
    18a2:	f000 f907 	bl	1ab4 <DbgConsole_Printf>
    18a6:	4b23      	ldr	r3, [pc, #140]	; (1934 <APP_vLedInitialise+0x9c>)
    18a8:	4c23      	ldr	r4, [pc, #140]	; (1938 <APP_vLedInitialise+0xa0>)
    18aa:	2294      	movs	r2, #148	; 0x94
    18ac:	619a      	str	r2, [r3, #24]
    18ae:	4668      	mov	r0, sp
    18b0:	f000 f9ba 	bl	1c28 <PWM_GetDefaultConfig>
    18b4:	2300      	movs	r3, #0
    18b6:	4821      	ldr	r0, [pc, #132]	; (193c <APP_vLedInitialise+0xa4>)
    18b8:	f88d 3000 	strb.w	r3, [sp]
    18bc:	f004 f978 	bl	5bb0 <CLOCK_GetFreq>
    18c0:	4669      	mov	r1, sp
    18c2:	4606      	mov	r6, r0
    18c4:	4620      	mov	r0, r4
    18c6:	f000 f9c1 	bl	1c4c <PWM_Init>
    18ca:	b118      	cbz	r0, 18d4 <APP_vLedInitialise+0x3c>
    18cc:	481c      	ldr	r0, [pc, #112]	; (1940 <APP_vLedInitialise+0xa8>)
    18ce:	f000 f8f1 	bl	1ab4 <DbgConsole_Printf>
    18d2:	e7fe      	b.n	18d2 <APP_vLedInitialise+0x3a>
    18d4:	4d1b      	ldr	r5, [pc, #108]	; (1944 <APP_vLedInitialise+0xac>)
    18d6:	4a1c      	ldr	r2, [pc, #112]	; (1948 <APP_vLedInitialise+0xb0>)
    18d8:	8028      	strh	r0, [r5, #0]
    18da:	8068      	strh	r0, [r5, #2]
    18dc:	f240 6082 	movw	r0, #1666	; 0x682
    18e0:	2300      	movs	r3, #0
    18e2:	fba6 0100 	umull	r0, r1, r6, r0
    18e6:	f033 fdf3 	bl	354d0 <__aeabi_uldivmod>
    18ea:	4b18      	ldr	r3, [pc, #96]	; (194c <APP_vLedInitialise+0xb4>)
    18ec:	b280      	uxth	r0, r0
    18ee:	80a8      	strh	r0, [r5, #4]
    18f0:	80e8      	strh	r0, [r5, #6]
    18f2:	8018      	strh	r0, [r3, #0]
    18f4:	462a      	mov	r2, r5
    18f6:	2106      	movs	r1, #6
    18f8:	4620      	mov	r0, r4
    18fa:	f000 f9c4 	bl	1c86 <PWM_SetupPwm>
    18fe:	4605      	mov	r5, r0
    1900:	b118      	cbz	r0, 190a <APP_vLedInitialise+0x72>
    1902:	4813      	ldr	r0, [pc, #76]	; (1950 <APP_vLedInitialise+0xb8>)
    1904:	f000 f8d6 	bl	1ab4 <DbgConsole_Printf>
    1908:	e7fe      	b.n	1908 <APP_vLedInitialise+0x70>
    190a:	4620      	mov	r0, r4
    190c:	2106      	movs	r1, #6
    190e:	f000 f9fc 	bl	1d0a <PWM_ClearStatusFlags>
    1912:	6823      	ldr	r3, [r4, #0]
    1914:	f043 0340 	orr.w	r3, r3, #64	; 0x40
    1918:	6023      	str	r3, [r4, #0]
    191a:	f7ff ffa9 	bl	1870 <APP_vWhiteLedOff>
    191e:	480d      	ldr	r0, [pc, #52]	; (1954 <APP_vLedInitialise+0xbc>)
    1920:	ab01      	add	r3, sp, #4
    1922:	220a      	movs	r2, #10
    1924:	4629      	mov	r1, r5
    1926:	f000 f8e5 	bl	1af4 <GPIO_PinInit>
    192a:	b002      	add	sp, #8
    192c:	bd70      	pop	{r4, r5, r6, pc}
    192e:	bf00      	nop
    1930:	00036dda 	.word	0x00036dda
    1934:	4000f000 	.word	0x4000f000
    1938:	4000c000 	.word	0x4000c000
    193c:	00010008 	.word	0x00010008
    1940:	00036dec 	.word	0x00036dec
    1944:	04004748 	.word	0x04004748
    1948:	000f4240 	.word	0x000f4240
    194c:	04004750 	.word	0x04004750
    1950:	00036dc3 	.word	0x00036dc3
    1954:	40080000 	.word	0x40080000

00001958 <DbgConsole_SendDataReliable>:
    1958:	b510      	push	{r4, lr}
    195a:	460c      	mov	r4, r1
    195c:	4601      	mov	r1, r0
    195e:	b930      	cbnz	r0, 196e <DbgConsole_SendDataReliable+0x16>
    1960:	4b0b      	ldr	r3, [pc, #44]	; (1990 <DbgConsole_SendDataReliable+0x38>)
    1962:	4a0c      	ldr	r2, [pc, #48]	; (1994 <DbgConsole_SendDataReliable+0x3c>)
    1964:	f240 11d1 	movw	r1, #465	; 0x1d1
    1968:	480b      	ldr	r0, [pc, #44]	; (1998 <DbgConsole_SendDataReliable+0x40>)
    196a:	f008 fa05 	bl	9d78 <__assert_func>
    196e:	b924      	cbnz	r4, 197a <DbgConsole_SendDataReliable+0x22>
    1970:	4b0a      	ldr	r3, [pc, #40]	; (199c <DbgConsole_SendDataReliable+0x44>)
    1972:	4a08      	ldr	r2, [pc, #32]	; (1994 <DbgConsole_SendDataReliable+0x3c>)
    1974:	f44f 71e9 	mov.w	r1, #466	; 0x1d2
    1978:	e7f6      	b.n	1968 <DbgConsole_SendDataReliable+0x10>
    197a:	4622      	mov	r2, r4
    197c:	4808      	ldr	r0, [pc, #32]	; (19a0 <DbgConsole_SendDataReliable+0x48>)
    197e:	f008 f8bd 	bl	9afc <SerialManager_WriteBlocking>
    1982:	2800      	cmp	r0, #0
    1984:	bf0c      	ite	eq
    1986:	4620      	moveq	r0, r4
    1988:	f04f 30ff 	movne.w	r0, #4294967295
    198c:	bd10      	pop	{r4, pc}
    198e:	bf00      	nop
    1990:	00036e07 	.word	0x00036e07
    1994:	00036ea3 	.word	0x00036ea3
    1998:	00036e12 	.word	0x00036e12
    199c:	00036e71 	.word	0x00036e71
    19a0:	0400476c 	.word	0x0400476c

000019a4 <DbgConsole_PrintCallback>:
    19a4:	e92d 43f8 	stmdb	sp!, {r3, r4, r5, r6, r7, r8, r9, lr}
    19a8:	2500      	movs	r5, #0
    19aa:	4606      	mov	r6, r0
    19ac:	460c      	mov	r4, r1
    19ae:	4690      	mov	r8, r2
    19b0:	461f      	mov	r7, r3
    19b2:	46a9      	mov	r9, r5
    19b4:	42bd      	cmp	r5, r7
    19b6:	db01      	blt.n	19bc <DbgConsole_PrintCallback+0x18>
    19b8:	e8bd 83f8 	ldmia.w	sp!, {r3, r4, r5, r6, r7, r8, r9, pc}
    19bc:	6821      	ldr	r1, [r4, #0]
    19be:	1c4b      	adds	r3, r1, #1
    19c0:	2b7f      	cmp	r3, #127	; 0x7f
    19c2:	d904      	bls.n	19ce <DbgConsole_PrintCallback+0x2a>
    19c4:	4630      	mov	r0, r6
    19c6:	f7ff ffc7 	bl	1958 <DbgConsole_SendDataReliable>
    19ca:	f8c4 9000 	str.w	r9, [r4]
    19ce:	6823      	ldr	r3, [r4, #0]
    19d0:	f806 8003 	strb.w	r8, [r6, r3]
    19d4:	6823      	ldr	r3, [r4, #0]
    19d6:	3301      	adds	r3, #1
    19d8:	6023      	str	r3, [r4, #0]
    19da:	3501      	adds	r5, #1
    19dc:	e7ea      	b.n	19b4 <DbgConsole_PrintCallback+0x10>
    19de:	Address 0x000019de is out of bounds.


000019e0 <DbgConsole_Init>:
    19e0:	b510      	push	{r4, lr}
    19e2:	b088      	sub	sp, #32
    19e4:	e9cd 3104 	strd	r3, r1, [sp, #16]
    19e8:	2301      	movs	r3, #1
    19ea:	2100      	movs	r1, #0
    19ec:	429a      	cmp	r2, r3
    19ee:	f8ad 1018 	strh.w	r1, [sp, #24]
    19f2:	f88d 001a 	strb.w	r0, [sp, #26]
    19f6:	f88d 301b 	strb.w	r3, [sp, #27]
    19fa:	f88d 301c 	strb.w	r3, [sp, #28]
    19fe:	f88d 2008 	strb.w	r2, [sp, #8]
    1a02:	d12e      	bne.n	1a62 <DbgConsole_Init+0x82>
    1a04:	4c18      	ldr	r4, [pc, #96]	; (1a68 <DbgConsole_Init+0x88>)
    1a06:	ab04      	add	r3, sp, #16
    1a08:	221c      	movs	r2, #28
    1a0a:	4620      	mov	r0, r4
    1a0c:	9303      	str	r3, [sp, #12]
    1a0e:	f033 ffb7 	bl	35980 <memset>
    1a12:	4669      	mov	r1, sp
    1a14:	4620      	mov	r0, r4
    1a16:	6124      	str	r4, [r4, #16]
    1a18:	f007 ff76 	bl	9908 <SerialManager_Init>
    1a1c:	b130      	cbz	r0, 1a2c <DbgConsole_Init+0x4c>
    1a1e:	4b13      	ldr	r3, [pc, #76]	; (1a6c <DbgConsole_Init+0x8c>)
    1a20:	4a13      	ldr	r2, [pc, #76]	; (1a70 <DbgConsole_Init+0x90>)
    1a22:	f240 21d2 	movw	r1, #722	; 0x2d2
    1a26:	4813      	ldr	r0, [pc, #76]	; (1a74 <DbgConsole_Init+0x94>)
    1a28:	f008 f9a6 	bl	9d78 <__assert_func>
    1a2c:	6920      	ldr	r0, [r4, #16]
    1a2e:	f104 0114 	add.w	r1, r4, #20
    1a32:	f007 ffbb 	bl	99ac <SerialManager_OpenWriteHandle>
    1a36:	b120      	cbz	r0, 1a42 <DbgConsole_Init+0x62>
    1a38:	4b0c      	ldr	r3, [pc, #48]	; (1a6c <DbgConsole_Init+0x8c>)
    1a3a:	4a0d      	ldr	r2, [pc, #52]	; (1a70 <DbgConsole_Init+0x90>)
    1a3c:	f44f 7137 	mov.w	r1, #732	; 0x2dc
    1a40:	e7f1      	b.n	1a26 <DbgConsole_Init+0x46>
    1a42:	6920      	ldr	r0, [r4, #16]
    1a44:	f104 0118 	add.w	r1, r4, #24
    1a48:	f008 f802 	bl	9a50 <SerialManager_OpenReadHandle>
    1a4c:	b120      	cbz	r0, 1a58 <DbgConsole_Init+0x78>
    1a4e:	4b07      	ldr	r3, [pc, #28]	; (1a6c <DbgConsole_Init+0x8c>)
    1a50:	4a07      	ldr	r2, [pc, #28]	; (1a70 <DbgConsole_Init+0x90>)
    1a52:	f240 21e7 	movw	r1, #743	; 0x2e7
    1a56:	e7e6      	b.n	1a26 <DbgConsole_Init+0x46>
    1a58:	4b07      	ldr	r3, [pc, #28]	; (1a78 <DbgConsole_Init+0x98>)
    1a5a:	6922      	ldr	r2, [r4, #16]
    1a5c:	601a      	str	r2, [r3, #0]
    1a5e:	b008      	add	sp, #32
    1a60:	bd10      	pop	{r4, pc}
    1a62:	f243 5021 	movw	r0, #13601	; 0x3521
    1a66:	e7fa      	b.n	1a5e <DbgConsole_Init+0x7e>
    1a68:	04004758 	.word	0x04004758
    1a6c:	00036e7b 	.word	0x00036e7b
    1a70:	00036ebf 	.word	0x00036ebf
    1a74:	00036e12 	.word	0x00036e12
    1a78:	04004754 	.word	0x04004754

00001a7c <DbgConsole_Deinit>:
    1a7c:	b510      	push	{r4, lr}
    1a7e:	4c0b      	ldr	r4, [pc, #44]	; (1aac <DbgConsole_Deinit+0x30>)
    1a80:	6923      	ldr	r3, [r4, #16]
    1a82:	b14b      	cbz	r3, 1a98 <DbgConsole_Deinit+0x1c>
    1a84:	f104 0014 	add.w	r0, r4, #20
    1a88:	f007 ffba 	bl	9a00 <SerialManager_CloseWriteHandle>
    1a8c:	6923      	ldr	r3, [r4, #16]
    1a8e:	b11b      	cbz	r3, 1a98 <DbgConsole_Deinit+0x1c>
    1a90:	f104 0018 	add.w	r0, r4, #24
    1a94:	f008 f80a 	bl	9aac <SerialManager_CloseReadHandle>
    1a98:	6920      	ldr	r0, [r4, #16]
    1a9a:	b128      	cbz	r0, 1aa8 <DbgConsole_Deinit+0x2c>
    1a9c:	f007 ff60 	bl	9960 <SerialManager_Deinit>
    1aa0:	b910      	cbnz	r0, 1aa8 <DbgConsole_Deinit+0x2c>
    1aa2:	4b03      	ldr	r3, [pc, #12]	; (1ab0 <DbgConsole_Deinit+0x34>)
    1aa4:	6120      	str	r0, [r4, #16]
    1aa6:	6018      	str	r0, [r3, #0]
    1aa8:	2000      	movs	r0, #0
    1aaa:	bd10      	pop	{r4, pc}
    1aac:	04004758 	.word	0x04004758
    1ab0:	04004754 	.word	0x04004754

00001ab4 <DbgConsole_Printf>:
    1ab4:	b40f      	push	{r0, r1, r2, r3}
    1ab6:	b500      	push	{lr}
    1ab8:	b0a3      	sub	sp, #140	; 0x8c
    1aba:	2100      	movs	r1, #0
    1abc:	227c      	movs	r2, #124	; 0x7c
    1abe:	a803      	add	r0, sp, #12
    1ac0:	9102      	str	r1, [sp, #8]
    1ac2:	f033 ff5d 	bl	35980 <memset>
    1ac6:	4b09      	ldr	r3, [pc, #36]	; (1aec <DbgConsole_Printf+0x38>)
    1ac8:	6818      	ldr	r0, [r3, #0]
    1aca:	b150      	cbz	r0, 1ae2 <DbgConsole_Printf+0x2e>
    1acc:	a925      	add	r1, sp, #148	; 0x94
    1ace:	4b08      	ldr	r3, [pc, #32]	; (1af0 <DbgConsole_Printf+0x3c>)
    1ad0:	9824      	ldr	r0, [sp, #144]	; 0x90
    1ad2:	9101      	str	r1, [sp, #4]
    1ad4:	aa02      	add	r2, sp, #8
    1ad6:	f007 fc59 	bl	938c <StrFormatPrintf>
    1ada:	4601      	mov	r1, r0
    1adc:	a802      	add	r0, sp, #8
    1ade:	f7ff ff3b 	bl	1958 <DbgConsole_SendDataReliable>
    1ae2:	b023      	add	sp, #140	; 0x8c
    1ae4:	f85d eb04 	ldr.w	lr, [sp], #4
    1ae8:	b004      	add	sp, #16
    1aea:	4770      	bx	lr
    1aec:	04004754 	.word	0x04004754
    1af0:	000019a5 	.word	0x000019a5

00001af4 <GPIO_PinInit>:
    1af4:	b510      	push	{r4, lr}
    1af6:	2401      	movs	r4, #1
    1af8:	fa04 f202 	lsl.w	r2, r4, r2
    1afc:	781c      	ldrb	r4, [r3, #0]
    1afe:	b924      	cbnz	r4, 1b0a <GPIO_PinInit+0x16>
    1b00:	f501 6110 	add.w	r1, r1, #2304	; 0x900
    1b04:	f840 2021 	str.w	r2, [r0, r1, lsl #2]
    1b08:	bd10      	pop	{r4, pc}
    1b0a:	785b      	ldrb	r3, [r3, #1]
    1b0c:	b933      	cbnz	r3, 1b1c <GPIO_PinInit+0x28>
    1b0e:	f501 630a 	add.w	r3, r1, #2208	; 0x8a0
    1b12:	f840 2023 	str.w	r2, [r0, r3, lsl #2]
    1b16:	f501 610e 	add.w	r1, r1, #2272	; 0x8e0
    1b1a:	e7f3      	b.n	1b04 <GPIO_PinInit+0x10>
    1b1c:	f501 6308 	add.w	r3, r1, #2176	; 0x880
    1b20:	e7f7      	b.n	1b12 <GPIO_PinInit+0x1e>
    1b22:	Address 0x00001b22 is out of bounds.


00001b24 <BOARD_InitClocks>:
    1b24:	b510      	push	{r4, lr}
    1b26:	f004 f928 	bl	5d7a <CLOCK_EnableAPBBridge>
    1b2a:	4820      	ldr	r0, [pc, #128]	; (1bac <BOARD_InitClocks+0x88>)
    1b2c:	4c20      	ldr	r4, [pc, #128]	; (1bb0 <BOARD_InitClocks+0x8c>)
    1b2e:	f004 f9d9 	bl	5ee4 <CLOCK_EnableClock>
    1b32:	4820      	ldr	r0, [pc, #128]	; (1bb4 <BOARD_InitClocks+0x90>)
    1b34:	f004 f9d6 	bl	5ee4 <CLOCK_EnableClock>
    1b38:	481f      	ldr	r0, [pc, #124]	; (1bb8 <BOARD_InitClocks+0x94>)
    1b3a:	f004 f9d3 	bl	5ee4 <CLOCK_EnableClock>
    1b3e:	200d      	movs	r0, #13
    1b40:	f004 f9d0 	bl	5ee4 <CLOCK_EnableClock>
    1b44:	200b      	movs	r0, #11
    1b46:	f004 f9cd 	bl	5ee4 <CLOCK_EnableClock>
    1b4a:	200e      	movs	r0, #14
    1b4c:	f004 f9ca 	bl	5ee4 <CLOCK_EnableClock>
    1b50:	201b      	movs	r0, #27
    1b52:	f004 f9c7 	bl	5ee4 <CLOCK_EnableClock>
    1b56:	f8d4 30b8 	ldr.w	r3, [r4, #184]	; 0xb8
    1b5a:	f443 0380 	orr.w	r3, r3, #4194304	; 0x400000
    1b5e:	f8c4 30b8 	str.w	r3, [r4, #184]	; 0xb8
    1b62:	f241 00ac 	movw	r0, #4268	; 0x10ac
    1b66:	f003 fe29 	bl	57bc <CLOCK_AttachClk>
    1b6a:	f44f 708c 	mov.w	r0, #280	; 0x118
    1b6e:	f004 f9b9 	bl	5ee4 <CLOCK_EnableClock>
    1b72:	f240 100d 	movw	r0, #269	; 0x10d
    1b76:	f004 f9b5 	bl	5ee4 <CLOCK_EnableClock>
    1b7a:	f241 00ad 	movw	r0, #4269	; 0x10ad
    1b7e:	f003 fe1d 	bl	57bc <CLOCK_AttachClk>
    1b82:	f242 00b1 	movw	r0, #8369	; 0x20b1
    1b86:	f003 fe19 	bl	57bc <CLOCK_AttachClk>
    1b8a:	2201      	movs	r2, #1
    1b8c:	4611      	mov	r1, r2
    1b8e:	20db      	movs	r0, #219	; 0xdb
    1b90:	f003 fe98 	bl	58c4 <CLOCK_SetClkDiv>
    1b94:	f241 00a9 	movw	r0, #4265	; 0x10a9
    1b98:	f003 fe10 	bl	57bc <CLOCK_AttachClk>
    1b9c:	f8d4 30b8 	ldr.w	r3, [r4, #184]	; 0xb8
    1ba0:	f443 0380 	orr.w	r3, r3, #4194304	; 0x400000
    1ba4:	f8c4 30b8 	str.w	r3, [r4, #184]	; 0xb8
    1ba8:	bd10      	pop	{r4, pc}
    1baa:	bf00      	nop
    1bac:	00010008 	.word	0x00010008
    1bb0:	40012000 	.word	0x40012000
    1bb4:	00010004 	.word	0x00010004
    1bb8:	00010005 	.word	0x00010005

00001bbc <BOARD_InitHardware>:
    1bbc:	b508      	push	{r3, lr}
    1bbe:	f04f 4380 	mov.w	r3, #1073741824	; 0x40000000
    1bc2:	4a0f      	ldr	r2, [pc, #60]	; (1c00 <BOARD_InitHardware+0x44>)
    1bc4:	f8c3 2ff0 	str.w	r2, [r3, #4080]	; 0xff0
    1bc8:	f004 ffca 	bl	6b60 <POWER_Init>
    1bcc:	480d      	ldr	r0, [pc, #52]	; (1c04 <BOARD_InitHardware+0x48>)
    1bce:	f004 fa4f 	bl	6070 <RESET_PeripheralReset>
    1bd2:	200e      	movs	r0, #14
    1bd4:	f004 fa4c 	bl	6070 <RESET_PeripheralReset>
    1bd8:	480b      	ldr	r0, [pc, #44]	; (1c08 <BOARD_InitHardware+0x4c>)
    1bda:	f004 fa49 	bl	6070 <RESET_PeripheralReset>
    1bde:	201b      	movs	r0, #27
    1be0:	f004 fa46 	bl	6070 <RESET_PeripheralReset>
    1be4:	4a09      	ldr	r2, [pc, #36]	; (1c0c <BOARD_InitHardware+0x50>)
    1be6:	6813      	ldr	r3, [r2, #0]
    1be8:	f043 0308 	orr.w	r3, r3, #8
    1bec:	6013      	str	r3, [r2, #0]
    1bee:	f7ff ff99 	bl	1b24 <BOARD_InitClocks>
    1bf2:	f003 fc4d 	bl	5490 <BOARD_InitDebugConsole>
    1bf6:	e8bd 4008 	ldmia.w	sp!, {r3, lr}
    1bfa:	f000 b809 	b.w	1c10 <BOARD_InitPins>
    1bfe:	bf00      	nop
    1c00:	87654320 	.word	0x87654320
    1c04:	0001000b 	.word	0x0001000b
    1c08:	0001000d 	.word	0x0001000d
    1c0c:	40012000 	.word	0x40012000

00001c10 <BOARD_InitPins>:
    1c10:	4b04      	ldr	r3, [pc, #16]	; (1c24 <BOARD_InitPins+0x14>)
    1c12:	2292      	movs	r2, #146	; 0x92
    1c14:	621a      	str	r2, [r3, #32]
    1c16:	625a      	str	r2, [r3, #36]	; 0x24
    1c18:	605a      	str	r2, [r3, #4]
    1c1a:	631a      	str	r2, [r3, #48]	; 0x30
    1c1c:	2298      	movs	r2, #152	; 0x98
    1c1e:	629a      	str	r2, [r3, #40]	; 0x28
    1c20:	4770      	bx	lr
    1c22:	bf00      	nop
    1c24:	4000f000 	.word	0x4000f000

00001c28 <PWM_GetDefaultConfig>:
    1c28:	b508      	push	{r3, lr}
    1c2a:	b928      	cbnz	r0, 1c38 <PWM_GetDefaultConfig+0x10>
    1c2c:	4b04      	ldr	r3, [pc, #16]	; (1c40 <PWM_GetDefaultConfig+0x18>)
    1c2e:	4a05      	ldr	r2, [pc, #20]	; (1c44 <PWM_GetDefaultConfig+0x1c>)
    1c30:	4805      	ldr	r0, [pc, #20]	; (1c48 <PWM_GetDefaultConfig+0x20>)
    1c32:	2128      	movs	r1, #40	; 0x28
    1c34:	f008 f8a0 	bl	9d78 <__assert_func>
    1c38:	2300      	movs	r3, #0
    1c3a:	7003      	strb	r3, [r0, #0]
    1c3c:	bd08      	pop	{r3, pc}
    1c3e:	bf00      	nop
    1c40:	00036ecf 	.word	0x00036ecf
    1c44:	00036f1f 	.word	0x00036f1f
    1c48:	00036eda 	.word	0x00036eda

00001c4c <PWM_Init>:
    1c4c:	b510      	push	{r4, lr}
    1c4e:	460c      	mov	r4, r1
    1c50:	b1b8      	cbz	r0, 1c82 <PWM_Init+0x36>
    1c52:	b1b1      	cbz	r1, 1c82 <PWM_Init+0x36>
    1c54:	780b      	ldrb	r3, [r1, #0]
    1c56:	2b03      	cmp	r3, #3
    1c58:	d813      	bhi.n	1c82 <PWM_Init+0x36>
    1c5a:	f44f 7089 	mov.w	r0, #274	; 0x112
    1c5e:	f004 f941 	bl	5ee4 <CLOCK_EnableClock>
    1c62:	7823      	ldrb	r3, [r4, #0]
    1c64:	b153      	cbz	r3, 1c7c <PWM_Init+0x30>
    1c66:	f242 00b0 	movw	r0, #8368	; 0x20b0
    1c6a:	f243 02b0 	movw	r2, #12464	; 0x30b0
    1c6e:	2b01      	cmp	r3, #1
    1c70:	bf18      	it	ne
    1c72:	4610      	movne	r0, r2
    1c74:	f003 fda2 	bl	57bc <CLOCK_AttachClk>
    1c78:	2000      	movs	r0, #0
    1c7a:	bd10      	pop	{r4, pc}
    1c7c:	f241 00b0 	movw	r0, #4272	; 0x10b0
    1c80:	e7f8      	b.n	1c74 <PWM_Init+0x28>
    1c82:	2004      	movs	r0, #4
    1c84:	e7f9      	b.n	1c7a <PWM_Init+0x2e>

00001c86 <PWM_SetupPwm>:
    1c86:	b5f0      	push	{r4, r5, r6, r7, lr}
    1c88:	2800      	cmp	r0, #0
    1c8a:	d03c      	beq.n	1d06 <PWM_SetupPwm+0x80>
    1c8c:	2a00      	cmp	r2, #0
    1c8e:	d03a      	beq.n	1d06 <PWM_SetupPwm+0x80>
    1c90:	290a      	cmp	r1, #10
    1c92:	d838      	bhi.n	1d06 <PWM_SetupPwm+0x80>
    1c94:	7815      	ldrb	r5, [r2, #0]
    1c96:	2d01      	cmp	r5, #1
    1c98:	d835      	bhi.n	1d06 <PWM_SetupPwm+0x80>
    1c9a:	7853      	ldrb	r3, [r2, #1]
    1c9c:	2b01      	cmp	r3, #1
    1c9e:	d832      	bhi.n	1d06 <PWM_SetupPwm+0x80>
    1ca0:	8854      	ldrh	r4, [r2, #2]
    1ca2:	f5b4 6f80 	cmp.w	r4, #1024	; 0x400
    1ca6:	d22e      	bcs.n	1d06 <PWM_SetupPwm+0x80>
    1ca8:	88d7      	ldrh	r7, [r2, #6]
    1caa:	8896      	ldrh	r6, [r2, #4]
    1cac:	42b7      	cmp	r7, r6
    1cae:	d82a      	bhi.n	1d06 <PWM_SetupPwm+0x80>
    1cb0:	6856      	ldr	r6, [r2, #4]
    1cb2:	6842      	ldr	r2, [r0, #4]
    1cb4:	f04f 1701 	mov.w	r7, #65537	; 0x10001
    1cb8:	408f      	lsls	r7, r1
    1cba:	ea22 0207 	bic.w	r2, r2, r7
    1cbe:	6042      	str	r2, [r0, #4]
    1cc0:	f101 0710 	add.w	r7, r1, #16
    1cc4:	6842      	ldr	r2, [r0, #4]
    1cc6:	40bb      	lsls	r3, r7
    1cc8:	408d      	lsls	r5, r1
    1cca:	432b      	orrs	r3, r5
    1ccc:	4313      	orrs	r3, r2
    1cce:	6043      	str	r3, [r0, #4]
    1cd0:	084a      	lsrs	r2, r1, #1
    1cd2:	f100 0308 	add.w	r3, r0, #8
    1cd6:	f001 0501 	and.w	r5, r1, #1
    1cda:	f853 7022 	ldr.w	r7, [r3, r2, lsl #2]
    1cde:	012d      	lsls	r5, r5, #4
    1ce0:	f240 3cff 	movw	ip, #1023	; 0x3ff
    1ce4:	fa0c fc05 	lsl.w	ip, ip, r5
    1ce8:	ea27 070c 	bic.w	r7, r7, ip
    1cec:	f843 7022 	str.w	r7, [r3, r2, lsl #2]
    1cf0:	f853 7022 	ldr.w	r7, [r3, r2, lsl #2]
    1cf4:	3020      	adds	r0, #32
    1cf6:	40ac      	lsls	r4, r5
    1cf8:	433c      	orrs	r4, r7
    1cfa:	f843 4022 	str.w	r4, [r3, r2, lsl #2]
    1cfe:	f840 6021 	str.w	r6, [r0, r1, lsl #2]
    1d02:	2000      	movs	r0, #0
    1d04:	bdf0      	pop	{r4, r5, r6, r7, pc}
    1d06:	2004      	movs	r0, #4
    1d08:	e7fc      	b.n	1d04 <PWM_SetupPwm+0x7e>

00001d0a <PWM_ClearStatusFlags>:
    1d0a:	088a      	lsrs	r2, r1, #2
    1d0c:	b510      	push	{r4, lr}
    1d0e:	304c      	adds	r0, #76	; 0x4c
    1d10:	f001 0103 	and.w	r1, r1, #3
    1d14:	f850 4022 	ldr.w	r4, [r0, r2, lsl #2]
    1d18:	00c9      	lsls	r1, r1, #3
    1d1a:	2301      	movs	r3, #1
    1d1c:	fa03 f101 	lsl.w	r1, r3, r1
    1d20:	4321      	orrs	r1, r4
    1d22:	f840 1022 	str.w	r1, [r0, r2, lsl #2]
    1d26:	bd10      	pop	{r4, pc}

00001d28 <GINT_GetInstance>:
    1d28:	b508      	push	{r3, lr}
    1d2a:	4b05      	ldr	r3, [pc, #20]	; (1d40 <GINT_GetInstance+0x18>)
    1d2c:	4298      	cmp	r0, r3
    1d2e:	d005      	beq.n	1d3c <GINT_GetInstance+0x14>
    1d30:	4b04      	ldr	r3, [pc, #16]	; (1d44 <GINT_GetInstance+0x1c>)
    1d32:	4a05      	ldr	r2, [pc, #20]	; (1d48 <GINT_GetInstance+0x20>)
    1d34:	4805      	ldr	r0, [pc, #20]	; (1d4c <GINT_GetInstance+0x24>)
    1d36:	2137      	movs	r1, #55	; 0x37
    1d38:	f008 f81e 	bl	9d78 <__assert_func>
    1d3c:	2000      	movs	r0, #0
    1d3e:	bd08      	pop	{r3, pc}
    1d40:	40011000 	.word	0x40011000
    1d44:	00036f34 	.word	0x00036f34
    1d48:	00036f9d 	.word	0x00036f9d
    1d4c:	00036f57 	.word	0x00036f57

00001d50 <GINT_Init>:
    1d50:	b508      	push	{r3, lr}
    1d52:	f7ff ffe9 	bl	1d28 <GINT_GetInstance>
    1d56:	4b06      	ldr	r3, [pc, #24]	; (1d70 <GINT_Init+0x20>)
    1d58:	2200      	movs	r2, #0
    1d5a:	f843 2020 	str.w	r2, [r3, r0, lsl #2]
    1d5e:	2013      	movs	r0, #19
    1d60:	f004 f8c0 	bl	5ee4 <CLOCK_EnableClock>
    1d64:	e8bd 4008 	ldmia.w	sp!, {r3, lr}
    1d68:	2013      	movs	r0, #19
    1d6a:	f004 b981 	b.w	6070 <RESET_PeripheralReset>
    1d6e:	bf00      	nop
    1d70:	04004774 	.word	0x04004774

00001d74 <GINT_SetCtrl>:
    1d74:	b5f8      	push	{r3, r4, r5, r6, r7, lr}
    1d76:	460c      	mov	r4, r1
    1d78:	4615      	mov	r5, r2
    1d7a:	461f      	mov	r7, r3
    1d7c:	4606      	mov	r6, r0
    1d7e:	0064      	lsls	r4, r4, #1
    1d80:	f7ff ffd2 	bl	1d28 <GINT_GetInstance>
    1d84:	00ad      	lsls	r5, r5, #2
    1d86:	4b05      	ldr	r3, [pc, #20]	; (1d9c <GINT_SetCtrl+0x28>)
    1d88:	f004 0402 	and.w	r4, r4, #2
    1d8c:	f005 0504 	and.w	r5, r5, #4
    1d90:	432c      	orrs	r4, r5
    1d92:	6034      	str	r4, [r6, #0]
    1d94:	f843 7020 	str.w	r7, [r3, r0, lsl #2]
    1d98:	bdf8      	pop	{r3, r4, r5, r6, r7, pc}
    1d9a:	bf00      	nop
    1d9c:	04004774 	.word	0x04004774

00001da0 <GINT_ConfigPins>:
    1da0:	eb00 0181 	add.w	r1, r0, r1, lsl #2
    1da4:	620a      	str	r2, [r1, #32]
    1da6:	640b      	str	r3, [r1, #64]	; 0x40
    1da8:	4770      	bx	lr
    1daa:	Address 0x00001daa is out of bounds.


00001dac <GINT_EnableCallback>:
    1dac:	b510      	push	{r4, lr}
    1dae:	4604      	mov	r4, r0
    1db0:	f7ff ffba 	bl	1d28 <GINT_GetInstance>
    1db4:	6823      	ldr	r3, [r4, #0]
    1db6:	f043 0301 	orr.w	r3, r3, #1
    1dba:	6023      	str	r3, [r4, #0]
    1dbc:	4b02      	ldr	r3, [pc, #8]	; (1dc8 <GINT_EnableCallback+0x1c>)
    1dbe:	2204      	movs	r2, #4
    1dc0:	f8c3 2180 	str.w	r2, [r3, #384]	; 0x180
    1dc4:	601a      	str	r2, [r3, #0]
    1dc6:	bd10      	pop	{r4, pc}
    1dc8:	e000e100 	.word	0xe000e100

00001dcc <GINT_DisableCallback>:
    1dcc:	b510      	push	{r4, lr}
    1dce:	4604      	mov	r4, r0
    1dd0:	f7ff ffaa 	bl	1d28 <GINT_GetInstance>
    1dd4:	4a07      	ldr	r2, [pc, #28]	; (1df4 <GINT_DisableCallback+0x28>)
    1dd6:	2104      	movs	r1, #4
    1dd8:	f8c2 1080 	str.w	r1, [r2, #128]	; 0x80
    1ddc:	f3bf 8f4f 	dsb	sy
    1de0:	f3bf 8f6f 	isb	sy
    1de4:	6823      	ldr	r3, [r4, #0]
    1de6:	f043 0301 	orr.w	r3, r3, #1
    1dea:	6023      	str	r3, [r4, #0]
    1dec:	f8c2 1180 	str.w	r1, [r2, #384]	; 0x180
    1df0:	bd10      	pop	{r4, pc}
    1df2:	bf00      	nop
    1df4:	e000e100 	.word	0xe000e100

00001df8 <GINT0_DriverIRQHandler>:
    1df8:	4a06      	ldr	r2, [pc, #24]	; (1e14 <GINT0_DriverIRQHandler+0x1c>)
    1dfa:	b508      	push	{r3, lr}
    1dfc:	6813      	ldr	r3, [r2, #0]
    1dfe:	f043 0301 	orr.w	r3, r3, #1
    1e02:	6013      	str	r3, [r2, #0]
    1e04:	4b04      	ldr	r3, [pc, #16]	; (1e18 <GINT0_DriverIRQHandler+0x20>)
    1e06:	681b      	ldr	r3, [r3, #0]
    1e08:	b103      	cbz	r3, 1e0c <GINT0_DriverIRQHandler+0x14>
    1e0a:	4798      	blx	r3
    1e0c:	f3bf 8f4f 	dsb	sy
    1e10:	bd08      	pop	{r3, pc}
    1e12:	bf00      	nop
    1e14:	40011000 	.word	0x40011000
    1e18:	04004774 	.word	0x04004774

00001e1c <vManagePowerOnCountLoadRecord>:
    1e1c:	b507      	push	{r0, r1, r2, lr}
    1e1e:	4905      	ldr	r1, [pc, #20]	; (1e34 <vManagePowerOnCountLoadRecord+0x18>)
    1e20:	f10d 0306 	add.w	r3, sp, #6
    1e24:	2201      	movs	r2, #1
    1e26:	f24a 1006 	movw	r0, #41222	; 0xa106
    1e2a:	f014 fb5b 	bl	164e4 <PDM_eReadDataFromRecord>
    1e2e:	b003      	add	sp, #12
    1e30:	f85d fb04 	ldr.w	pc, [sp], #4
    1e34:	04004779 	.word	0x04004779

00001e38 <vManagePowerOnCountInit>:
    1e38:	b510      	push	{r4, lr}
    1e3a:	4b0c      	ldr	r3, [pc, #48]	; (1e6c <vManagePowerOnCountInit+0x34>)
    1e3c:	4c0c      	ldr	r4, [pc, #48]	; (1e70 <vManagePowerOnCountInit+0x38>)
    1e3e:	781b      	ldrb	r3, [r3, #0]
    1e40:	7820      	ldrb	r0, [r4, #0]
    1e42:	b923      	cbnz	r3, 1e4e <vManagePowerOnCountInit+0x16>
    1e44:	21fa      	movs	r1, #250	; 0xfa
    1e46:	e8bd 4010 	ldmia.w	sp!, {r4, lr}
    1e4a:	f003 b99f 	b.w	518c <ZTIMER_eStart>
    1e4e:	f003 f9c7 	bl	51e0 <ZTIMER_eStop>
    1e52:	4908      	ldr	r1, [pc, #32]	; (1e74 <vManagePowerOnCountInit+0x3c>)
    1e54:	780b      	ldrb	r3, [r1, #0]
    1e56:	2201      	movs	r2, #1
    1e58:	3301      	adds	r3, #1
    1e5a:	f24a 1006 	movw	r0, #41222	; 0xa106
    1e5e:	700b      	strb	r3, [r1, #0]
    1e60:	f016 f88c 	bl	17f7c <PDM_eSaveRecordData>
    1e64:	7820      	ldrb	r0, [r4, #0]
    1e66:	f240 61d6 	movw	r1, #1750	; 0x6d6
    1e6a:	e7ec      	b.n	1e46 <vManagePowerOnCountInit+0xe>
    1e6c:	04004778 	.word	0x04004778
    1e70:	040012a6 	.word	0x040012a6
    1e74:	04004779 	.word	0x04004779

00001e78 <APP_cbTimerPowerCount>:
    1e78:	b51f      	push	{r0, r1, r2, r3, r4, lr}
    1e7a:	4b19      	ldr	r3, [pc, #100]	; (1ee0 <APP_cbTimerPowerCount+0x68>)
    1e7c:	781a      	ldrb	r2, [r3, #0]
    1e7e:	b92a      	cbnz	r2, 1e8c <APP_cbTimerPowerCount+0x14>
    1e80:	2201      	movs	r2, #1
    1e82:	701a      	strb	r2, [r3, #0]
    1e84:	f7ff ffd8 	bl	1e38 <vManagePowerOnCountInit>
    1e88:	b004      	add	sp, #16
    1e8a:	bd10      	pop	{r4, pc}
    1e8c:	2300      	movs	r3, #0
    1e8e:	f88d 3004 	strb.w	r3, [sp, #4]
    1e92:	4b14      	ldr	r3, [pc, #80]	; (1ee4 <APP_cbTimerPowerCount+0x6c>)
    1e94:	4c14      	ldr	r4, [pc, #80]	; (1ee8 <APP_cbTimerPowerCount+0x70>)
    1e96:	7818      	ldrb	r0, [r3, #0]
    1e98:	f003 f9a2 	bl	51e0 <ZTIMER_eStop>
    1e9c:	7822      	ldrb	r2, [r4, #0]
    1e9e:	3a02      	subs	r2, #2
    1ea0:	2a05      	cmp	r2, #5
    1ea2:	d807      	bhi.n	1eb4 <APP_cbTimerPowerCount+0x3c>
    1ea4:	e8df f002 	tbb	[pc, r2]
    1ea8:	18060316 	.word	0x18060316
    1eac:	1a06      	.short	0x1a06
    1eae:	2307      	movs	r3, #7
    1eb0:	f88d 3004 	strb.w	r3, [sp, #4]
    1eb4:	f89d 3004 	ldrb.w	r3, [sp, #4]
    1eb8:	b11b      	cbz	r3, 1ec2 <APP_cbTimerPowerCount+0x4a>
    1eba:	480c      	ldr	r0, [pc, #48]	; (1eec <APP_cbTimerPowerCount+0x74>)
    1ebc:	a901      	add	r1, sp, #4
    1ebe:	f003 f894 	bl	4fea <ZQ_bQueueSend>
    1ec2:	2300      	movs	r3, #0
    1ec4:	4908      	ldr	r1, [pc, #32]	; (1ee8 <APP_cbTimerPowerCount+0x70>)
    1ec6:	7023      	strb	r3, [r4, #0]
    1ec8:	2201      	movs	r2, #1
    1eca:	f24a 1006 	movw	r0, #41222	; 0xa106
    1ece:	f016 f855 	bl	17f7c <PDM_eSaveRecordData>
    1ed2:	e7d9      	b.n	1e88 <APP_cbTimerPowerCount+0x10>
    1ed4:	2309      	movs	r3, #9
    1ed6:	e7eb      	b.n	1eb0 <APP_cbTimerPowerCount+0x38>
    1ed8:	2308      	movs	r3, #8
    1eda:	e7e9      	b.n	1eb0 <APP_cbTimerPowerCount+0x38>
    1edc:	2306      	movs	r3, #6
    1ede:	e7e7      	b.n	1eb0 <APP_cbTimerPowerCount+0x38>
    1ee0:	04004778 	.word	0x04004778
    1ee4:	040012a6 	.word	0x040012a6
    1ee8:	04004779 	.word	0x04004779
    1eec:	040010f0 	.word	0x040010f0

00001ef0 <flashConfig_ExtractGpAdcTrimValues>:
    1ef0:	490b      	ldr	r1, [pc, #44]	; (1f20 <flashConfig_ExtractGpAdcTrimValues+0x30>)
    1ef2:	680a      	ldr	r2, [r1, #0]
    1ef4:	4603      	mov	r3, r0
    1ef6:	f012 0001 	ands.w	r0, r2, #1
    1efa:	b510      	push	{r4, lr}
    1efc:	d00f      	beq.n	1f1e <flashConfig_ExtractGpAdcTrimValues+0x2e>
    1efe:	f3c2 0449 	ubfx	r4, r2, #1, #10
    1f02:	801c      	strh	r4, [r3, #0]
    1f04:	f3c2 24c9 	ubfx	r4, r2, #11, #10
    1f08:	f3c2 5249 	ubfx	r2, r2, #21, #10
    1f0c:	809a      	strh	r2, [r3, #4]
    1f0e:	684a      	ldr	r2, [r1, #4]
    1f10:	805c      	strh	r4, [r3, #2]
    1f12:	f3c2 010b 	ubfx	r1, r2, #0, #12
    1f16:	f3c2 320b 	ubfx	r2, r2, #12, #12
    1f1a:	80d9      	strh	r1, [r3, #6]
    1f1c:	811a      	strh	r2, [r3, #8]
    1f1e:	bd10      	pop	{r4, pc}
    1f20:	0009fc80 	.word	0x0009fc80

00001f24 <flashConfig_ExtractTempSensorTrimValues>:
    1f24:	4a15      	ldr	r2, [pc, #84]	; (1f7c <flashConfig_ExtractTempSensorTrimValues+0x58>)
    1f26:	4603      	mov	r3, r0
    1f28:	6810      	ldr	r0, [r2, #0]
    1f2a:	f010 0001 	ands.w	r0, r0, #1
    1f2e:	b510      	push	{r4, lr}
    1f30:	d023      	beq.n	1f7a <flashConfig_ExtractTempSensorTrimValues+0x56>
    1f32:	6951      	ldr	r1, [r2, #20]
    1f34:	8019      	strh	r1, [r3, #0]
    1f36:	0c09      	lsrs	r1, r1, #16
    1f38:	8059      	strh	r1, [r3, #2]
    1f3a:	6991      	ldr	r1, [r2, #24]
    1f3c:	8099      	strh	r1, [r3, #4]
    1f3e:	0c09      	lsrs	r1, r1, #16
    1f40:	80d9      	strh	r1, [r3, #6]
    1f42:	69d1      	ldr	r1, [r2, #28]
    1f44:	8119      	strh	r1, [r3, #8]
    1f46:	0c09      	lsrs	r1, r1, #16
    1f48:	8159      	strh	r1, [r3, #10]
    1f4a:	6a11      	ldr	r1, [r2, #32]
    1f4c:	8199      	strh	r1, [r3, #12]
    1f4e:	0c09      	lsrs	r1, r1, #16
    1f50:	81d9      	strh	r1, [r3, #14]
    1f52:	490b      	ldr	r1, [pc, #44]	; (1f80 <flashConfig_ExtractTempSensorTrimValues+0x5c>)
    1f54:	880c      	ldrh	r4, [r1, #0]
    1f56:	6a51      	ldr	r1, [r2, #36]	; 0x24
    1f58:	821c      	strh	r4, [r3, #16]
    1f5a:	0c09      	lsrs	r1, r1, #16
    1f5c:	8259      	strh	r1, [r3, #18]
    1f5e:	3214      	adds	r2, #20
    1f60:	6951      	ldr	r1, [r2, #20]
    1f62:	6992      	ldr	r2, [r2, #24]
    1f64:	835a      	strh	r2, [r3, #26]
    1f66:	f3c1 040b 	ubfx	r4, r1, #0, #12
    1f6a:	829c      	strh	r4, [r3, #20]
    1f6c:	0c12      	lsrs	r2, r2, #16
    1f6e:	f3c1 3409 	ubfx	r4, r1, #12, #10
    1f72:	0d89      	lsrs	r1, r1, #22
    1f74:	82dc      	strh	r4, [r3, #22]
    1f76:	8319      	strh	r1, [r3, #24]
    1f78:	839a      	strh	r2, [r3, #28]
    1f7a:	bd10      	pop	{r4, pc}
    1f7c:	0009fc8c 	.word	0x0009fc8c
    1f80:	0009fcb0 	.word	0x0009fcb0

00001f84 <temp_computation>:
    1f84:	4b1e      	ldr	r3, [pc, #120]	; (2000 <temp_computation+0x7c>)
    1f86:	b5f0      	push	{r4, r5, r6, r7, lr}
    1f88:	681c      	ldr	r4, [r3, #0]
    1f8a:	f9b4 3014 	ldrsh.w	r3, [r4, #20]
    1f8e:	fb03 0312 	mls	r3, r3, r2, r0
    1f92:	8ba0      	ldrh	r0, [r4, #28]
    1f94:	fb10 f003 	smulbb	r0, r0, r3
    1f98:	1406      	asrs	r6, r0, #16
    1f9a:	f5c6 2680 	rsb	r6, r6, #262144	; 0x40000
    1f9e:	b21d      	sxth	r5, r3
    1fa0:	fbb6 f3f2 	udiv	r3, r6, r2
    1fa4:	0776      	lsls	r6, r6, #29
    1fa6:	d504      	bpl.n	1fb2 <temp_computation+0x2e>
    1fa8:	2800      	cmp	r0, #0
    1faa:	bfb4      	ite	lt
    1fac:	f103 33ff 	addlt.w	r3, r3, #4294967295
    1fb0:	3301      	addge	r3, #1
    1fb2:	f9b4 001a 	ldrsh.w	r0, [r4, #26]
    1fb6:	f9b4 c012 	ldrsh.w	ip, [r4, #18]
    1fba:	f994 7011 	ldrsb.w	r7, [r4, #17]
    1fbe:	4343      	muls	r3, r0
    1fc0:	1418      	asrs	r0, r3, #16
    1fc2:	f9b4 300c 	ldrsh.w	r3, [r4, #12]
    1fc6:	1acb      	subs	r3, r1, r3
    1fc8:	4343      	muls	r3, r0
    1fca:	f994 1010 	ldrsb.w	r1, [r4, #16]
    1fce:	eb0c 3363 	add.w	r3, ip, r3, asr #13
    1fd2:	ebc1 16e3 	rsb	r6, r1, r3, asr #7
    1fd6:	4376      	muls	r6, r6
    1fd8:	ebc1 11ec 	rsb	r1, r1, ip, asr #7
    1fdc:	11b0      	asrs	r0, r6, #6
    1fde:	4349      	muls	r1, r1
    1fe0:	4378      	muls	r0, r7
    1fe2:	1189      	asrs	r1, r1, #6
    1fe4:	eb03 13a0 	add.w	r3, r3, r0, asr #6
    1fe8:	4379      	muls	r1, r7
    1fea:	8ae0      	ldrh	r0, [r4, #22]
    1fec:	eba3 13a1 	sub.w	r3, r3, r1, asr #6
    1ff0:	fb10 f505 	smulbb	r5, r0, r5
    1ff4:	fb95 f2f2 	sdiv	r2, r5, r2
    1ff8:	eba3 2062 	sub.w	r0, r3, r2, asr #9
    1ffc:	bdf0      	pop	{r4, r5, r6, r7, pc}
    1ffe:	bf00      	nop
    2000:	04000ac8 	.word	0x04000ac8

00002004 <ADC_Configuration>:
    2004:	b5f8      	push	{r3, r4, r5, r6, r7, lr}
    2006:	4d19      	ldr	r5, [pc, #100]	; (206c <ADC_Configuration+0x68>)
    2008:	2201      	movs	r2, #1
    200a:	f04f 4380 	mov.w	r3, #1073741824	; 0x40000000
    200e:	702a      	strb	r2, [r5, #0]
    2010:	f8d3 32a4 	ldr.w	r3, [r3, #676]	; 0x2a4
    2014:	f013 0303 	ands.w	r3, r3, #3
    2018:	4604      	mov	r4, r0
    201a:	460f      	mov	r7, r1
    201c:	d006      	beq.n	202c <ADC_Configuration+0x28>
    201e:	4293      	cmp	r3, r2
    2020:	d020      	beq.n	2064 <ADC_Configuration+0x60>
    2022:	4813      	ldr	r0, [pc, #76]	; (2070 <ADC_Configuration+0x6c>)
    2024:	f7ff fd46 	bl	1ab4 <DbgConsole_Printf>
    2028:	2000      	movs	r0, #0
    202a:	e01a      	b.n	2062 <ADC_Configuration+0x5e>
    202c:	2108      	movs	r1, #8
    202e:	20e5      	movs	r0, #229	; 0xe5
    2030:	f003 fc48 	bl	58c4 <CLOCK_SetClkDiv>
    2034:	2600      	movs	r6, #0
    2036:	490d      	ldr	r1, [pc, #52]	; (206c <ADC_Configuration+0x68>)
    2038:	722e      	strb	r6, [r5, #8]
    203a:	4620      	mov	r0, r4
    203c:	60ee      	str	r6, [r5, #12]
    203e:	f000 f8f9 	bl	2234 <ADC_Init>
    2042:	490c      	ldr	r1, [pc, #48]	; (2074 <ADC_Configuration+0x70>)
    2044:	4b0c      	ldr	r3, [pc, #48]	; (2078 <ADC_Configuration+0x74>)
    2046:	608b      	str	r3, [r1, #8]
    2048:	4620      	mov	r0, r4
    204a:	e9c1 6600 	strd	r6, r6, [r1]
    204e:	f000 f943 	bl	22d8 <ADC_SetConvSeqAConfig>
    2052:	4638      	mov	r0, r7
    2054:	f003 ff2a 	bl	5eac <CLOCK_uDelay>
    2058:	68a3      	ldr	r3, [r4, #8]
    205a:	f043 4300 	orr.w	r3, r3, #2147483648	; 0x80000000
    205e:	60a3      	str	r3, [r4, #8]
    2060:	2001      	movs	r0, #1
    2062:	bdf8      	pop	{r3, r4, r5, r6, r7, pc}
    2064:	461a      	mov	r2, r3
    2066:	2103      	movs	r1, #3
    2068:	e7e1      	b.n	202e <ADC_Configuration+0x2a>
    206a:	bf00      	nop
    206c:	0400477c 	.word	0x0400477c
    2070:	00036fae 	.word	0x00036fae
    2074:	0400478c 	.word	0x0400478c
    2078:	01000001 	.word	0x01000001

0000207c <load_calibration_param_from_flash>:
    207c:	b570      	push	{r4, r5, r6, lr}
    207e:	4606      	mov	r6, r0
    2080:	4819      	ldr	r0, [pc, #100]	; (20e8 <load_calibration_param_from_flash+0x6c>)
    2082:	f7ff ff35 	bl	1ef0 <flashConfig_ExtractGpAdcTrimValues>
    2086:	4604      	mov	r4, r0
    2088:	b920      	cbnz	r0, 2094 <load_calibration_param_from_flash+0x18>
    208a:	4818      	ldr	r0, [pc, #96]	; (20ec <load_calibration_param_from_flash+0x70>)
    208c:	f7ff fd12 	bl	1ab4 <DbgConsole_Printf>
    2090:	4620      	mov	r0, r4
    2092:	bd70      	pop	{r4, r5, r6, pc}
    2094:	4d16      	ldr	r5, [pc, #88]	; (20f0 <load_calibration_param_from_flash+0x74>)
    2096:	4628      	mov	r0, r5
    2098:	f7ff ff44 	bl	1f24 <flashConfig_ExtractTempSensorTrimValues>
    209c:	4604      	mov	r4, r0
    209e:	b908      	cbnz	r0, 20a4 <load_calibration_param_from_flash+0x28>
    20a0:	4814      	ldr	r0, [pc, #80]	; (20f4 <load_calibration_param_from_flash+0x78>)
    20a2:	e7f3      	b.n	208c <load_calibration_param_from_flash+0x10>
    20a4:	f9b5 2016 	ldrsh.w	r2, [r5, #22]
    20a8:	0590      	lsls	r0, r2, #22
    20aa:	bf42      	ittt	mi
    20ac:	ea6f 5282 	mvnmi.w	r2, r2, lsl #22
    20b0:	ea6f 5292 	mvnmi.w	r2, r2, lsr #22
    20b4:	82ea      	strhmi	r2, [r5, #22]
    20b6:	f9b5 2018 	ldrsh.w	r2, [r5, #24]
    20ba:	0591      	lsls	r1, r2, #22
    20bc:	490a      	ldr	r1, [pc, #40]	; (20e8 <load_calibration_param_from_flash+0x6c>)
    20be:	bf48      	it	mi
    20c0:	ea6f 5282 	mvnmi.w	r2, r2, lsl #22
    20c4:	880b      	ldrh	r3, [r1, #0]
    20c6:	8849      	ldrh	r1, [r1, #2]
    20c8:	bf44      	itt	mi
    20ca:	ea6f 5292 	mvnmi.w	r2, r2, lsr #22
    20ce:	832a      	strhmi	r2, [r5, #24]
    20d0:	f3c3 0209 	ubfx	r2, r3, #0, #10
    20d4:	4b08      	ldr	r3, [pc, #32]	; (20f8 <load_calibration_param_from_flash+0x7c>)
    20d6:	ea03 2381 	and.w	r3, r3, r1, lsl #10
    20da:	4313      	orrs	r3, r2
    20dc:	6773      	str	r3, [r6, #116]	; 0x74
    20de:	4b07      	ldr	r3, [pc, #28]	; (20fc <load_calibration_param_from_flash+0x80>)
    20e0:	2201      	movs	r2, #1
    20e2:	701a      	strb	r2, [r3, #0]
    20e4:	e7d4      	b.n	2090 <load_calibration_param_from_flash+0x14>
    20e6:	bf00      	nop
    20e8:	04004798 	.word	0x04004798
    20ec:	00036ff0 	.word	0x00036ff0
    20f0:	040047a4 	.word	0x040047a4
    20f4:	00037035 	.word	0x00037035
    20f8:	000ffc00 	.word	0x000ffc00
    20fc:	040047a2 	.word	0x040047a2

00002100 <get_temperature>:
    2100:	e92d 47ff 	stmdb	sp!, {r0, r1, r2, r3, r4, r5, r6, r7, r8, r9, sl, lr}
    2104:	461f      	mov	r7, r3
    2106:	4b42      	ldr	r3, [pc, #264]	; (2210 <get_temperature+0x110>)
    2108:	781b      	ldrb	r3, [r3, #0]
    210a:	4689      	mov	r9, r1
    210c:	4604      	mov	r4, r0
    210e:	4611      	mov	r1, r2
    2110:	b923      	cbnz	r3, 211c <get_temperature+0x1c>
    2112:	2600      	movs	r6, #0
    2114:	4630      	mov	r0, r6
    2116:	b004      	add	sp, #16
    2118:	e8bd 87f0 	ldmia.w	sp!, {r4, r5, r6, r7, r8, r9, sl, pc}
    211c:	f7ff ff72 	bl	2004 <ADC_Configuration>
    2120:	4606      	mov	r6, r0
    2122:	2800      	cmp	r0, #0
    2124:	d0f5      	beq.n	2112 <get_temperature+0x12>
    2126:	68a3      	ldr	r3, [r4, #8]
    2128:	4d3a      	ldr	r5, [pc, #232]	; (2214 <get_temperature+0x114>)
    212a:	f023 4300 	bic.w	r3, r3, #2147483648	; 0x80000000
    212e:	60a3      	str	r3, [r4, #8]
    2130:	2101      	movs	r1, #1
    2132:	4620      	mov	r0, r4
    2134:	f000 f93a 	bl	23ac <ADC_EnableTemperatureSensor>
    2138:	2064      	movs	r0, #100	; 0x64
    213a:	f003 feb7 	bl	5eac <CLOCK_uDelay>
    213e:	6f23      	ldr	r3, [r4, #112]	; 0x70
    2140:	f423 437e 	bic.w	r3, r3, #65024	; 0xfe00
    2144:	f443 433e 	orr.w	r3, r3, #48640	; 0xbe00
    2148:	6723      	str	r3, [r4, #112]	; 0x70
    214a:	2301      	movs	r3, #1
    214c:	fa03 f309 	lsl.w	r3, r3, r9
    2150:	602b      	str	r3, [r5, #0]
    2152:	2102      	movs	r1, #2
    2154:	f240 1301 	movw	r3, #257	; 0x101
    2158:	e9c5 1301 	strd	r1, r3, [r5, #4]
    215c:	4620      	mov	r0, r4
    215e:	4629      	mov	r1, r5
    2160:	f000 f8ba 	bl	22d8 <ADC_SetConvSeqAConfig>
    2164:	68a3      	ldr	r3, [r4, #8]
    2166:	f04f 0a00 	mov.w	sl, #0
    216a:	f043 4300 	orr.w	r3, r3, #2147483648	; 0x80000000
    216e:	60a3      	str	r3, [r4, #8]
    2170:	46d0      	mov	r8, sl
    2172:	45ba      	cmp	sl, r7
    2174:	d128      	bne.n	21c8 <get_temperature+0xc8>
    2176:	2100      	movs	r1, #0
    2178:	4620      	mov	r0, r4
    217a:	f000 f917 	bl	23ac <ADC_EnableTemperatureSensor>
    217e:	68a3      	ldr	r3, [r4, #8]
    2180:	4924      	ldr	r1, [pc, #144]	; (2214 <get_temperature+0x114>)
    2182:	f023 4300 	bic.w	r3, r3, #2147483648	; 0x80000000
    2186:	60a3      	str	r3, [r4, #8]
    2188:	6f22      	ldr	r2, [r4, #112]	; 0x70
    218a:	f422 427e 	bic.w	r2, r2, #65024	; 0xfe00
    218e:	f442 5220 	orr.w	r2, r2, #10240	; 0x2800
    2192:	6722      	str	r2, [r4, #112]	; 0x70
    2194:	2302      	movs	r3, #2
    2196:	2240      	movs	r2, #64	; 0x40
    2198:	e9c5 2300 	strd	r2, r3, [r5]
    219c:	f240 1301 	movw	r3, #257	; 0x101
    21a0:	60ab      	str	r3, [r5, #8]
    21a2:	4620      	mov	r0, r4
    21a4:	f000 f898 	bl	22d8 <ADC_SetConvSeqAConfig>
    21a8:	68a3      	ldr	r3, [r4, #8]
    21aa:	2500      	movs	r5, #0
    21ac:	f043 4300 	orr.w	r3, r3, #2147483648	; 0x80000000
    21b0:	60a3      	str	r3, [r4, #8]
    21b2:	46a9      	mov	r9, r5
    21b4:	42af      	cmp	r7, r5
    21b6:	d119      	bne.n	21ec <get_temperature+0xec>
    21b8:	463a      	mov	r2, r7
    21ba:	4641      	mov	r1, r8
    21bc:	4648      	mov	r0, r9
    21be:	f7ff fee1 	bl	1f84 <temp_computation>
    21c2:	9b0c      	ldr	r3, [sp, #48]	; 0x30
    21c4:	6018      	str	r0, [r3, #0]
    21c6:	e7a5      	b.n	2114 <get_temperature+0x14>
    21c8:	68a3      	ldr	r3, [r4, #8]
    21ca:	f043 6380 	orr.w	r3, r3, #67108864	; 0x4000000
    21ce:	60a3      	str	r3, [r4, #8]
    21d0:	466a      	mov	r2, sp
    21d2:	4649      	mov	r1, r9
    21d4:	4620      	mov	r0, r4
    21d6:	f000 f8a9 	bl	232c <ADC_GetChannelConversionResult>
    21da:	2800      	cmp	r0, #0
    21dc:	d0f8      	beq.n	21d0 <get_temperature+0xd0>
    21de:	9b00      	ldr	r3, [sp, #0]
    21e0:	4498      	add	r8, r3
    21e2:	fa1f f888 	uxth.w	r8, r8
    21e6:	f10a 0a01 	add.w	sl, sl, #1
    21ea:	e7c2      	b.n	2172 <get_temperature+0x72>
    21ec:	68a3      	ldr	r3, [r4, #8]
    21ee:	f043 6380 	orr.w	r3, r3, #67108864	; 0x4000000
    21f2:	60a3      	str	r3, [r4, #8]
    21f4:	466a      	mov	r2, sp
    21f6:	2106      	movs	r1, #6
    21f8:	4620      	mov	r0, r4
    21fa:	f000 f897 	bl	232c <ADC_GetChannelConversionResult>
    21fe:	2800      	cmp	r0, #0
    2200:	d0f8      	beq.n	21f4 <get_temperature+0xf4>
    2202:	9b00      	ldr	r3, [sp, #0]
    2204:	4499      	add	r9, r3
    2206:	fa1f f989 	uxth.w	r9, r9
    220a:	3501      	adds	r5, #1
    220c:	e7d2      	b.n	21b4 <get_temperature+0xb4>
    220e:	bf00      	nop
    2210:	040047a2 	.word	0x040047a2
    2214:	0400478c 	.word	0x0400478c

00002218 <ADC_GetInstance.part.0>:
    2218:	b508      	push	{r3, lr}
    221a:	4a03      	ldr	r2, [pc, #12]	; (2228 <ADC_GetInstance.part.0+0x10>)
    221c:	4b03      	ldr	r3, [pc, #12]	; (222c <ADC_GetInstance.part.0+0x14>)
    221e:	4804      	ldr	r0, [pc, #16]	; (2230 <ADC_GetInstance.part.0+0x18>)
    2220:	2125      	movs	r1, #37	; 0x25
    2222:	f007 fda9 	bl	9d78 <__assert_func>
    2226:	bf00      	nop
    2228:	00037124 	.word	0x00037124
    222c:	00037089 	.word	0x00037089
    2230:	000370ab 	.word	0x000370ab

00002234 <ADC_Init>:
    2234:	b538      	push	{r3, r4, r5, lr}
    2236:	4605      	mov	r5, r0
    2238:	460c      	mov	r4, r1
    223a:	b929      	cbnz	r1, 2248 <ADC_Init+0x14>
    223c:	4b20      	ldr	r3, [pc, #128]	; (22c0 <ADC_Init+0x8c>)
    223e:	4a21      	ldr	r2, [pc, #132]	; (22c4 <ADC_Init+0x90>)
    2240:	4821      	ldr	r0, [pc, #132]	; (22c8 <ADC_Init+0x94>)
    2242:	2132      	movs	r1, #50	; 0x32
    2244:	f007 fd98 	bl	9d78 <__assert_func>
    2248:	4b20      	ldr	r3, [pc, #128]	; (22cc <ADC_Init+0x98>)
    224a:	4298      	cmp	r0, r3
    224c:	d135      	bne.n	22ba <ADC_Init+0x86>
    224e:	201b      	movs	r0, #27
    2250:	f003 fe48 	bl	5ee4 <CLOCK_EnableClock>
    2254:	2300      	movs	r3, #0
    2256:	666b      	str	r3, [r5, #100]	; 0x64
    2258:	7821      	ldrb	r1, [r4, #0]
    225a:	7922      	ldrb	r2, [r4, #4]
    225c:	2901      	cmp	r1, #1
    225e:	d101      	bne.n	2264 <ADC_Init+0x30>
    2260:	f442 7280 	orr.w	r2, r2, #256	; 0x100
    2264:	7a23      	ldrb	r3, [r4, #8]
    2266:	025b      	lsls	r3, r3, #9
    2268:	2901      	cmp	r1, #1
    226a:	f403 63c0 	and.w	r3, r3, #1536	; 0x600
    226e:	ea43 0302 	orr.w	r3, r3, r2
    2272:	bf01      	itttt	eq
    2274:	68e2      	ldreq	r2, [r4, #12]
    2276:	0312      	lsleq	r2, r2, #12
    2278:	f402 42e0 	andeq.w	r2, r2, #28672	; 0x7000
    227c:	4313      	orreq	r3, r2
    227e:	4a13      	ldr	r2, [pc, #76]	; (22cc <ADC_Init+0x98>)
    2280:	6013      	str	r3, [r2, #0]
    2282:	6f13      	ldr	r3, [r2, #112]	; 0x70
    2284:	f043 0301 	orr.w	r3, r3, #1
    2288:	6713      	str	r3, [r2, #112]	; 0x70
    228a:	b931      	cbnz	r1, 229a <ADC_Init+0x66>
    228c:	68e3      	ldr	r3, [r4, #12]
    228e:	6f11      	ldr	r1, [r2, #112]	; 0x70
    2290:	021b      	lsls	r3, r3, #8
    2292:	f403 7380 	and.w	r3, r3, #256	; 0x100
    2296:	430b      	orrs	r3, r1
    2298:	6713      	str	r3, [r2, #112]	; 0x70
    229a:	490d      	ldr	r1, [pc, #52]	; (22d0 <ADC_Init+0x9c>)
    229c:	f44f 7096 	mov.w	r0, #300	; 0x12c
    22a0:	f004 fa36 	bl	6710 <SDK_DelayAtLeastUs>
    22a4:	4b0b      	ldr	r3, [pc, #44]	; (22d4 <ADC_Init+0xa0>)
    22a6:	4a09      	ldr	r2, [pc, #36]	; (22cc <ADC_Init+0x98>)
    22a8:	681b      	ldr	r3, [r3, #0]
    22aa:	f013 0f01 	tst.w	r3, #1
    22ae:	bf1c      	itt	ne
    22b0:	085b      	lsrne	r3, r3, #1
    22b2:	6753      	strne	r3, [r2, #116]	; 0x74
    22b4:	2301      	movs	r3, #1
    22b6:	66d3      	str	r3, [r2, #108]	; 0x6c
    22b8:	bd38      	pop	{r3, r4, r5, pc}
    22ba:	f7ff ffad 	bl	2218 <ADC_GetInstance.part.0>
    22be:	bf00      	nop
    22c0:	000370f0 	.word	0x000370f0
    22c4:	00037134 	.word	0x00037134
    22c8:	000370ab 	.word	0x000370ab
    22cc:	40089000 	.word	0x40089000
    22d0:	02dc6c00 	.word	0x02dc6c00
    22d4:	0009fc80 	.word	0x0009fc80

000022d8 <ADC_SetConvSeqAConfig>:
    22d8:	b508      	push	{r3, lr}
    22da:	b931      	cbnz	r1, 22ea <ADC_SetConvSeqAConfig+0x12>
    22dc:	4b10      	ldr	r3, [pc, #64]	; (2320 <ADC_SetConvSeqAConfig+0x48>)
    22de:	4a11      	ldr	r2, [pc, #68]	; (2324 <ADC_SetConvSeqAConfig+0x4c>)
    22e0:	4811      	ldr	r0, [pc, #68]	; (2328 <ADC_SetConvSeqAConfig+0x50>)
    22e2:	f44f 7199 	mov.w	r1, #306	; 0x132
    22e6:	f007 fd47 	bl	9d78 <__assert_func>
    22ea:	684b      	ldr	r3, [r1, #4]
    22ec:	780a      	ldrb	r2, [r1, #0]
    22ee:	031b      	lsls	r3, r3, #12
    22f0:	f403 337c 	and.w	r3, r3, #258048	; 0x3f000
    22f4:	4313      	orrs	r3, r2
    22f6:	7a0a      	ldrb	r2, [r1, #8]
    22f8:	2a01      	cmp	r2, #1
    22fa:	7a4a      	ldrb	r2, [r1, #9]
    22fc:	bf08      	it	eq
    22fe:	f443 2380 	orreq.w	r3, r3, #262144	; 0x40000
    2302:	b10a      	cbz	r2, 2308 <ADC_SetConvSeqAConfig+0x30>
    2304:	f443 2300 	orr.w	r3, r3, #524288	; 0x80000
    2308:	7aca      	ldrb	r2, [r1, #11]
    230a:	2a01      	cmp	r2, #1
    230c:	7a8a      	ldrb	r2, [r1, #10]
    230e:	bf08      	it	eq
    2310:	f043 4380 	orreq.w	r3, r3, #1073741824	; 0x40000000
    2314:	b10a      	cbz	r2, 231a <ADC_SetConvSeqAConfig+0x42>
    2316:	f043 5380 	orr.w	r3, r3, #268435456	; 0x10000000
    231a:	6083      	str	r3, [r0, #8]
    231c:	bd08      	pop	{r3, pc}
    231e:	bf00      	nop
    2320:	000370f0 	.word	0x000370f0
    2324:	0003713d 	.word	0x0003713d
    2328:	000370ab 	.word	0x000370ab

0000232c <ADC_GetChannelConversionResult>:
    232c:	b508      	push	{r3, lr}
    232e:	b932      	cbnz	r2, 233e <ADC_GetChannelConversionResult+0x12>
    2330:	4b1a      	ldr	r3, [pc, #104]	; (239c <ADC_GetChannelConversionResult+0x70>)
    2332:	4a1b      	ldr	r2, [pc, #108]	; (23a0 <ADC_GetChannelConversionResult+0x74>)
    2334:	f240 11d9 	movw	r1, #473	; 0x1d9
    2338:	481a      	ldr	r0, [pc, #104]	; (23a4 <ADC_GetChannelConversionResult+0x78>)
    233a:	f007 fd1d 	bl	9d78 <__assert_func>
    233e:	2907      	cmp	r1, #7
    2340:	d904      	bls.n	234c <ADC_GetChannelConversionResult+0x20>
    2342:	4b19      	ldr	r3, [pc, #100]	; (23a8 <ADC_GetChannelConversionResult+0x7c>)
    2344:	4a16      	ldr	r2, [pc, #88]	; (23a0 <ADC_GetChannelConversionResult+0x74>)
    2346:	f44f 71ed 	mov.w	r1, #474	; 0x1da
    234a:	e7f5      	b.n	2338 <ADC_GetChannelConversionResult+0xc>
    234c:	3108      	adds	r1, #8
    234e:	f850 1021 	ldr.w	r1, [r0, r1, lsl #2]
    2352:	2900      	cmp	r1, #0
    2354:	da1f      	bge.n	2396 <ADC_GetChannelConversionResult+0x6a>
    2356:	6800      	ldr	r0, [r0, #0]
    2358:	f3c0 2041 	ubfx	r0, r0, #9, #2
    235c:	f3c1 130b 	ubfx	r3, r1, #4, #12
    2360:	2802      	cmp	r0, #2
    2362:	6013      	str	r3, [r2, #0]
    2364:	d013      	beq.n	238e <ADC_GetChannelConversionResult+0x62>
    2366:	2803      	cmp	r0, #3
    2368:	d013      	beq.n	2392 <ADC_GetChannelConversionResult+0x66>
    236a:	2801      	cmp	r0, #1
    236c:	d101      	bne.n	2372 <ADC_GetChannelConversionResult+0x46>
    236e:	089b      	lsrs	r3, r3, #2
    2370:	6013      	str	r3, [r2, #0]
    2372:	f3c1 4301 	ubfx	r3, r1, #16, #2
    2376:	7113      	strb	r3, [r2, #4]
    2378:	f3c1 4381 	ubfx	r3, r1, #18, #2
    237c:	7153      	strb	r3, [r2, #5]
    237e:	f3c1 6383 	ubfx	r3, r1, #26, #4
    2382:	f3c1 7180 	ubfx	r1, r1, #30, #1
    2386:	6093      	str	r3, [r2, #8]
    2388:	7311      	strb	r1, [r2, #12]
    238a:	2001      	movs	r0, #1
    238c:	bd08      	pop	{r3, pc}
    238e:	091b      	lsrs	r3, r3, #4
    2390:	e7ee      	b.n	2370 <ADC_GetChannelConversionResult+0x44>
    2392:	099b      	lsrs	r3, r3, #6
    2394:	e7ec      	b.n	2370 <ADC_GetChannelConversionResult+0x44>
    2396:	2000      	movs	r0, #0
    2398:	e7f8      	b.n	238c <ADC_GetChannelConversionResult+0x60>
    239a:	bf00      	nop
    239c:	000370ff 	.word	0x000370ff
    23a0:	00037153 	.word	0x00037153
    23a4:	000370ab 	.word	0x000370ab
    23a8:	0003710c 	.word	0x0003710c

000023ac <ADC_EnableTemperatureSensor>:
    23ac:	f04f 4380 	mov.w	r3, #1073741824	; 0x40000000
    23b0:	b189      	cbz	r1, 23d6 <ADC_EnableTemperatureSensor+0x2a>
    23b2:	2201      	movs	r2, #1
    23b4:	64da      	str	r2, [r3, #76]	; 0x4c
    23b6:	f503 3300 	add.w	r3, r3, #131072	; 0x20000
    23ba:	2208      	movs	r2, #8
    23bc:	f8c3 20a0 	str.w	r2, [r3, #160]	; 0xa0
    23c0:	f8d3 20a0 	ldr.w	r2, [r3, #160]	; 0xa0
    23c4:	f042 0201 	orr.w	r2, r2, #1
    23c8:	f8c3 20a0 	str.w	r2, [r3, #160]	; 0xa0
    23cc:	6f03      	ldr	r3, [r0, #112]	; 0x70
    23ce:	f443 433e 	orr.w	r3, r3, #48640	; 0xbe00
    23d2:	6703      	str	r3, [r0, #112]	; 0x70
    23d4:	4770      	bx	lr
    23d6:	6cdb      	ldr	r3, [r3, #76]	; 0x4c
    23d8:	2b01      	cmp	r3, #1
    23da:	d1fb      	bne.n	23d4 <ADC_EnableTemperatureSensor+0x28>
    23dc:	4b05      	ldr	r3, [pc, #20]	; (23f4 <ADC_EnableTemperatureSensor+0x48>)
    23de:	f8c3 10a0 	str.w	r1, [r3, #160]	; 0xa0
    23e2:	6f03      	ldr	r3, [r0, #112]	; 0x70
    23e4:	f423 433e 	bic.w	r3, r3, #48640	; 0xbe00
    23e8:	6703      	str	r3, [r0, #112]	; 0x70
    23ea:	6f03      	ldr	r3, [r0, #112]	; 0x70
    23ec:	f443 5320 	orr.w	r3, r3, #10240	; 0x2800
    23f0:	e7ef      	b.n	23d2 <ADC_EnableTemperatureSensor+0x26>
    23f2:	bf00      	nop
    23f4:	40020000 	.word	0x40020000

000023f8 <eRestoreReports>:
    23f8:	b513      	push	{r0, r1, r4, lr}
    23fa:	f44f 62c8 	mov.w	r2, #1600	; 0x640
    23fe:	f10d 0306 	add.w	r3, sp, #6
    2402:	4906      	ldr	r1, [pc, #24]	; (241c <eRestoreReports+0x24>)
    2404:	2009      	movs	r0, #9
    2406:	f014 f86d 	bl	164e4 <PDM_eReadDataFromRecord>
    240a:	4604      	mov	r4, r0
    240c:	4601      	mov	r1, r0
    240e:	4804      	ldr	r0, [pc, #16]	; (2420 <eRestoreReports+0x28>)
    2410:	f7ff fb50 	bl	1ab4 <DbgConsole_Printf>
    2414:	4620      	mov	r0, r4
    2416:	b002      	add	sp, #8
    2418:	bd10      	pop	{r4, pc}
    241a:	bf00      	nop
    241c:	04004e08 	.word	0x04004e08
    2420:	00037172 	.word	0x00037172

00002424 <vMakeSupportedAttributesReportable>:
    2424:	e92d 41ff 	stmdb	sp!, {r0, r1, r2, r3, r4, r5, r6, r7, r8, lr}
    2428:	4818      	ldr	r0, [pc, #96]	; (248c <vMakeSupportedAttributesReportable+0x68>)
    242a:	4c19      	ldr	r4, [pc, #100]	; (2490 <vMakeSupportedAttributesReportable+0x6c>)
    242c:	f8df 8064 	ldr.w	r8, [pc, #100]	; 2494 <vMakeSupportedAttributesReportable+0x70>
    2430:	2101      	movs	r1, #1
    2432:	f7ff fb3f 	bl	1ab4 <DbgConsole_Printf>
    2436:	2500      	movs	r5, #0
    2438:	f994 3018 	ldrsb.w	r3, [r4, #24]
    243c:	9303      	str	r3, [sp, #12]
    243e:	7a23      	ldrb	r3, [r4, #8]
    2440:	8826      	ldrh	r6, [r4, #0]
    2442:	8967      	ldrh	r7, [r4, #10]
    2444:	9302      	str	r3, [sp, #8]
    2446:	8a23      	ldrh	r3, [r4, #16]
    2448:	9301      	str	r3, [sp, #4]
    244a:	89e3      	ldrh	r3, [r4, #14]
    244c:	9300      	str	r3, [sp, #0]
    244e:	463a      	mov	r2, r7
    2450:	89a3      	ldrh	r3, [r4, #12]
    2452:	4631      	mov	r1, r6
    2454:	4640      	mov	r0, r8
    2456:	f7ff fb2d 	bl	1ab4 <DbgConsole_Printf>
    245a:	2201      	movs	r2, #1
    245c:	2300      	movs	r3, #0
    245e:	4631      	mov	r1, r6
    2460:	4610      	mov	r0, r2
    2462:	9700      	str	r7, [sp, #0]
    2464:	f011 f975 	bl	13752 <eZCL_SetReportableFlag>
    2468:	f104 0308 	add.w	r3, r4, #8
    246c:	9300      	str	r3, [sp, #0]
    246e:	2301      	movs	r3, #1
    2470:	2200      	movs	r2, #0
    2472:	4631      	mov	r1, r6
    2474:	4618      	mov	r0, r3
    2476:	3501      	adds	r5, #1
    2478:	f011 f8de 	bl	13638 <eZCL_CreateLocalReport>
    247c:	2d32      	cmp	r5, #50	; 0x32
    247e:	f104 0420 	add.w	r4, r4, #32
    2482:	d1d9      	bne.n	2438 <vMakeSupportedAttributesReportable+0x14>
    2484:	b004      	add	sp, #16
    2486:	e8bd 81f0 	ldmia.w	sp!, {r4, r5, r6, r7, r8, pc}
    248a:	bf00      	nop
    248c:	0003718d 	.word	0x0003718d
    2490:	04004e08 	.word	0x04004e08
    2494:	000371a5 	.word	0x000371a5

00002498 <vLoadDefaultConfigForReportable>:
    2498:	b5f0      	push	{r4, r5, r6, r7, lr}
    249a:	481e      	ldr	r0, [pc, #120]	; (2514 <vLoadDefaultConfigForReportable+0x7c>)
    249c:	4f1e      	ldr	r7, [pc, #120]	; (2518 <vLoadDefaultConfigForReportable+0x80>)
    249e:	b087      	sub	sp, #28
    24a0:	f44f 62c8 	mov.w	r2, #1600	; 0x640
    24a4:	2100      	movs	r1, #0
    24a6:	f033 fa6b 	bl	35980 <memset>
    24aa:	f8df c068 	ldr.w	ip, [pc, #104]	; 2514 <vLoadDefaultConfigForReportable+0x7c>
    24ae:	2600      	movs	r6, #0
    24b0:	19bd      	adds	r5, r7, r6
    24b2:	cd0f      	ldmia	r5!, {r0, r1, r2, r3}
    24b4:	eb0c 0406 	add.w	r4, ip, r6
    24b8:	c40f      	stmia	r4!, {r0, r1, r2, r3}
    24ba:	e895 000f 	ldmia.w	r5, {r0, r1, r2, r3}
    24be:	3620      	adds	r6, #32
    24c0:	f5b6 6fc8 	cmp.w	r6, #1600	; 0x640
    24c4:	e884 000f 	stmia.w	r4, {r0, r1, r2, r3}
    24c8:	d1f2      	bne.n	24b0 <vLoadDefaultConfigForReportable+0x18>
    24ca:	4814      	ldr	r0, [pc, #80]	; (251c <vLoadDefaultConfigForReportable+0x84>)
    24cc:	4c11      	ldr	r4, [pc, #68]	; (2514 <vLoadDefaultConfigForReportable+0x7c>)
    24ce:	4e14      	ldr	r6, [pc, #80]	; (2520 <vLoadDefaultConfigForReportable+0x88>)
    24d0:	f7ff faf0 	bl	1ab4 <DbgConsole_Printf>
    24d4:	2500      	movs	r5, #0
    24d6:	7e23      	ldrb	r3, [r4, #24]
    24d8:	9304      	str	r3, [sp, #16]
    24da:	7a23      	ldrb	r3, [r4, #8]
    24dc:	9303      	str	r3, [sp, #12]
    24de:	8a23      	ldrh	r3, [r4, #16]
    24e0:	9302      	str	r3, [sp, #8]
    24e2:	89e3      	ldrh	r3, [r4, #14]
    24e4:	9301      	str	r3, [sp, #4]
    24e6:	89a3      	ldrh	r3, [r4, #12]
    24e8:	9300      	str	r3, [sp, #0]
    24ea:	8963      	ldrh	r3, [r4, #10]
    24ec:	7a62      	ldrb	r2, [r4, #9]
    24ee:	8821      	ldrh	r1, [r4, #0]
    24f0:	4630      	mov	r0, r6
    24f2:	3501      	adds	r5, #1
    24f4:	f7ff fade 	bl	1ab4 <DbgConsole_Printf>
    24f8:	2d32      	cmp	r5, #50	; 0x32
    24fa:	f104 0420 	add.w	r4, r4, #32
    24fe:	d1ea      	bne.n	24d6 <vLoadDefaultConfigForReportable+0x3e>
    2500:	4904      	ldr	r1, [pc, #16]	; (2514 <vLoadDefaultConfigForReportable+0x7c>)
    2502:	f44f 62c8 	mov.w	r2, #1600	; 0x640
    2506:	2009      	movs	r0, #9
    2508:	b007      	add	sp, #28
    250a:	e8bd 40f0 	ldmia.w	sp!, {r4, r5, r6, r7, lr}
    250e:	f015 bd35 	b.w	17f7c <PDM_eSaveRecordData>
    2512:	bf00      	nop
    2514:	04004e08 	.word	0x04004e08
    2518:	040047c8 	.word	0x040047c8
    251c:	000371ed 	.word	0x000371ed
    2520:	00037207 	.word	0x00037207

00002524 <vRestoreDefaultRecord>:
    2524:	b530      	push	{r4, r5, lr}
    2526:	b087      	sub	sp, #28
    2528:	4d14      	ldr	r5, [pc, #80]	; (257c <vRestoreDefaultRecord+0x58>)
    252a:	4c15      	ldr	r4, [pc, #84]	; (2580 <vRestoreDefaultRecord+0x5c>)
    252c:	9500      	str	r5, [sp, #0]
    252e:	2301      	movs	r3, #1
    2530:	2200      	movs	r2, #0
    2532:	f011 f881 	bl	13638 <eZCL_CreateLocalReport>
    2536:	2100      	movs	r1, #0
    2538:	4812      	ldr	r0, [pc, #72]	; (2584 <vRestoreDefaultRecord+0x60>)
    253a:	f7ff fabb 	bl	1ab4 <DbgConsole_Printf>
    253e:	4629      	mov	r1, r5
    2540:	2218      	movs	r2, #24
    2542:	f104 0008 	add.w	r0, r4, #8
    2546:	f033 f981 	bl	3584c <memcpy>
    254a:	7e23      	ldrb	r3, [r4, #24]
    254c:	9304      	str	r3, [sp, #16]
    254e:	7a23      	ldrb	r3, [r4, #8]
    2550:	9303      	str	r3, [sp, #12]
    2552:	8a23      	ldrh	r3, [r4, #16]
    2554:	9302      	str	r3, [sp, #8]
    2556:	89e3      	ldrh	r3, [r4, #14]
    2558:	9301      	str	r3, [sp, #4]
    255a:	89a3      	ldrh	r3, [r4, #12]
    255c:	7a62      	ldrb	r2, [r4, #9]
    255e:	8821      	ldrh	r1, [r4, #0]
    2560:	9300      	str	r3, [sp, #0]
    2562:	4809      	ldr	r0, [pc, #36]	; (2588 <vRestoreDefaultRecord+0x64>)
    2564:	8963      	ldrh	r3, [r4, #10]
    2566:	f7ff faa5 	bl	1ab4 <DbgConsole_Printf>
    256a:	f44f 62c8 	mov.w	r2, #1600	; 0x640
    256e:	4621      	mov	r1, r4
    2570:	2009      	movs	r0, #9
    2572:	b007      	add	sp, #28
    2574:	e8bd 4030 	ldmia.w	sp!, {r4, r5, lr}
    2578:	f015 bd00 	b.w	17f7c <PDM_eSaveRecordData>
    257c:	040047d0 	.word	0x040047d0
    2580:	04004e08 	.word	0x04004e08
    2584:	00037252 	.word	0x00037252
    2588:	00037268 	.word	0x00037268

0000258c <vSaveReportableRecord>:
    258c:	e92d 43f0 	stmdb	sp!, {r4, r5, r6, r7, r8, r9, lr}
    2590:	4f23      	ldr	r7, [pc, #140]	; (2620 <vSaveReportableRecord+0x94>)
    2592:	f8df 9098 	ldr.w	r9, [pc, #152]	; 262c <vSaveReportableRecord+0xa0>
    2596:	b087      	sub	sp, #28
    2598:	4606      	mov	r6, r0
    259a:	460d      	mov	r5, r1
    259c:	2400      	movs	r4, #0
    259e:	46b8      	mov	r8, r7
    25a0:	886b      	ldrh	r3, [r5, #2]
    25a2:	4632      	mov	r2, r6
    25a4:	4621      	mov	r1, r4
    25a6:	4648      	mov	r0, r9
    25a8:	f7ff fa84 	bl	1ab4 <DbgConsole_Printf>
    25ac:	883b      	ldrh	r3, [r7, #0]
    25ae:	42b3      	cmp	r3, r6
    25b0:	d103      	bne.n	25ba <vSaveReportableRecord+0x2e>
    25b2:	8979      	ldrh	r1, [r7, #10]
    25b4:	886a      	ldrh	r2, [r5, #2]
    25b6:	4291      	cmp	r1, r2
    25b8:	d006      	beq.n	25c8 <vSaveReportableRecord+0x3c>
    25ba:	b12b      	cbz	r3, 25c8 <vSaveReportableRecord+0x3c>
    25bc:	3401      	adds	r4, #1
    25be:	2c32      	cmp	r4, #50	; 0x32
    25c0:	f107 0720 	add.w	r7, r7, #32
    25c4:	d1ec      	bne.n	25a0 <vSaveReportableRecord+0x14>
    25c6:	2400      	movs	r4, #0
    25c8:	0167      	lsls	r7, r4, #5
    25ca:	4621      	mov	r1, r4
    25cc:	4815      	ldr	r0, [pc, #84]	; (2624 <vSaveReportableRecord+0x98>)
    25ce:	eb08 1444 	add.w	r4, r8, r4, lsl #5
    25d2:	f7ff fa6f 	bl	1ab4 <DbgConsole_Printf>
    25d6:	f107 0008 	add.w	r0, r7, #8
    25da:	4629      	mov	r1, r5
    25dc:	f828 6007 	strh.w	r6, [r8, r7]
    25e0:	2218      	movs	r2, #24
    25e2:	4440      	add	r0, r8
    25e4:	f033 f932 	bl	3584c <memcpy>
    25e8:	7e22      	ldrb	r2, [r4, #24]
    25ea:	480f      	ldr	r0, [pc, #60]	; (2628 <vSaveReportableRecord+0x9c>)
    25ec:	2300      	movs	r3, #0
    25ee:	8223      	strh	r3, [r4, #16]
    25f0:	9204      	str	r2, [sp, #16]
    25f2:	7a22      	ldrb	r2, [r4, #8]
    25f4:	e9cd 3202 	strd	r3, r2, [sp, #8]
    25f8:	89e3      	ldrh	r3, [r4, #14]
    25fa:	9301      	str	r3, [sp, #4]
    25fc:	89a3      	ldrh	r3, [r4, #12]
    25fe:	9300      	str	r3, [sp, #0]
    2600:	7a62      	ldrb	r2, [r4, #9]
    2602:	f838 1007 	ldrh.w	r1, [r8, r7]
    2606:	8963      	ldrh	r3, [r4, #10]
    2608:	f7ff fa54 	bl	1ab4 <DbgConsole_Printf>
    260c:	4904      	ldr	r1, [pc, #16]	; (2620 <vSaveReportableRecord+0x94>)
    260e:	f44f 62c8 	mov.w	r2, #1600	; 0x640
    2612:	2009      	movs	r0, #9
    2614:	b007      	add	sp, #28
    2616:	e8bd 43f0 	ldmia.w	sp!, {r4, r5, r6, r7, r8, r9, lr}
    261a:	f015 bcaf 	b.w	17f7c <PDM_eSaveRecordData>
    261e:	bf00      	nop
    2620:	04004e08 	.word	0x04004e08
    2624:	000372f4 	.word	0x000372f4
    2628:	00037308 	.word	0x00037308
    262c:	000372ca 	.word	0x000372ca

00002630 <vSendImmediateReport>:
    2630:	b570      	push	{r4, r5, r6, lr}
    2632:	4605      	mov	r5, r0
    2634:	b086      	sub	sp, #24
    2636:	4817      	ldr	r0, [pc, #92]	; (2694 <vSendImmediateReport+0x64>)
    2638:	460e      	mov	r6, r1
    263a:	f7ff fa3b 	bl	1ab4 <DbgConsole_Printf>
    263e:	f00f fd41 	bl	120c4 <hZCL_AllocateAPduInstance>
    2642:	4604      	mov	r4, r0
    2644:	b920      	cbnz	r0, 2650 <vSendImmediateReport+0x20>
    2646:	4814      	ldr	r0, [pc, #80]	; (2698 <vSendImmediateReport+0x68>)
    2648:	f7ff fa34 	bl	1ab4 <DbgConsole_Printf>
    264c:	b006      	add	sp, #24
    264e:	bd70      	pop	{r4, r5, r6, pc}
    2650:	4601      	mov	r1, r0
    2652:	4812      	ldr	r0, [pc, #72]	; (269c <vSendImmediateReport+0x6c>)
    2654:	f7ff fa2e 	bl	1ab4 <DbgConsole_Printf>
    2658:	2306      	movs	r3, #6
    265a:	f88d 3008 	strb.w	r3, [sp, #8]
    265e:	2300      	movs	r3, #0
    2660:	f8ad 3010 	strh.w	r3, [sp, #16]
    2664:	2301      	movs	r3, #1
    2666:	4629      	mov	r1, r5
    2668:	9401      	str	r4, [sp, #4]
    266a:	9300      	str	r3, [sp, #0]
    266c:	4632      	mov	r2, r6
    266e:	a802      	add	r0, sp, #8
    2670:	f00e fd2c 	bl	110cc <eZCL_ReportAttribute>
    2674:	4605      	mov	r5, r0
    2676:	4601      	mov	r1, r0
    2678:	4809      	ldr	r0, [pc, #36]	; (26a0 <vSendImmediateReport+0x70>)
    267a:	f7ff fa1b 	bl	1ab4 <DbgConsole_Printf>
    267e:	b90d      	cbnz	r5, 2684 <vSendImmediateReport+0x54>
    2680:	4808      	ldr	r0, [pc, #32]	; (26a4 <vSendImmediateReport+0x74>)
    2682:	e7e1      	b.n	2648 <vSendImmediateReport+0x18>
    2684:	4808      	ldr	r0, [pc, #32]	; (26a8 <vSendImmediateReport+0x78>)
    2686:	f7ff fa15 	bl	1ab4 <DbgConsole_Printf>
    268a:	4620      	mov	r0, r4
    268c:	f013 fad4 	bl	15c38 <PDUM_eAPduFreeAPduInstance>
    2690:	e7dc      	b.n	264c <vSendImmediateReport+0x1c>
    2692:	bf00      	nop
    2694:	00037358 	.word	0x00037358
    2698:	00037379 	.word	0x00037379
    269c:	000373be 	.word	0x000373be
    26a0:	000373db 	.word	0x000373db
    26a4:	00037409 	.word	0x00037409
    26a8:	00037413 	.word	0x00037413

000026ac <BOARD_GetClock32MCapacitanceCharacteristics>:
    26ac:	4800      	ldr	r0, [pc, #0]	; (26b0 <BOARD_GetClock32MCapacitanceCharacteristics+0x4>)
    26ae:	4770      	bx	lr
    26b0:	0003741c 	.word	0x0003741c

000026b4 <BOARD_CpuClockUpdate32MhzFro>:
    26b4:	f04f 4380 	mov.w	r3, #1073741824	; 0x40000000
    26b8:	2203      	movs	r2, #3
    26ba:	4803      	ldr	r0, [pc, #12]	; (26c8 <BOARD_CpuClockUpdate32MhzFro+0x14>)
    26bc:	f8c3 2280 	str.w	r2, [r3, #640]	; 0x280
    26c0:	2100      	movs	r1, #0
    26c2:	f003 bfed 	b.w	66a0 <FLASH_SetReadMode>
    26c6:	bf00      	nop
    26c8:	40009000 	.word	0x40009000

000026cc <vStartAwakeTimer>:
    26cc:	4b03      	ldr	r3, [pc, #12]	; (26dc <vStartAwakeTimer+0x10>)
    26ce:	f44f 717a 	mov.w	r1, #1000	; 0x3e8
    26d2:	4341      	muls	r1, r0
    26d4:	7818      	ldrb	r0, [r3, #0]
    26d6:	f002 bd59 	b.w	518c <ZTIMER_eStart>
    26da:	bf00      	nop
    26dc:	040012a2 	.word	0x040012a2

000026e0 <vStartBlinkTimer>:
    26e0:	4b04      	ldr	r3, [pc, #16]	; (26f4 <vStartBlinkTimer+0x14>)
    26e2:	6018      	str	r0, [r3, #0]
    26e4:	4b04      	ldr	r3, [pc, #16]	; (26f8 <vStartBlinkTimer+0x18>)
    26e6:	2200      	movs	r2, #0
    26e8:	729a      	strb	r2, [r3, #10]
    26ea:	4b04      	ldr	r3, [pc, #16]	; (26fc <vStartBlinkTimer+0x1c>)
    26ec:	4601      	mov	r1, r0
    26ee:	7818      	ldrb	r0, [r3, #0]
    26f0:	f002 bd4c 	b.w	518c <ZTIMER_eStart>
    26f4:	0400544c 	.word	0x0400544c
    26f8:	40080000 	.word	0x40080000
    26fc:	040012a3 	.word	0x040012a3

00002700 <vStopBlinkTimer>:
    2700:	b508      	push	{r3, lr}
    2702:	4b05      	ldr	r3, [pc, #20]	; (2718 <vStopBlinkTimer+0x18>)
    2704:	7818      	ldrb	r0, [r3, #0]
    2706:	f002 fd6b 	bl	51e0 <ZTIMER_eStop>
    270a:	4b04      	ldr	r3, [pc, #16]	; (271c <vStopBlinkTimer+0x1c>)
    270c:	2200      	movs	r2, #0
    270e:	601a      	str	r2, [r3, #0]
    2710:	4b03      	ldr	r3, [pc, #12]	; (2720 <vStopBlinkTimer+0x20>)
    2712:	2201      	movs	r2, #1
    2714:	729a      	strb	r2, [r3, #10]
    2716:	bd08      	pop	{r3, pc}
    2718:	040012a3 	.word	0x040012a3
    271c:	0400544c 	.word	0x0400544c
    2720:	40080000 	.word	0x40080000

00002724 <vAPP_cbTimerAwake>:
    2724:	f7ff bfec 	b.w	2700 <vStopBlinkTimer>

00002728 <vToggleLED>:
    2728:	4b05      	ldr	r3, [pc, #20]	; (2740 <vToggleLED+0x18>)
    272a:	781a      	ldrb	r2, [r3, #0]
    272c:	2a00      	cmp	r2, #0
    272e:	bf0c      	ite	eq
    2730:	2101      	moveq	r1, #1
    2732:	2100      	movne	r1, #0
    2734:	7019      	strb	r1, [r3, #0]
    2736:	4b03      	ldr	r3, [pc, #12]	; (2744 <vToggleLED+0x1c>)
    2738:	bf18      	it	ne
    273a:	2201      	movne	r2, #1
    273c:	729a      	strb	r2, [r3, #10]
    273e:	4770      	bx	lr
    2740:	04005448 	.word	0x04005448
    2744:	40080000 	.word	0x40080000

00002748 <vAPP_cbBlinkLED>:
    2748:	b508      	push	{r3, lr}
    274a:	4b06      	ldr	r3, [pc, #24]	; (2764 <vAPP_cbBlinkLED+0x1c>)
    274c:	6818      	ldr	r0, [r3, #0]
    274e:	b140      	cbz	r0, 2762 <vAPP_cbBlinkLED+0x1a>
    2750:	f7ff ffea 	bl	2728 <vToggleLED>
    2754:	4b04      	ldr	r3, [pc, #16]	; (2768 <vAPP_cbBlinkLED+0x20>)
    2756:	4601      	mov	r1, r0
    2758:	7818      	ldrb	r0, [r3, #0]
    275a:	e8bd 4008 	ldmia.w	sp!, {r3, lr}
    275e:	f002 bd15 	b.w	518c <ZTIMER_eStart>
    2762:	bd08      	pop	{r3, pc}
    2764:	0400544c 	.word	0x0400544c
    2768:	040012a3 	.word	0x040012a3

0000276c <UARTLINKY_vInit>:
    276c:	b51f      	push	{r0, r1, r2, r3, r4, lr}
    276e:	4668      	mov	r0, sp
    2770:	f003 fd08 	bl	6184 <USART_GetDefaultConfig>
    2774:	f44f 5316 	mov.w	r3, #9600	; 0x2580
    2778:	9300      	str	r3, [sp, #0]
    277a:	2301      	movs	r3, #1
    277c:	f8ad 3008 	strh.w	r3, [sp, #8]
    2780:	2300      	movs	r3, #0
    2782:	f88d 3006 	strb.w	r3, [sp, #6]
    2786:	480a      	ldr	r0, [pc, #40]	; (27b0 <UARTLINKY_vInit+0x44>)
    2788:	4c0a      	ldr	r4, [pc, #40]	; (27b4 <UARTLINKY_vInit+0x48>)
    278a:	2302      	movs	r3, #2
    278c:	f88d 3004 	strb.w	r3, [sp, #4]
    2790:	f003 fa0e 	bl	5bb0 <CLOCK_GetFreq>
    2794:	4669      	mov	r1, sp
    2796:	4602      	mov	r2, r0
    2798:	4620      	mov	r0, r4
    279a:	f003 fd63 	bl	6264 <USART_Init>
    279e:	230a      	movs	r3, #10
    27a0:	f8c4 3e10 	str.w	r3, [r4, #3600]	; 0xe10
    27a4:	4b04      	ldr	r3, [pc, #16]	; (27b8 <UARTLINKY_vInit+0x4c>)
    27a6:	f44f 5280 	mov.w	r2, #4096	; 0x1000
    27aa:	601a      	str	r2, [r3, #0]
    27ac:	b004      	add	sp, #16
    27ae:	bd10      	pop	{r4, pc}
    27b0:	00010008 	.word	0x00010008
    27b4:	4008c000 	.word	0x4008c000
    27b8:	e000e100 	.word	0xe000e100

000027bc <UARTLINKY_vDeInit>:
    27bc:	b510      	push	{r4, lr}
    27be:	4c04      	ldr	r4, [pc, #16]	; (27d0 <UARTLINKY_vDeInit+0x14>)
    27c0:	4620      	mov	r0, r4
    27c2:	f003 fcbf 	bl	6144 <USART_Deinit>
    27c6:	230a      	movs	r3, #10
    27c8:	f8c4 3e14 	str.w	r3, [r4, #3604]	; 0xe14
    27cc:	bd10      	pop	{r4, pc}
    27ce:	bf00      	nop
    27d0:	4008c000 	.word	0x4008c000

000027d4 <UARTLINKY_vSetBaudRate>:
    27d4:	b510      	push	{r4, lr}
    27d6:	4604      	mov	r4, r0
    27d8:	4807      	ldr	r0, [pc, #28]	; (27f8 <UARTLINKY_vSetBaudRate+0x24>)
    27da:	f003 f9e9 	bl	5bb0 <CLOCK_GetFreq>
    27de:	4621      	mov	r1, r4
    27e0:	4602      	mov	r2, r0
    27e2:	4806      	ldr	r0, [pc, #24]	; (27fc <UARTLINKY_vSetBaudRate+0x28>)
    27e4:	f003 fcec 	bl	61c0 <USART_SetBaudRate>
    27e8:	b120      	cbz	r0, 27f4 <UARTLINKY_vSetBaudRate+0x20>
    27ea:	e8bd 4010 	ldmia.w	sp!, {r4, lr}
    27ee:	4804      	ldr	r0, [pc, #16]	; (2800 <UARTLINKY_vSetBaudRate+0x2c>)
    27f0:	f7ff b960 	b.w	1ab4 <DbgConsole_Printf>
    27f4:	bd10      	pop	{r4, pc}
    27f6:	bf00      	nop
    27f8:	00010008 	.word	0x00010008
    27fc:	4008c000 	.word	0x4008c000
    2800:	00037428 	.word	0x00037428

00002804 <FLEXCOMM1_IRQHandler>:
    2804:	4b0a      	ldr	r3, [pc, #40]	; (2830 <FLEXCOMM1_IRQHandler+0x2c>)
    2806:	b507      	push	{r0, r1, r2, lr}
    2808:	f8d3 2e04 	ldr.w	r2, [r3, #3588]	; 0xe04
    280c:	f012 0f42 	tst.w	r2, #66	; 0x42
    2810:	d00b      	beq.n	282a <FLEXCOMM1_IRQHandler+0x26>
    2812:	2202      	movs	r2, #2
    2814:	f8c3 2e04 	str.w	r2, [r3, #3588]	; 0xe04
    2818:	f8d3 3e30 	ldr.w	r3, [r3, #3632]	; 0xe30
    281c:	4805      	ldr	r0, [pc, #20]	; (2834 <FLEXCOMM1_IRQHandler+0x30>)
    281e:	f88d 3007 	strb.w	r3, [sp, #7]
    2822:	f10d 0107 	add.w	r1, sp, #7
    2826:	f002 fbe0 	bl	4fea <ZQ_bQueueSend>
    282a:	b003      	add	sp, #12
    282c:	f85d fb04 	ldr.w	pc, [sp], #4
    2830:	4008c000 	.word	0x4008c000
    2834:	04001120 	.word	0x04001120

00002838 <bSL_ReadMessageStandard>:
    2838:	e92d 41f0 	stmdb	sp!, {r4, r5, r6, r7, r8, lr}
    283c:	f89d 5018 	ldrb.w	r5, [sp, #24]
    2840:	4f53      	ldr	r7, [pc, #332]	; (2990 <bSL_ReadMessageStandard+0x158>)
    2842:	2d0a      	cmp	r5, #10
    2844:	4608      	mov	r0, r1
    2846:	4616      	mov	r6, r2
    2848:	4698      	mov	r8, r3
    284a:	d014      	beq.n	2876 <bSL_ReadMessageStandard+0x3e>
    284c:	2d0d      	cmp	r5, #13
    284e:	d02e      	beq.n	28ae <bSL_ReadMessageStandard+0x76>
    2850:	2d09      	cmp	r5, #9
    2852:	d160      	bne.n	2916 <bSL_ReadMessageStandard+0xde>
    2854:	783c      	ldrb	r4, [r7, #0]
    2856:	b33c      	cbz	r4, 28a8 <bSL_ReadMessageStandard+0x70>
    2858:	4a4e      	ldr	r2, [pc, #312]	; (2994 <bSL_ReadMessageStandard+0x15c>)
    285a:	7813      	ldrb	r3, [r2, #0]
    285c:	3301      	adds	r3, #1
    285e:	7013      	strb	r3, [r2, #0]
    2860:	4a4d      	ldr	r2, [pc, #308]	; (2998 <bSL_ReadMessageStandard+0x160>)
    2862:	4b4e      	ldr	r3, [pc, #312]	; (299c <bSL_ReadMessageStandard+0x164>)
    2864:	2400      	movs	r4, #0
    2866:	801c      	strh	r4, [r3, #0]
    2868:	7813      	ldrb	r3, [r2, #0]
    286a:	3309      	adds	r3, #9
    286c:	b2db      	uxtb	r3, r3
    286e:	7013      	strb	r3, [r2, #0]
    2870:	4a4b      	ldr	r2, [pc, #300]	; (29a0 <bSL_ReadMessageStandard+0x168>)
    2872:	7013      	strb	r3, [r2, #0]
    2874:	e018      	b.n	28a8 <bSL_ReadMessageStandard+0x70>
    2876:	4b4a      	ldr	r3, [pc, #296]	; (29a0 <bSL_ReadMessageStandard+0x168>)
    2878:	2400      	movs	r4, #0
    287a:	701c      	strb	r4, [r3, #0]
    287c:	4b46      	ldr	r3, [pc, #280]	; (2998 <bSL_ReadMessageStandard+0x160>)
    287e:	4622      	mov	r2, r4
    2880:	4621      	mov	r1, r4
    2882:	701c      	strb	r4, [r3, #0]
    2884:	f033 f87c 	bl	35980 <memset>
    2888:	4622      	mov	r2, r4
    288a:	4621      	mov	r1, r4
    288c:	4630      	mov	r0, r6
    288e:	f033 f877 	bl	35980 <memset>
    2892:	4622      	mov	r2, r4
    2894:	4621      	mov	r1, r4
    2896:	4640      	mov	r0, r8
    2898:	f033 f872 	bl	35980 <memset>
    289c:	2301      	movs	r3, #1
    289e:	703b      	strb	r3, [r7, #0]
    28a0:	4b3c      	ldr	r3, [pc, #240]	; (2994 <bSL_ReadMessageStandard+0x15c>)
    28a2:	701c      	strb	r4, [r3, #0]
    28a4:	4b3d      	ldr	r3, [pc, #244]	; (299c <bSL_ReadMessageStandard+0x164>)
    28a6:	801c      	strh	r4, [r3, #0]
    28a8:	4620      	mov	r0, r4
    28aa:	e8bd 81f0 	ldmia.w	sp!, {r4, r5, r6, r7, r8, pc}
    28ae:	783c      	ldrb	r4, [r7, #0]
    28b0:	2c00      	cmp	r4, #0
    28b2:	d0f9      	beq.n	28a8 <bSL_ReadMessageStandard+0x70>
    28b4:	4b37      	ldr	r3, [pc, #220]	; (2994 <bSL_ReadMessageStandard+0x15c>)
    28b6:	781b      	ldrb	r3, [r3, #0]
    28b8:	2b02      	cmp	r3, #2
    28ba:	d116      	bne.n	28ea <bSL_ReadMessageStandard+0xb2>
    28bc:	4b38      	ldr	r3, [pc, #224]	; (29a0 <bSL_ReadMessageStandard+0x168>)
    28be:	781a      	ldrb	r2, [r3, #0]
    28c0:	f002 023f 	and.w	r2, r2, #63	; 0x3f
    28c4:	3220      	adds	r2, #32
    28c6:	701a      	strb	r2, [r3, #0]
    28c8:	4b36      	ldr	r3, [pc, #216]	; (29a4 <bSL_ReadMessageStandard+0x16c>)
    28ca:	781b      	ldrb	r3, [r3, #0]
    28cc:	429a      	cmp	r2, r3
    28ce:	d106      	bne.n	28de <bSL_ReadMessageStandard+0xa6>
    28d0:	f44f 7280 	mov.w	r2, #256	; 0x100
    28d4:	4631      	mov	r1, r6
    28d6:	4640      	mov	r0, r8
    28d8:	f032 ffb8 	bl	3584c <memcpy>
    28dc:	e7e4      	b.n	28a8 <bSL_ReadMessageStandard+0x70>
    28de:	4832      	ldr	r0, [pc, #200]	; (29a8 <bSL_ReadMessageStandard+0x170>)
    28e0:	2400      	movs	r4, #0
    28e2:	f7ff f8e7 	bl	1ab4 <DbgConsole_Printf>
    28e6:	703c      	strb	r4, [r7, #0]
    28e8:	e7de      	b.n	28a8 <bSL_ReadMessageStandard+0x70>
    28ea:	2b03      	cmp	r3, #3
    28ec:	d14e      	bne.n	298c <bSL_ReadMessageStandard+0x154>
    28ee:	4b2a      	ldr	r3, [pc, #168]	; (2998 <bSL_ReadMessageStandard+0x160>)
    28f0:	781d      	ldrb	r5, [r3, #0]
    28f2:	f005 053f 	and.w	r5, r5, #63	; 0x3f
    28f6:	f105 0220 	add.w	r2, r5, #32
    28fa:	701a      	strb	r2, [r3, #0]
    28fc:	4b29      	ldr	r3, [pc, #164]	; (29a4 <bSL_ReadMessageStandard+0x16c>)
    28fe:	781b      	ldrb	r3, [r3, #0]
    2900:	429a      	cmp	r2, r3
    2902:	d106      	bne.n	2912 <bSL_ReadMessageStandard+0xda>
    2904:	4929      	ldr	r1, [pc, #164]	; (29ac <bSL_ReadMessageStandard+0x174>)
    2906:	2204      	movs	r2, #4
    2908:	f032 ff70 	bl	357ec <memcmp>
    290c:	2800      	cmp	r0, #0
    290e:	d1cb      	bne.n	28a8 <bSL_ReadMessageStandard+0x70>
    2910:	e7de      	b.n	28d0 <bSL_ReadMessageStandard+0x98>
    2912:	4827      	ldr	r0, [pc, #156]	; (29b0 <bSL_ReadMessageStandard+0x178>)
    2914:	e7e4      	b.n	28e0 <bSL_ReadMessageStandard+0xa8>
    2916:	783c      	ldrb	r4, [r7, #0]
    2918:	2c00      	cmp	r4, #0
    291a:	d0c5      	beq.n	28a8 <bSL_ReadMessageStandard+0x70>
    291c:	4b1d      	ldr	r3, [pc, #116]	; (2994 <bSL_ReadMessageStandard+0x15c>)
    291e:	781c      	ldrb	r4, [r3, #0]
    2920:	b974      	cbnz	r4, 2940 <bSL_ReadMessageStandard+0x108>
    2922:	491e      	ldr	r1, [pc, #120]	; (299c <bSL_ReadMessageStandard+0x164>)
    2924:	880b      	ldrh	r3, [r1, #0]
    2926:	1c5a      	adds	r2, r3, #1
    2928:	b292      	uxth	r2, r2
    292a:	800a      	strh	r2, [r1, #0]
    292c:	491a      	ldr	r1, [pc, #104]	; (2998 <bSL_ReadMessageStandard+0x160>)
    292e:	54c5      	strb	r5, [r0, r3]
    2930:	780b      	ldrb	r3, [r1, #0]
    2932:	5484      	strb	r4, [r0, r2]
    2934:	441d      	add	r5, r3
    2936:	4b1a      	ldr	r3, [pc, #104]	; (29a0 <bSL_ReadMessageStandard+0x168>)
    2938:	b2ed      	uxtb	r5, r5
    293a:	700d      	strb	r5, [r1, #0]
    293c:	701d      	strb	r5, [r3, #0]
    293e:	e7b3      	b.n	28a8 <bSL_ReadMessageStandard+0x70>
    2940:	2c01      	cmp	r4, #1
    2942:	d10f      	bne.n	2964 <bSL_ReadMessageStandard+0x12c>
    2944:	4a15      	ldr	r2, [pc, #84]	; (299c <bSL_ReadMessageStandard+0x164>)
    2946:	8813      	ldrh	r3, [r2, #0]
    2948:	1c58      	adds	r0, r3, #1
    294a:	b280      	uxth	r0, r0
    294c:	8010      	strh	r0, [r2, #0]
    294e:	4a12      	ldr	r2, [pc, #72]	; (2998 <bSL_ReadMessageStandard+0x160>)
    2950:	54f5      	strb	r5, [r6, r3]
    2952:	7813      	ldrb	r3, [r2, #0]
    2954:	441d      	add	r5, r3
    2956:	4b12      	ldr	r3, [pc, #72]	; (29a0 <bSL_ReadMessageStandard+0x168>)
    2958:	b2ed      	uxtb	r5, r5
    295a:	2400      	movs	r4, #0
    295c:	5434      	strb	r4, [r6, r0]
    295e:	7015      	strb	r5, [r2, #0]
    2960:	701d      	strb	r5, [r3, #0]
    2962:	e7a1      	b.n	28a8 <bSL_ReadMessageStandard+0x70>
    2964:	2c02      	cmp	r4, #2
    2966:	480f      	ldr	r0, [pc, #60]	; (29a4 <bSL_ReadMessageStandard+0x16c>)
    2968:	d10f      	bne.n	298a <bSL_ReadMessageStandard+0x152>
    296a:	490c      	ldr	r1, [pc, #48]	; (299c <bSL_ReadMessageStandard+0x164>)
    296c:	7005      	strb	r5, [r0, #0]
    296e:	880a      	ldrh	r2, [r1, #0]
    2970:	1c53      	adds	r3, r2, #1
    2972:	b29b      	uxth	r3, r3
    2974:	800b      	strh	r3, [r1, #0]
    2976:	4908      	ldr	r1, [pc, #32]	; (2998 <bSL_ReadMessageStandard+0x160>)
    2978:	f808 5002 	strb.w	r5, [r8, r2]
    297c:	780a      	ldrb	r2, [r1, #0]
    297e:	2400      	movs	r4, #0
    2980:	442a      	add	r2, r5
    2982:	f808 4003 	strb.w	r4, [r8, r3]
    2986:	700a      	strb	r2, [r1, #0]
    2988:	e78e      	b.n	28a8 <bSL_ReadMessageStandard+0x70>
    298a:	7005      	strb	r5, [r0, #0]
    298c:	2400      	movs	r4, #0
    298e:	e78b      	b.n	28a8 <bSL_ReadMessageStandard+0x70>
    2990:	04005456 	.word	0x04005456
    2994:	04005454 	.word	0x04005454
    2998:	0400545c 	.word	0x0400545c
    299c:	04005450 	.word	0x04005450
    29a0:	0400545a 	.word	0x0400545a
    29a4:	04005458 	.word	0x04005458
    29a8:	00037444 	.word	0x00037444
    29ac:	00037471 	.word	0x00037471
    29b0:	00037476 	.word	0x00037476

000029b4 <bSL_ReadMessageHisto>:
    29b4:	2b0d      	cmp	r3, #13
    29b6:	b5f8      	push	{r3, r4, r5, r6, r7, lr}
    29b8:	4e36      	ldr	r6, [pc, #216]	; (2a94 <bSL_ReadMessageHisto+0xe0>)
    29ba:	460f      	mov	r7, r1
    29bc:	4615      	mov	r5, r2
    29be:	d018      	beq.n	29f2 <bSL_ReadMessageHisto+0x3e>
    29c0:	2b20      	cmp	r3, #32
    29c2:	d02c      	beq.n	2a1e <bSL_ReadMessageHisto+0x6a>
    29c4:	2b0a      	cmp	r3, #10
    29c6:	d140      	bne.n	2a4a <bSL_ReadMessageHisto+0x96>
    29c8:	2400      	movs	r4, #0
    29ca:	4b33      	ldr	r3, [pc, #204]	; (2a98 <bSL_ReadMessageHisto+0xe4>)
    29cc:	4622      	mov	r2, r4
    29ce:	4621      	mov	r1, r4
    29d0:	4638      	mov	r0, r7
    29d2:	701c      	strb	r4, [r3, #0]
    29d4:	f032 ffd4 	bl	35980 <memset>
    29d8:	4622      	mov	r2, r4
    29da:	4621      	mov	r1, r4
    29dc:	4628      	mov	r0, r5
    29de:	f032 ffcf 	bl	35980 <memset>
    29e2:	2301      	movs	r3, #1
    29e4:	7033      	strb	r3, [r6, #0]
    29e6:	4b2d      	ldr	r3, [pc, #180]	; (2a9c <bSL_ReadMessageHisto+0xe8>)
    29e8:	701c      	strb	r4, [r3, #0]
    29ea:	4b2d      	ldr	r3, [pc, #180]	; (2aa0 <bSL_ReadMessageHisto+0xec>)
    29ec:	801c      	strh	r4, [r3, #0]
    29ee:	2000      	movs	r0, #0
    29f0:	e014      	b.n	2a1c <bSL_ReadMessageHisto+0x68>
    29f2:	7830      	ldrb	r0, [r6, #0]
    29f4:	b190      	cbz	r0, 2a1c <bSL_ReadMessageHisto+0x68>
    29f6:	4b29      	ldr	r3, [pc, #164]	; (2a9c <bSL_ReadMessageHisto+0xe8>)
    29f8:	781b      	ldrb	r3, [r3, #0]
    29fa:	2b01      	cmp	r3, #1
    29fc:	d9f7      	bls.n	29ee <bSL_ReadMessageHisto+0x3a>
    29fe:	4b26      	ldr	r3, [pc, #152]	; (2a98 <bSL_ReadMessageHisto+0xe4>)
    2a00:	7819      	ldrb	r1, [r3, #0]
    2a02:	f001 013f 	and.w	r1, r1, #63	; 0x3f
    2a06:	3120      	adds	r1, #32
    2a08:	7019      	strb	r1, [r3, #0]
    2a0a:	4b26      	ldr	r3, [pc, #152]	; (2aa4 <bSL_ReadMessageHisto+0xf0>)
    2a0c:	781a      	ldrb	r2, [r3, #0]
    2a0e:	4291      	cmp	r1, r2
    2a10:	d004      	beq.n	2a1c <bSL_ReadMessageHisto+0x68>
    2a12:	4825      	ldr	r0, [pc, #148]	; (2aa8 <bSL_ReadMessageHisto+0xf4>)
    2a14:	f7ff f84e 	bl	1ab4 <DbgConsole_Printf>
    2a18:	2000      	movs	r0, #0
    2a1a:	7030      	strb	r0, [r6, #0]
    2a1c:	bdf8      	pop	{r3, r4, r5, r6, r7, pc}
    2a1e:	7830      	ldrb	r0, [r6, #0]
    2a20:	2800      	cmp	r0, #0
    2a22:	d0fb      	beq.n	2a1c <bSL_ReadMessageHisto+0x68>
    2a24:	491d      	ldr	r1, [pc, #116]	; (2a9c <bSL_ReadMessageHisto+0xe8>)
    2a26:	780a      	ldrb	r2, [r1, #0]
    2a28:	3201      	adds	r2, #1
    2a2a:	b2d2      	uxtb	r2, r2
    2a2c:	2a01      	cmp	r2, #1
    2a2e:	700a      	strb	r2, [r1, #0]
    2a30:	bf98      	it	ls
    2a32:	4a19      	ldrls	r2, [pc, #100]	; (2a98 <bSL_ReadMessageHisto+0xe4>)
    2a34:	491a      	ldr	r1, [pc, #104]	; (2aa0 <bSL_ReadMessageHisto+0xec>)
    2a36:	bf94      	ite	ls
    2a38:	7813      	ldrbls	r3, [r2, #0]
    2a3a:	4a1a      	ldrhi	r2, [pc, #104]	; (2aa4 <bSL_ReadMessageHisto+0xf0>)
    2a3c:	f04f 0000 	mov.w	r0, #0
    2a40:	bf98      	it	ls
    2a42:	3320      	addls	r3, #32
    2a44:	8008      	strh	r0, [r1, #0]
    2a46:	7013      	strb	r3, [r2, #0]
    2a48:	e7e8      	b.n	2a1c <bSL_ReadMessageHisto+0x68>
    2a4a:	7830      	ldrb	r0, [r6, #0]
    2a4c:	2800      	cmp	r0, #0
    2a4e:	d0e5      	beq.n	2a1c <bSL_ReadMessageHisto+0x68>
    2a50:	4a12      	ldr	r2, [pc, #72]	; (2a9c <bSL_ReadMessageHisto+0xe8>)
    2a52:	7811      	ldrb	r1, [r2, #0]
    2a54:	b959      	cbnz	r1, 2a6e <bSL_ReadMessageHisto+0xba>
    2a56:	4c12      	ldr	r4, [pc, #72]	; (2aa0 <bSL_ReadMessageHisto+0xec>)
    2a58:	8820      	ldrh	r0, [r4, #0]
    2a5a:	1c42      	adds	r2, r0, #1
    2a5c:	b292      	uxth	r2, r2
    2a5e:	8022      	strh	r2, [r4, #0]
    2a60:	4c0d      	ldr	r4, [pc, #52]	; (2a98 <bSL_ReadMessageHisto+0xe4>)
    2a62:	543b      	strb	r3, [r7, r0]
    2a64:	7820      	ldrb	r0, [r4, #0]
    2a66:	54b9      	strb	r1, [r7, r2]
    2a68:	4403      	add	r3, r0
    2a6a:	7023      	strb	r3, [r4, #0]
    2a6c:	e7bf      	b.n	29ee <bSL_ReadMessageHisto+0x3a>
    2a6e:	2901      	cmp	r1, #1
    2a70:	d10c      	bne.n	2a8c <bSL_ReadMessageHisto+0xd8>
    2a72:	480b      	ldr	r0, [pc, #44]	; (2aa0 <bSL_ReadMessageHisto+0xec>)
    2a74:	8801      	ldrh	r1, [r0, #0]
    2a76:	1c4a      	adds	r2, r1, #1
    2a78:	b292      	uxth	r2, r2
    2a7a:	8002      	strh	r2, [r0, #0]
    2a7c:	4806      	ldr	r0, [pc, #24]	; (2a98 <bSL_ReadMessageHisto+0xe4>)
    2a7e:	546b      	strb	r3, [r5, r1]
    2a80:	7801      	ldrb	r1, [r0, #0]
    2a82:	440b      	add	r3, r1
    2a84:	7003      	strb	r3, [r0, #0]
    2a86:	2000      	movs	r0, #0
    2a88:	54a8      	strb	r0, [r5, r2]
    2a8a:	e7c7      	b.n	2a1c <bSL_ReadMessageHisto+0x68>
    2a8c:	4a05      	ldr	r2, [pc, #20]	; (2aa4 <bSL_ReadMessageHisto+0xf0>)
    2a8e:	7013      	strb	r3, [r2, #0]
    2a90:	e7ad      	b.n	29ee <bSL_ReadMessageHisto+0x3a>
    2a92:	bf00      	nop
    2a94:	04005457 	.word	0x04005457
    2a98:	0400545b 	.word	0x0400545b
    2a9c:	04005455 	.word	0x04005455
    2aa0:	04005452 	.word	0x04005452
    2aa4:	04005459 	.word	0x04005459
    2aa8:	000374ae 	.word	0x000374ae

00002aac <trim>:
    2aac:	b538      	push	{r3, r4, r5, lr}
    2aae:	4604      	mov	r4, r0
    2ab0:	4625      	mov	r5, r4
    2ab2:	f814 0b01 	ldrb.w	r0, [r4], #1
    2ab6:	f032 fe91 	bl	357dc <isspace>
    2aba:	2800      	cmp	r0, #0
    2abc:	d1f8      	bne.n	2ab0 <trim+0x4>
    2abe:	4628      	mov	r0, r5
    2ac0:	f032 ffbe 	bl	35a40 <strlen>
    2ac4:	1e44      	subs	r4, r0, #1
    2ac6:	5d28      	ldrb	r0, [r5, r4]
    2ac8:	f032 fe88 	bl	357dc <isspace>
    2acc:	b918      	cbnz	r0, 2ad6 <trim+0x2a>
    2ace:	442c      	add	r4, r5
    2ad0:	7060      	strb	r0, [r4, #1]
    2ad2:	4628      	mov	r0, r5
    2ad4:	bd38      	pop	{r3, r4, r5, pc}
    2ad6:	3c01      	subs	r4, #1
    2ad8:	e7f5      	b.n	2ac6 <trim+0x1a>
    2ada:	Address 0x00002ada is out of bounds.


00002adc <APP_vProcessRxDataStandard>:
    2adc:	b530      	push	{r4, r5, lr}
    2ade:	4d9c      	ldr	r5, [pc, #624]	; (2d50 <APP_vProcessRxDataStandard+0x274>)
    2ae0:	782b      	ldrb	r3, [r5, #0]
    2ae2:	2b01      	cmp	r3, #1
    2ae4:	b085      	sub	sp, #20
    2ae6:	f200 867e 	bhi.w	37e6 <APP_vProcessRxDataStandard+0xd0a>
    2aea:	4c9a      	ldr	r4, [pc, #616]	; (2d54 <APP_vProcessRxDataStandard+0x278>)
    2aec:	4b9a      	ldr	r3, [pc, #616]	; (2d58 <APP_vProcessRxDataStandard+0x27c>)
    2aee:	6822      	ldr	r2, [r4, #0]
    2af0:	429a      	cmp	r2, r3
    2af2:	f200 867b 	bhi.w	37ec <APP_vProcessRxDataStandard+0xd10>
    2af6:	4899      	ldr	r0, [pc, #612]	; (2d5c <APP_vProcessRxDataStandard+0x280>)
    2af8:	f10d 010f 	add.w	r1, sp, #15
    2afc:	f002 fa9a 	bl	5034 <ZQ_bQueueReceive>
    2b00:	2800      	cmp	r0, #0
    2b02:	f000 866b 	beq.w	37dc <APP_vProcessRxDataStandard+0xd00>
    2b06:	f89d 300f 	ldrb.w	r3, [sp, #15]
    2b0a:	9300      	str	r3, [sp, #0]
    2b0c:	4a94      	ldr	r2, [pc, #592]	; (2d60 <APP_vProcessRxDataStandard+0x284>)
    2b0e:	4b95      	ldr	r3, [pc, #596]	; (2d64 <APP_vProcessRxDataStandard+0x288>)
    2b10:	4995      	ldr	r1, [pc, #596]	; (2d68 <APP_vProcessRxDataStandard+0x28c>)
    2b12:	f44f 7087 	mov.w	r0, #270	; 0x10e
    2b16:	f7ff fe8f 	bl	2838 <bSL_ReadMessageStandard>
    2b1a:	b1c0      	cbz	r0, 2b4e <APP_vProcessRxDataStandard+0x72>
    2b1c:	2300      	movs	r3, #0
    2b1e:	4993      	ldr	r1, [pc, #588]	; (2d6c <APP_vProcessRxDataStandard+0x290>)
    2b20:	4891      	ldr	r0, [pc, #580]	; (2d68 <APP_vProcessRxDataStandard+0x28c>)
    2b22:	6023      	str	r3, [r4, #0]
    2b24:	2204      	movs	r2, #4
    2b26:	f032 fe61 	bl	357ec <memcmp>
    2b2a:	b9b0      	cbnz	r0, 2b5a <APP_vProcessRxDataStandard+0x7e>
    2b2c:	4c90      	ldr	r4, [pc, #576]	; (2d70 <APP_vProcessRxDataStandard+0x294>)
    2b2e:	498d      	ldr	r1, [pc, #564]	; (2d64 <APP_vProcessRxDataStandard+0x288>)
    2b30:	4890      	ldr	r0, [pc, #576]	; (2d74 <APP_vProcessRxDataStandard+0x298>)
    2b32:	f7fe ffbf 	bl	1ab4 <DbgConsole_Printf>
    2b36:	498b      	ldr	r1, [pc, #556]	; (2d64 <APP_vProcessRxDataStandard+0x288>)
    2b38:	f8d4 0370 	ldr.w	r0, [r4, #880]	; 0x370
    2b3c:	220c      	movs	r2, #12
    2b3e:	f032 fe85 	bl	3584c <memcpy>
    2b42:	230c      	movs	r3, #12
    2b44:	f884 336d 	strb.w	r3, [r4, #877]	; 0x36d
    2b48:	782b      	ldrb	r3, [r5, #0]
    2b4a:	3301      	adds	r3, #1
    2b4c:	702b      	strb	r3, [r5, #0]
    2b4e:	488a      	ldr	r0, [pc, #552]	; (2d78 <APP_vProcessRxDataStandard+0x29c>)
    2b50:	f002 fe04 	bl	575c <WWDT_Refresh>
    2b54:	2000      	movs	r0, #0
    2b56:	b005      	add	sp, #20
    2b58:	bd30      	pop	{r4, r5, pc}
    2b5a:	4988      	ldr	r1, [pc, #544]	; (2d7c <APP_vProcessRxDataStandard+0x2a0>)
    2b5c:	4882      	ldr	r0, [pc, #520]	; (2d68 <APP_vProcessRxDataStandard+0x28c>)
    2b5e:	2204      	movs	r2, #4
    2b60:	f032 fe44 	bl	357ec <memcmp>
    2b64:	b960      	cbnz	r0, 2b80 <APP_vProcessRxDataStandard+0xa4>
    2b66:	487f      	ldr	r0, [pc, #508]	; (2d64 <APP_vProcessRxDataStandard+0x288>)
    2b68:	f7ff ffa0 	bl	2aac <trim>
    2b6c:	4601      	mov	r1, r0
    2b6e:	4884      	ldr	r0, [pc, #528]	; (2d80 <APP_vProcessRxDataStandard+0x2a4>)
    2b70:	f7fe ffa0 	bl	1ab4 <DbgConsole_Printf>
    2b74:	497b      	ldr	r1, [pc, #492]	; (2d64 <APP_vProcessRxDataStandard+0x288>)
    2b76:	4883      	ldr	r0, [pc, #524]	; (2d84 <APP_vProcessRxDataStandard+0x2a8>)
    2b78:	2210      	movs	r2, #16
    2b7a:	f032 fe67 	bl	3584c <memcpy>
    2b7e:	e7e6      	b.n	2b4e <APP_vProcessRxDataStandard+0x72>
    2b80:	4981      	ldr	r1, [pc, #516]	; (2d88 <APP_vProcessRxDataStandard+0x2ac>)
    2b82:	4879      	ldr	r0, [pc, #484]	; (2d68 <APP_vProcessRxDataStandard+0x28c>)
    2b84:	2205      	movs	r2, #5
    2b86:	f032 fe31 	bl	357ec <memcmp>
    2b8a:	b950      	cbnz	r0, 2ba2 <APP_vProcessRxDataStandard+0xc6>
    2b8c:	4875      	ldr	r0, [pc, #468]	; (2d64 <APP_vProcessRxDataStandard+0x288>)
    2b8e:	f7ff ff8d 	bl	2aac <trim>
    2b92:	4601      	mov	r1, r0
    2b94:	487d      	ldr	r0, [pc, #500]	; (2d8c <APP_vProcessRxDataStandard+0x2b0>)
    2b96:	f7fe ff8d 	bl	1ab4 <DbgConsole_Printf>
    2b9a:	4972      	ldr	r1, [pc, #456]	; (2d64 <APP_vProcessRxDataStandard+0x288>)
    2b9c:	487c      	ldr	r0, [pc, #496]	; (2d90 <APP_vProcessRxDataStandard+0x2b4>)
    2b9e:	2210      	movs	r2, #16
    2ba0:	e7eb      	b.n	2b7a <APP_vProcessRxDataStandard+0x9e>
    2ba2:	497c      	ldr	r1, [pc, #496]	; (2d94 <APP_vProcessRxDataStandard+0x2b8>)
    2ba4:	4870      	ldr	r0, [pc, #448]	; (2d68 <APP_vProcessRxDataStandard+0x28c>)
    2ba6:	2205      	movs	r2, #5
    2ba8:	f032 fe20 	bl	357ec <memcmp>
    2bac:	b968      	cbnz	r0, 2bca <APP_vProcessRxDataStandard+0xee>
    2bae:	486d      	ldr	r0, [pc, #436]	; (2d64 <APP_vProcessRxDataStandard+0x288>)
    2bb0:	f7ff ff7c 	bl	2aac <trim>
    2bb4:	4601      	mov	r1, r0
    2bb6:	4878      	ldr	r0, [pc, #480]	; (2d98 <APP_vProcessRxDataStandard+0x2bc>)
    2bb8:	f7fe ff7c 	bl	1ab4 <DbgConsole_Printf>
    2bbc:	4869      	ldr	r0, [pc, #420]	; (2d64 <APP_vProcessRxDataStandard+0x288>)
    2bbe:	f032 fe05 	bl	357cc <atoi>
    2bc2:	4b6b      	ldr	r3, [pc, #428]	; (2d70 <APP_vProcessRxDataStandard+0x294>)
    2bc4:	f883 0624 	strb.w	r0, [r3, #1572]	; 0x624
    2bc8:	e7c1      	b.n	2b4e <APP_vProcessRxDataStandard+0x72>
    2bca:	4974      	ldr	r1, [pc, #464]	; (2d9c <APP_vProcessRxDataStandard+0x2c0>)
    2bcc:	4866      	ldr	r0, [pc, #408]	; (2d68 <APP_vProcessRxDataStandard+0x28c>)
    2bce:	2204      	movs	r2, #4
    2bd0:	f032 fe0c 	bl	357ec <memcmp>
    2bd4:	b950      	cbnz	r0, 2bec <APP_vProcessRxDataStandard+0x110>
    2bd6:	4963      	ldr	r1, [pc, #396]	; (2d64 <APP_vProcessRxDataStandard+0x288>)
    2bd8:	4871      	ldr	r0, [pc, #452]	; (2da0 <APP_vProcessRxDataStandard+0x2c4>)
    2bda:	f7fe ff6b 	bl	1ab4 <DbgConsole_Printf>
    2bde:	4861      	ldr	r0, [pc, #388]	; (2d64 <APP_vProcessRxDataStandard+0x288>)
    2be0:	f032 fdf4 	bl	357cc <atoi>
    2be4:	4b62      	ldr	r3, [pc, #392]	; (2d70 <APP_vProcessRxDataStandard+0x294>)
    2be6:	f883 0439 	strb.w	r0, [r3, #1081]	; 0x439
    2bea:	e7b0      	b.n	2b4e <APP_vProcessRxDataStandard+0x72>
    2bec:	496d      	ldr	r1, [pc, #436]	; (2da4 <APP_vProcessRxDataStandard+0x2c8>)
    2bee:	485e      	ldr	r0, [pc, #376]	; (2d68 <APP_vProcessRxDataStandard+0x28c>)
    2bf0:	2204      	movs	r2, #4
    2bf2:	f032 fdfb 	bl	357ec <memcmp>
    2bf6:	b938      	cbnz	r0, 2c08 <APP_vProcessRxDataStandard+0x12c>
    2bf8:	4959      	ldr	r1, [pc, #356]	; (2d60 <APP_vProcessRxDataStandard+0x284>)
    2bfa:	486b      	ldr	r0, [pc, #428]	; (2da8 <APP_vProcessRxDataStandard+0x2cc>)
    2bfc:	f7fe ff5a 	bl	1ab4 <DbgConsole_Printf>
    2c00:	4958      	ldr	r1, [pc, #352]	; (2d64 <APP_vProcessRxDataStandard+0x288>)
    2c02:	486a      	ldr	r0, [pc, #424]	; (2dac <APP_vProcessRxDataStandard+0x2d0>)
    2c04:	220d      	movs	r2, #13
    2c06:	e7b8      	b.n	2b7a <APP_vProcessRxDataStandard+0x9e>
    2c08:	4969      	ldr	r1, [pc, #420]	; (2db0 <APP_vProcessRxDataStandard+0x2d4>)
    2c0a:	4857      	ldr	r0, [pc, #348]	; (2d68 <APP_vProcessRxDataStandard+0x28c>)
    2c0c:	2204      	movs	r2, #4
    2c0e:	f032 fded 	bl	357ec <memcmp>
    2c12:	b958      	cbnz	r0, 2c2c <APP_vProcessRxDataStandard+0x150>
    2c14:	4953      	ldr	r1, [pc, #332]	; (2d64 <APP_vProcessRxDataStandard+0x288>)
    2c16:	4867      	ldr	r0, [pc, #412]	; (2db4 <APP_vProcessRxDataStandard+0x2d8>)
    2c18:	f7fe ff4c 	bl	1ab4 <DbgConsole_Printf>
    2c1c:	4851      	ldr	r0, [pc, #324]	; (2d64 <APP_vProcessRxDataStandard+0x288>)
    2c1e:	f032 fdd9 	bl	357d4 <atol>
    2c22:	4b53      	ldr	r3, [pc, #332]	; (2d70 <APP_vProcessRxDataStandard+0x294>)
    2c24:	17c1      	asrs	r1, r0, #31
    2c26:	e9c3 01b4 	strd	r0, r1, [r3, #720]	; 0x2d0
    2c2a:	e790      	b.n	2b4e <APP_vProcessRxDataStandard+0x72>
    2c2c:	4962      	ldr	r1, [pc, #392]	; (2db8 <APP_vProcessRxDataStandard+0x2dc>)
    2c2e:	484e      	ldr	r0, [pc, #312]	; (2d68 <APP_vProcessRxDataStandard+0x28c>)
    2c30:	2207      	movs	r2, #7
    2c32:	f032 fddb 	bl	357ec <memcmp>
    2c36:	b958      	cbnz	r0, 2c50 <APP_vProcessRxDataStandard+0x174>
    2c38:	494a      	ldr	r1, [pc, #296]	; (2d64 <APP_vProcessRxDataStandard+0x288>)
    2c3a:	4860      	ldr	r0, [pc, #384]	; (2dbc <APP_vProcessRxDataStandard+0x2e0>)
    2c3c:	f7fe ff3a 	bl	1ab4 <DbgConsole_Printf>
    2c40:	4848      	ldr	r0, [pc, #288]	; (2d64 <APP_vProcessRxDataStandard+0x288>)
    2c42:	f032 fdc7 	bl	357d4 <atol>
    2c46:	4b4a      	ldr	r3, [pc, #296]	; (2d70 <APP_vProcessRxDataStandard+0x294>)
    2c48:	17c1      	asrs	r1, r0, #31
    2c4a:	e9c3 01bc 	strd	r0, r1, [r3, #752]	; 0x2f0
    2c4e:	e77e      	b.n	2b4e <APP_vProcessRxDataStandard+0x72>
    2c50:	495b      	ldr	r1, [pc, #364]	; (2dc0 <APP_vProcessRxDataStandard+0x2e4>)
    2c52:	4845      	ldr	r0, [pc, #276]	; (2d68 <APP_vProcessRxDataStandard+0x28c>)
    2c54:	2207      	movs	r2, #7
    2c56:	f032 fdc9 	bl	357ec <memcmp>
    2c5a:	b958      	cbnz	r0, 2c74 <APP_vProcessRxDataStandard+0x198>
    2c5c:	4941      	ldr	r1, [pc, #260]	; (2d64 <APP_vProcessRxDataStandard+0x288>)
    2c5e:	4859      	ldr	r0, [pc, #356]	; (2dc4 <APP_vProcessRxDataStandard+0x2e8>)
    2c60:	f7fe ff28 	bl	1ab4 <DbgConsole_Printf>
    2c64:	483f      	ldr	r0, [pc, #252]	; (2d64 <APP_vProcessRxDataStandard+0x288>)
    2c66:	f032 fdb5 	bl	357d4 <atol>
    2c6a:	4b41      	ldr	r3, [pc, #260]	; (2d70 <APP_vProcessRxDataStandard+0x294>)
    2c6c:	17c1      	asrs	r1, r0, #31
    2c6e:	e9c3 01be 	strd	r0, r1, [r3, #760]	; 0x2f8
    2c72:	e76c      	b.n	2b4e <APP_vProcessRxDataStandard+0x72>
    2c74:	4954      	ldr	r1, [pc, #336]	; (2dc8 <APP_vProcessRxDataStandard+0x2ec>)
    2c76:	483c      	ldr	r0, [pc, #240]	; (2d68 <APP_vProcessRxDataStandard+0x28c>)
    2c78:	2207      	movs	r2, #7
    2c7a:	f032 fdb7 	bl	357ec <memcmp>
    2c7e:	b958      	cbnz	r0, 2c98 <APP_vProcessRxDataStandard+0x1bc>
    2c80:	4938      	ldr	r1, [pc, #224]	; (2d64 <APP_vProcessRxDataStandard+0x288>)
    2c82:	4852      	ldr	r0, [pc, #328]	; (2dcc <APP_vProcessRxDataStandard+0x2f0>)
    2c84:	f7fe ff16 	bl	1ab4 <DbgConsole_Printf>
    2c88:	4836      	ldr	r0, [pc, #216]	; (2d64 <APP_vProcessRxDataStandard+0x288>)
    2c8a:	f032 fda3 	bl	357d4 <atol>
    2c8e:	4b38      	ldr	r3, [pc, #224]	; (2d70 <APP_vProcessRxDataStandard+0x294>)
    2c90:	17c1      	asrs	r1, r0, #31
    2c92:	e9c3 01c0 	strd	r0, r1, [r3, #768]	; 0x300
    2c96:	e75a      	b.n	2b4e <APP_vProcessRxDataStandard+0x72>
    2c98:	494d      	ldr	r1, [pc, #308]	; (2dd0 <APP_vProcessRxDataStandard+0x2f4>)
    2c9a:	4833      	ldr	r0, [pc, #204]	; (2d68 <APP_vProcessRxDataStandard+0x28c>)
    2c9c:	2207      	movs	r2, #7
    2c9e:	f032 fda5 	bl	357ec <memcmp>
    2ca2:	b958      	cbnz	r0, 2cbc <APP_vProcessRxDataStandard+0x1e0>
    2ca4:	492f      	ldr	r1, [pc, #188]	; (2d64 <APP_vProcessRxDataStandard+0x288>)
    2ca6:	484b      	ldr	r0, [pc, #300]	; (2dd4 <APP_vProcessRxDataStandard+0x2f8>)
    2ca8:	f7fe ff04 	bl	1ab4 <DbgConsole_Printf>
    2cac:	482d      	ldr	r0, [pc, #180]	; (2d64 <APP_vProcessRxDataStandard+0x288>)
    2cae:	f032 fd91 	bl	357d4 <atol>
    2cb2:	4b2f      	ldr	r3, [pc, #188]	; (2d70 <APP_vProcessRxDataStandard+0x294>)
    2cb4:	17c1      	asrs	r1, r0, #31
    2cb6:	e9c3 01c2 	strd	r0, r1, [r3, #776]	; 0x308
    2cba:	e748      	b.n	2b4e <APP_vProcessRxDataStandard+0x72>
    2cbc:	4946      	ldr	r1, [pc, #280]	; (2dd8 <APP_vProcessRxDataStandard+0x2fc>)
    2cbe:	482a      	ldr	r0, [pc, #168]	; (2d68 <APP_vProcessRxDataStandard+0x28c>)
    2cc0:	2207      	movs	r2, #7
    2cc2:	f032 fd93 	bl	357ec <memcmp>
    2cc6:	b958      	cbnz	r0, 2ce0 <APP_vProcessRxDataStandard+0x204>
    2cc8:	4926      	ldr	r1, [pc, #152]	; (2d64 <APP_vProcessRxDataStandard+0x288>)
    2cca:	4844      	ldr	r0, [pc, #272]	; (2ddc <APP_vProcessRxDataStandard+0x300>)
    2ccc:	f7fe fef2 	bl	1ab4 <DbgConsole_Printf>
    2cd0:	4824      	ldr	r0, [pc, #144]	; (2d64 <APP_vProcessRxDataStandard+0x288>)
    2cd2:	f032 fd7f 	bl	357d4 <atol>
    2cd6:	4b26      	ldr	r3, [pc, #152]	; (2d70 <APP_vProcessRxDataStandard+0x294>)
    2cd8:	17c1      	asrs	r1, r0, #31
    2cda:	e9c3 01c4 	strd	r0, r1, [r3, #784]	; 0x310
    2cde:	e736      	b.n	2b4e <APP_vProcessRxDataStandard+0x72>
    2ce0:	493f      	ldr	r1, [pc, #252]	; (2de0 <APP_vProcessRxDataStandard+0x304>)
    2ce2:	4821      	ldr	r0, [pc, #132]	; (2d68 <APP_vProcessRxDataStandard+0x28c>)
    2ce4:	2207      	movs	r2, #7
    2ce6:	f032 fd81 	bl	357ec <memcmp>
    2cea:	b958      	cbnz	r0, 2d04 <APP_vProcessRxDataStandard+0x228>
    2cec:	491d      	ldr	r1, [pc, #116]	; (2d64 <APP_vProcessRxDataStandard+0x288>)
    2cee:	483d      	ldr	r0, [pc, #244]	; (2de4 <APP_vProcessRxDataStandard+0x308>)
    2cf0:	f7fe fee0 	bl	1ab4 <DbgConsole_Printf>
    2cf4:	481b      	ldr	r0, [pc, #108]	; (2d64 <APP_vProcessRxDataStandard+0x288>)
    2cf6:	f032 fd6d 	bl	357d4 <atol>
    2cfa:	4b1d      	ldr	r3, [pc, #116]	; (2d70 <APP_vProcessRxDataStandard+0x294>)
    2cfc:	17c1      	asrs	r1, r0, #31
    2cfe:	e9c3 01c6 	strd	r0, r1, [r3, #792]	; 0x318
    2d02:	e724      	b.n	2b4e <APP_vProcessRxDataStandard+0x72>
    2d04:	4938      	ldr	r1, [pc, #224]	; (2de8 <APP_vProcessRxDataStandard+0x30c>)
    2d06:	4818      	ldr	r0, [pc, #96]	; (2d68 <APP_vProcessRxDataStandard+0x28c>)
    2d08:	2207      	movs	r2, #7
    2d0a:	f032 fd6f 	bl	357ec <memcmp>
    2d0e:	b958      	cbnz	r0, 2d28 <APP_vProcessRxDataStandard+0x24c>
    2d10:	4914      	ldr	r1, [pc, #80]	; (2d64 <APP_vProcessRxDataStandard+0x288>)
    2d12:	4836      	ldr	r0, [pc, #216]	; (2dec <APP_vProcessRxDataStandard+0x310>)
    2d14:	f7fe fece 	bl	1ab4 <DbgConsole_Printf>
    2d18:	4812      	ldr	r0, [pc, #72]	; (2d64 <APP_vProcessRxDataStandard+0x288>)
    2d1a:	f032 fd5b 	bl	357d4 <atol>
    2d1e:	4b14      	ldr	r3, [pc, #80]	; (2d70 <APP_vProcessRxDataStandard+0x294>)
    2d20:	17c1      	asrs	r1, r0, #31
    2d22:	e9c3 01c8 	strd	r0, r1, [r3, #800]	; 0x320
    2d26:	e712      	b.n	2b4e <APP_vProcessRxDataStandard+0x72>
    2d28:	4931      	ldr	r1, [pc, #196]	; (2df0 <APP_vProcessRxDataStandard+0x314>)
    2d2a:	480f      	ldr	r0, [pc, #60]	; (2d68 <APP_vProcessRxDataStandard+0x28c>)
    2d2c:	2207      	movs	r2, #7
    2d2e:	f032 fd5d 	bl	357ec <memcmp>
    2d32:	2800      	cmp	r0, #0
    2d34:	d160      	bne.n	2df8 <APP_vProcessRxDataStandard+0x31c>
    2d36:	490b      	ldr	r1, [pc, #44]	; (2d64 <APP_vProcessRxDataStandard+0x288>)
    2d38:	482e      	ldr	r0, [pc, #184]	; (2df4 <APP_vProcessRxDataStandard+0x318>)
    2d3a:	f7fe febb 	bl	1ab4 <DbgConsole_Printf>
    2d3e:	4809      	ldr	r0, [pc, #36]	; (2d64 <APP_vProcessRxDataStandard+0x288>)
    2d40:	f032 fd48 	bl	357d4 <atol>
    2d44:	4b0a      	ldr	r3, [pc, #40]	; (2d70 <APP_vProcessRxDataStandard+0x294>)
    2d46:	17c1      	asrs	r1, r0, #31
    2d48:	e9c3 01ca 	strd	r0, r1, [r3, #808]	; 0x328
    2d4c:	e6ff      	b.n	2b4e <APP_vProcessRxDataStandard+0x72>
    2d4e:	bf00      	nop
    2d50:	04005666 	.word	0x04005666
    2d54:	04005668 	.word	0x04005668
    2d58:	000186a0 	.word	0x000186a0
    2d5c:	04001120 	.word	0x04001120
    2d60:	040054de 	.word	0x040054de
    2d64:	0400555e 	.word	0x0400555e
    2d68:	0400545e 	.word	0x0400545e
    2d6c:	000374ce 	.word	0x000374ce
    2d70:	04003f68 	.word	0x04003f68
    2d74:	000374d3 	.word	0x000374d3
    2d78:	4000a000 	.word	0x4000a000
    2d7c:	000374df 	.word	0x000374df
    2d80:	000374e4 	.word	0x000374e4
    2d84:	04004548 	.word	0x04004548
    2d88:	000374f0 	.word	0x000374f0
    2d8c:	000374f6 	.word	0x000374f6
    2d90:	0400457c 	.word	0x0400457c
    2d94:	00037503 	.word	0x00037503
    2d98:	00037509 	.word	0x00037509
    2d9c:	00037516 	.word	0x00037516
    2da0:	0003751b 	.word	0x0003751b
    2da4:	00037471 	.word	0x00037471
    2da8:	00037527 	.word	0x00037527
    2dac:	04004598 	.word	0x04004598
    2db0:	00037533 	.word	0x00037533
    2db4:	00037538 	.word	0x00037538
    2db8:	00037544 	.word	0x00037544
    2dbc:	0003754b 	.word	0x0003754b
    2dc0:	00037559 	.word	0x00037559
    2dc4:	00037560 	.word	0x00037560
    2dc8:	0003756e 	.word	0x0003756e
    2dcc:	00037575 	.word	0x00037575
    2dd0:	00037583 	.word	0x00037583
    2dd4:	0003758a 	.word	0x0003758a
    2dd8:	00037598 	.word	0x00037598
    2ddc:	0003759f 	.word	0x0003759f
    2de0:	000375ad 	.word	0x000375ad
    2de4:	000375b4 	.word	0x000375b4
    2de8:	000375c2 	.word	0x000375c2
    2dec:	000375c9 	.word	0x000375c9
    2df0:	000375d7 	.word	0x000375d7
    2df4:	000375de 	.word	0x000375de
    2df8:	499f      	ldr	r1, [pc, #636]	; (3078 <APP_vProcessRxDataStandard+0x59c>)
    2dfa:	48a0      	ldr	r0, [pc, #640]	; (307c <APP_vProcessRxDataStandard+0x5a0>)
    2dfc:	2207      	movs	r2, #7
    2dfe:	f032 fcf5 	bl	357ec <memcmp>
    2e02:	b958      	cbnz	r0, 2e1c <APP_vProcessRxDataStandard+0x340>
    2e04:	499e      	ldr	r1, [pc, #632]	; (3080 <APP_vProcessRxDataStandard+0x5a4>)
    2e06:	489f      	ldr	r0, [pc, #636]	; (3084 <APP_vProcessRxDataStandard+0x5a8>)
    2e08:	f7fe fe54 	bl	1ab4 <DbgConsole_Printf>
    2e0c:	489c      	ldr	r0, [pc, #624]	; (3080 <APP_vProcessRxDataStandard+0x5a4>)
    2e0e:	f032 fce1 	bl	357d4 <atol>
    2e12:	4b9d      	ldr	r3, [pc, #628]	; (3088 <APP_vProcessRxDataStandard+0x5ac>)
    2e14:	17c1      	asrs	r1, r0, #31
    2e16:	e9c3 01cc 	strd	r0, r1, [r3, #816]	; 0x330
    2e1a:	e698      	b.n	2b4e <APP_vProcessRxDataStandard+0x72>
    2e1c:	499b      	ldr	r1, [pc, #620]	; (308c <APP_vProcessRxDataStandard+0x5b0>)
    2e1e:	4897      	ldr	r0, [pc, #604]	; (307c <APP_vProcessRxDataStandard+0x5a0>)
    2e20:	2207      	movs	r2, #7
    2e22:	f032 fce3 	bl	357ec <memcmp>
    2e26:	b958      	cbnz	r0, 2e40 <APP_vProcessRxDataStandard+0x364>
    2e28:	4995      	ldr	r1, [pc, #596]	; (3080 <APP_vProcessRxDataStandard+0x5a4>)
    2e2a:	4899      	ldr	r0, [pc, #612]	; (3090 <APP_vProcessRxDataStandard+0x5b4>)
    2e2c:	f7fe fe42 	bl	1ab4 <DbgConsole_Printf>
    2e30:	4893      	ldr	r0, [pc, #588]	; (3080 <APP_vProcessRxDataStandard+0x5a4>)
    2e32:	f032 fccf 	bl	357d4 <atol>
    2e36:	4b94      	ldr	r3, [pc, #592]	; (3088 <APP_vProcessRxDataStandard+0x5ac>)
    2e38:	17c1      	asrs	r1, r0, #31
    2e3a:	e9c3 01ce 	strd	r0, r1, [r3, #824]	; 0x338
    2e3e:	e686      	b.n	2b4e <APP_vProcessRxDataStandard+0x72>
    2e40:	4994      	ldr	r1, [pc, #592]	; (3094 <APP_vProcessRxDataStandard+0x5b8>)
    2e42:	488e      	ldr	r0, [pc, #568]	; (307c <APP_vProcessRxDataStandard+0x5a0>)
    2e44:	2206      	movs	r2, #6
    2e46:	f032 fcd1 	bl	357ec <memcmp>
    2e4a:	b950      	cbnz	r0, 2e62 <APP_vProcessRxDataStandard+0x386>
    2e4c:	498c      	ldr	r1, [pc, #560]	; (3080 <APP_vProcessRxDataStandard+0x5a4>)
    2e4e:	4892      	ldr	r0, [pc, #584]	; (3098 <APP_vProcessRxDataStandard+0x5bc>)
    2e50:	f7fe fe30 	bl	1ab4 <DbgConsole_Printf>
    2e54:	488a      	ldr	r0, [pc, #552]	; (3080 <APP_vProcessRxDataStandard+0x5a4>)
    2e56:	f032 fcbd 	bl	357d4 <atol>
    2e5a:	4b8b      	ldr	r3, [pc, #556]	; (3088 <APP_vProcessRxDataStandard+0x5ac>)
    2e5c:	f8c3 0640 	str.w	r0, [r3, #1600]	; 0x640
    2e60:	e675      	b.n	2b4e <APP_vProcessRxDataStandard+0x72>
    2e62:	498e      	ldr	r1, [pc, #568]	; (309c <APP_vProcessRxDataStandard+0x5c0>)
    2e64:	4885      	ldr	r0, [pc, #532]	; (307c <APP_vProcessRxDataStandard+0x5a0>)
    2e66:	2206      	movs	r2, #6
    2e68:	f032 fcc0 	bl	357ec <memcmp>
    2e6c:	b950      	cbnz	r0, 2e84 <APP_vProcessRxDataStandard+0x3a8>
    2e6e:	4984      	ldr	r1, [pc, #528]	; (3080 <APP_vProcessRxDataStandard+0x5a4>)
    2e70:	488b      	ldr	r0, [pc, #556]	; (30a0 <APP_vProcessRxDataStandard+0x5c4>)
    2e72:	f7fe fe1f 	bl	1ab4 <DbgConsole_Printf>
    2e76:	4882      	ldr	r0, [pc, #520]	; (3080 <APP_vProcessRxDataStandard+0x5a4>)
    2e78:	f032 fcac 	bl	357d4 <atol>
    2e7c:	4b82      	ldr	r3, [pc, #520]	; (3088 <APP_vProcessRxDataStandard+0x5ac>)
    2e7e:	f8c3 0644 	str.w	r0, [r3, #1604]	; 0x644
    2e82:	e664      	b.n	2b4e <APP_vProcessRxDataStandard+0x72>
    2e84:	4987      	ldr	r1, [pc, #540]	; (30a4 <APP_vProcessRxDataStandard+0x5c8>)
    2e86:	487d      	ldr	r0, [pc, #500]	; (307c <APP_vProcessRxDataStandard+0x5a0>)
    2e88:	2206      	movs	r2, #6
    2e8a:	f032 fcaf 	bl	357ec <memcmp>
    2e8e:	b950      	cbnz	r0, 2ea6 <APP_vProcessRxDataStandard+0x3ca>
    2e90:	497b      	ldr	r1, [pc, #492]	; (3080 <APP_vProcessRxDataStandard+0x5a4>)
    2e92:	4885      	ldr	r0, [pc, #532]	; (30a8 <APP_vProcessRxDataStandard+0x5cc>)
    2e94:	f7fe fe0e 	bl	1ab4 <DbgConsole_Printf>
    2e98:	4879      	ldr	r0, [pc, #484]	; (3080 <APP_vProcessRxDataStandard+0x5a4>)
    2e9a:	f032 fc9b 	bl	357d4 <atol>
    2e9e:	4b7a      	ldr	r3, [pc, #488]	; (3088 <APP_vProcessRxDataStandard+0x5ac>)
    2ea0:	f8c3 0648 	str.w	r0, [r3, #1608]	; 0x648
    2ea4:	e653      	b.n	2b4e <APP_vProcessRxDataStandard+0x72>
    2ea6:	4981      	ldr	r1, [pc, #516]	; (30ac <APP_vProcessRxDataStandard+0x5d0>)
    2ea8:	4874      	ldr	r0, [pc, #464]	; (307c <APP_vProcessRxDataStandard+0x5a0>)
    2eaa:	2206      	movs	r2, #6
    2eac:	f032 fc9e 	bl	357ec <memcmp>
    2eb0:	b950      	cbnz	r0, 2ec8 <APP_vProcessRxDataStandard+0x3ec>
    2eb2:	4973      	ldr	r1, [pc, #460]	; (3080 <APP_vProcessRxDataStandard+0x5a4>)
    2eb4:	487e      	ldr	r0, [pc, #504]	; (30b0 <APP_vProcessRxDataStandard+0x5d4>)
    2eb6:	f7fe fdfd 	bl	1ab4 <DbgConsole_Printf>
    2eba:	4871      	ldr	r0, [pc, #452]	; (3080 <APP_vProcessRxDataStandard+0x5a4>)
    2ebc:	f032 fc8a 	bl	357d4 <atol>
    2ec0:	4b71      	ldr	r3, [pc, #452]	; (3088 <APP_vProcessRxDataStandard+0x5ac>)
    2ec2:	f8c3 064c 	str.w	r0, [r3, #1612]	; 0x64c
    2ec6:	e642      	b.n	2b4e <APP_vProcessRxDataStandard+0x72>
    2ec8:	497a      	ldr	r1, [pc, #488]	; (30b4 <APP_vProcessRxDataStandard+0x5d8>)
    2eca:	486c      	ldr	r0, [pc, #432]	; (307c <APP_vProcessRxDataStandard+0x5a0>)
    2ecc:	2204      	movs	r2, #4
    2ece:	f032 fc8d 	bl	357ec <memcmp>
    2ed2:	b988      	cbnz	r0, 2ef8 <APP_vProcessRxDataStandard+0x41c>
    2ed4:	496a      	ldr	r1, [pc, #424]	; (3080 <APP_vProcessRxDataStandard+0x5a4>)
    2ed6:	4878      	ldr	r0, [pc, #480]	; (30b8 <APP_vProcessRxDataStandard+0x5dc>)
    2ed8:	f7fe fdec 	bl	1ab4 <DbgConsole_Printf>
    2edc:	4868      	ldr	r0, [pc, #416]	; (3080 <APP_vProcessRxDataStandard+0x5a4>)
    2ede:	f032 fc79 	bl	357d4 <atol>
    2ee2:	4b69      	ldr	r3, [pc, #420]	; (3088 <APP_vProcessRxDataStandard+0x5ac>)
    2ee4:	17c1      	asrs	r1, r0, #31
    2ee6:	f893 27cb 	ldrb.w	r2, [r3, #1995]	; 0x7cb
    2eea:	e9c3 01b6 	strd	r0, r1, [r3, #728]	; 0x2d8
    2eee:	f042 0204 	orr.w	r2, r2, #4
    2ef2:	f883 27cb 	strb.w	r2, [r3, #1995]	; 0x7cb
    2ef6:	e62a      	b.n	2b4e <APP_vProcessRxDataStandard+0x72>
    2ef8:	4970      	ldr	r1, [pc, #448]	; (30bc <APP_vProcessRxDataStandard+0x5e0>)
    2efa:	4860      	ldr	r0, [pc, #384]	; (307c <APP_vProcessRxDataStandard+0x5a0>)
    2efc:	2204      	movs	r2, #4
    2efe:	f032 fc75 	bl	357ec <memcmp>
    2f02:	b950      	cbnz	r0, 2f1a <APP_vProcessRxDataStandard+0x43e>
    2f04:	495e      	ldr	r1, [pc, #376]	; (3080 <APP_vProcessRxDataStandard+0x5a4>)
    2f06:	486e      	ldr	r0, [pc, #440]	; (30c0 <APP_vProcessRxDataStandard+0x5e4>)
    2f08:	f7fe fdd4 	bl	1ab4 <DbgConsole_Printf>
    2f0c:	485c      	ldr	r0, [pc, #368]	; (3080 <APP_vProcessRxDataStandard+0x5a4>)
    2f0e:	f032 fc61 	bl	357d4 <atol>
    2f12:	4b5d      	ldr	r3, [pc, #372]	; (3088 <APP_vProcessRxDataStandard+0x5ac>)
    2f14:	f8c3 03fc 	str.w	r0, [r3, #1020]	; 0x3fc
    2f18:	e619      	b.n	2b4e <APP_vProcessRxDataStandard+0x72>
    2f1a:	496a      	ldr	r1, [pc, #424]	; (30c4 <APP_vProcessRxDataStandard+0x5e8>)
    2f1c:	4857      	ldr	r0, [pc, #348]	; (307c <APP_vProcessRxDataStandard+0x5a0>)
    2f1e:	2204      	movs	r2, #4
    2f20:	f032 fc64 	bl	357ec <memcmp>
    2f24:	b950      	cbnz	r0, 2f3c <APP_vProcessRxDataStandard+0x460>
    2f26:	4956      	ldr	r1, [pc, #344]	; (3080 <APP_vProcessRxDataStandard+0x5a4>)
    2f28:	4867      	ldr	r0, [pc, #412]	; (30c8 <APP_vProcessRxDataStandard+0x5ec>)
    2f2a:	f7fe fdc3 	bl	1ab4 <DbgConsole_Printf>
    2f2e:	4854      	ldr	r0, [pc, #336]	; (3080 <APP_vProcessRxDataStandard+0x5a4>)
    2f30:	f032 fc50 	bl	357d4 <atol>
    2f34:	4b54      	ldr	r3, [pc, #336]	; (3088 <APP_vProcessRxDataStandard+0x5ac>)
    2f36:	f8a3 040a 	strh.w	r0, [r3, #1034]	; 0x40a
    2f3a:	e608      	b.n	2b4e <APP_vProcessRxDataStandard+0x72>
    2f3c:	4963      	ldr	r1, [pc, #396]	; (30cc <APP_vProcessRxDataStandard+0x5f0>)
    2f3e:	484f      	ldr	r0, [pc, #316]	; (307c <APP_vProcessRxDataStandard+0x5a0>)
    2f40:	2204      	movs	r2, #4
    2f42:	f032 fc53 	bl	357ec <memcmp>
    2f46:	b950      	cbnz	r0, 2f5e <APP_vProcessRxDataStandard+0x482>
    2f48:	494d      	ldr	r1, [pc, #308]	; (3080 <APP_vProcessRxDataStandard+0x5a4>)
    2f4a:	4861      	ldr	r0, [pc, #388]	; (30d0 <APP_vProcessRxDataStandard+0x5f4>)
    2f4c:	f7fe fdb2 	bl	1ab4 <DbgConsole_Printf>
    2f50:	484b      	ldr	r0, [pc, #300]	; (3080 <APP_vProcessRxDataStandard+0x5a4>)
    2f52:	f032 fc3f 	bl	357d4 <atol>
    2f56:	4b4c      	ldr	r3, [pc, #304]	; (3088 <APP_vProcessRxDataStandard+0x5ac>)
    2f58:	f8a3 041a 	strh.w	r0, [r3, #1050]	; 0x41a
    2f5c:	e5f7      	b.n	2b4e <APP_vProcessRxDataStandard+0x72>
    2f5e:	495d      	ldr	r1, [pc, #372]	; (30d4 <APP_vProcessRxDataStandard+0x5f8>)
    2f60:	4846      	ldr	r0, [pc, #280]	; (307c <APP_vProcessRxDataStandard+0x5a0>)
    2f62:	2204      	movs	r2, #4
    2f64:	f032 fc42 	bl	357ec <memcmp>
    2f68:	b950      	cbnz	r0, 2f80 <APP_vProcessRxDataStandard+0x4a4>
    2f6a:	4945      	ldr	r1, [pc, #276]	; (3080 <APP_vProcessRxDataStandard+0x5a4>)
    2f6c:	485a      	ldr	r0, [pc, #360]	; (30d8 <APP_vProcessRxDataStandard+0x5fc>)
    2f6e:	f7fe fda1 	bl	1ab4 <DbgConsole_Printf>
    2f72:	4843      	ldr	r0, [pc, #268]	; (3080 <APP_vProcessRxDataStandard+0x5a4>)
    2f74:	f032 fc2e 	bl	357d4 <atol>
    2f78:	4b43      	ldr	r3, [pc, #268]	; (3088 <APP_vProcessRxDataStandard+0x5ac>)
    2f7a:	f8a3 0428 	strh.w	r0, [r3, #1064]	; 0x428
    2f7e:	e5e6      	b.n	2b4e <APP_vProcessRxDataStandard+0x72>
    2f80:	4956      	ldr	r1, [pc, #344]	; (30dc <APP_vProcessRxDataStandard+0x600>)
    2f82:	483e      	ldr	r0, [pc, #248]	; (307c <APP_vProcessRxDataStandard+0x5a0>)
    2f84:	2205      	movs	r2, #5
    2f86:	f032 fc31 	bl	357ec <memcmp>
    2f8a:	b950      	cbnz	r0, 2fa2 <APP_vProcessRxDataStandard+0x4c6>
    2f8c:	493c      	ldr	r1, [pc, #240]	; (3080 <APP_vProcessRxDataStandard+0x5a4>)
    2f8e:	4854      	ldr	r0, [pc, #336]	; (30e0 <APP_vProcessRxDataStandard+0x604>)
    2f90:	f7fe fd90 	bl	1ab4 <DbgConsole_Printf>
    2f94:	483a      	ldr	r0, [pc, #232]	; (3080 <APP_vProcessRxDataStandard+0x5a4>)
    2f96:	f032 fc19 	bl	357cc <atoi>
    2f9a:	4b3b      	ldr	r3, [pc, #236]	; (3088 <APP_vProcessRxDataStandard+0x5ac>)
    2f9c:	f8a3 0402 	strh.w	r0, [r3, #1026]	; 0x402
    2fa0:	e5d5      	b.n	2b4e <APP_vProcessRxDataStandard+0x72>
    2fa2:	4950      	ldr	r1, [pc, #320]	; (30e4 <APP_vProcessRxDataStandard+0x608>)
    2fa4:	4835      	ldr	r0, [pc, #212]	; (307c <APP_vProcessRxDataStandard+0x5a0>)
    2fa6:	2205      	movs	r2, #5
    2fa8:	f032 fc20 	bl	357ec <memcmp>
    2fac:	b970      	cbnz	r0, 2fcc <APP_vProcessRxDataStandard+0x4f0>
    2fae:	4934      	ldr	r1, [pc, #208]	; (3080 <APP_vProcessRxDataStandard+0x5a4>)
    2fb0:	484d      	ldr	r0, [pc, #308]	; (30e8 <APP_vProcessRxDataStandard+0x60c>)
    2fb2:	f7fe fd7f 	bl	1ab4 <DbgConsole_Printf>
    2fb6:	4832      	ldr	r0, [pc, #200]	; (3080 <APP_vProcessRxDataStandard+0x5a4>)
    2fb8:	f032 fc08 	bl	357cc <atoi>
    2fbc:	4b32      	ldr	r3, [pc, #200]	; (3088 <APP_vProcessRxDataStandard+0x5ac>)
    2fbe:	f893 27cb 	ldrb.w	r2, [r3, #1995]	; 0x7cb
    2fc2:	f8a3 0412 	strh.w	r0, [r3, #1042]	; 0x412
    2fc6:	f042 0202 	orr.w	r2, r2, #2
    2fca:	e792      	b.n	2ef2 <APP_vProcessRxDataStandard+0x416>
    2fcc:	4947      	ldr	r1, [pc, #284]	; (30ec <APP_vProcessRxDataStandard+0x610>)
    2fce:	482b      	ldr	r0, [pc, #172]	; (307c <APP_vProcessRxDataStandard+0x5a0>)
    2fd0:	2205      	movs	r2, #5
    2fd2:	f032 fc0b 	bl	357ec <memcmp>
    2fd6:	b950      	cbnz	r0, 2fee <APP_vProcessRxDataStandard+0x512>
    2fd8:	4929      	ldr	r1, [pc, #164]	; (3080 <APP_vProcessRxDataStandard+0x5a4>)
    2fda:	4845      	ldr	r0, [pc, #276]	; (30f0 <APP_vProcessRxDataStandard+0x614>)
    2fdc:	f7fe fd6a 	bl	1ab4 <DbgConsole_Printf>
    2fe0:	4827      	ldr	r0, [pc, #156]	; (3080 <APP_vProcessRxDataStandard+0x5a4>)
    2fe2:	f032 fbf3 	bl	357cc <atoi>
    2fe6:	4b28      	ldr	r3, [pc, #160]	; (3088 <APP_vProcessRxDataStandard+0x5ac>)
    2fe8:	f8a3 0422 	strh.w	r0, [r3, #1058]	; 0x422
    2fec:	e5af      	b.n	2b4e <APP_vProcessRxDataStandard+0x72>
    2fee:	4941      	ldr	r1, [pc, #260]	; (30f4 <APP_vProcessRxDataStandard+0x618>)
    2ff0:	4822      	ldr	r0, [pc, #136]	; (307c <APP_vProcessRxDataStandard+0x5a0>)
    2ff2:	2205      	movs	r2, #5
    2ff4:	f032 fbfa 	bl	357ec <memcmp>
    2ff8:	b950      	cbnz	r0, 3010 <APP_vProcessRxDataStandard+0x534>
    2ffa:	4921      	ldr	r1, [pc, #132]	; (3080 <APP_vProcessRxDataStandard+0x5a4>)
    2ffc:	483e      	ldr	r0, [pc, #248]	; (30f8 <APP_vProcessRxDataStandard+0x61c>)
    2ffe:	f7fe fd59 	bl	1ab4 <DbgConsole_Printf>
    3002:	481f      	ldr	r0, [pc, #124]	; (3080 <APP_vProcessRxDataStandard+0x5a4>)
    3004:	f032 fbe2 	bl	357cc <atoi>
    3008:	4b1f      	ldr	r3, [pc, #124]	; (3088 <APP_vProcessRxDataStandard+0x5ac>)
    300a:	f8a3 0400 	strh.w	r0, [r3, #1024]	; 0x400
    300e:	e59e      	b.n	2b4e <APP_vProcessRxDataStandard+0x72>
    3010:	493a      	ldr	r1, [pc, #232]	; (30fc <APP_vProcessRxDataStandard+0x620>)
    3012:	481a      	ldr	r0, [pc, #104]	; (307c <APP_vProcessRxDataStandard+0x5a0>)
    3014:	2205      	movs	r2, #5
    3016:	f032 fbe9 	bl	357ec <memcmp>
    301a:	b950      	cbnz	r0, 3032 <APP_vProcessRxDataStandard+0x556>
    301c:	4918      	ldr	r1, [pc, #96]	; (3080 <APP_vProcessRxDataStandard+0x5a4>)
    301e:	4838      	ldr	r0, [pc, #224]	; (3100 <APP_vProcessRxDataStandard+0x624>)
    3020:	f7fe fd48 	bl	1ab4 <DbgConsole_Printf>
    3024:	4816      	ldr	r0, [pc, #88]	; (3080 <APP_vProcessRxDataStandard+0x5a4>)
    3026:	f032 fbd1 	bl	357cc <atoi>
    302a:	4b17      	ldr	r3, [pc, #92]	; (3088 <APP_vProcessRxDataStandard+0x5ac>)
    302c:	f8a3 0410 	strh.w	r0, [r3, #1040]	; 0x410
    3030:	e58d      	b.n	2b4e <APP_vProcessRxDataStandard+0x72>
    3032:	4934      	ldr	r1, [pc, #208]	; (3104 <APP_vProcessRxDataStandard+0x628>)
    3034:	4811      	ldr	r0, [pc, #68]	; (307c <APP_vProcessRxDataStandard+0x5a0>)
    3036:	2205      	movs	r2, #5
    3038:	f032 fbd8 	bl	357ec <memcmp>
    303c:	b950      	cbnz	r0, 3054 <APP_vProcessRxDataStandard+0x578>
    303e:	4910      	ldr	r1, [pc, #64]	; (3080 <APP_vProcessRxDataStandard+0x5a4>)
    3040:	4831      	ldr	r0, [pc, #196]	; (3108 <APP_vProcessRxDataStandard+0x62c>)
    3042:	f7fe fd37 	bl	1ab4 <DbgConsole_Printf>
    3046:	480e      	ldr	r0, [pc, #56]	; (3080 <APP_vProcessRxDataStandard+0x5a4>)
    3048:	f032 fbc0 	bl	357cc <atoi>
    304c:	4b0e      	ldr	r3, [pc, #56]	; (3088 <APP_vProcessRxDataStandard+0x5ac>)
    304e:	f8a3 0420 	strh.w	r0, [r3, #1056]	; 0x420
    3052:	e57c      	b.n	2b4e <APP_vProcessRxDataStandard+0x72>
    3054:	492d      	ldr	r1, [pc, #180]	; (310c <APP_vProcessRxDataStandard+0x630>)
    3056:	4809      	ldr	r0, [pc, #36]	; (307c <APP_vProcessRxDataStandard+0x5a0>)
    3058:	2204      	movs	r2, #4
    305a:	f032 fbc7 	bl	357ec <memcmp>
    305e:	2800      	cmp	r0, #0
    3060:	d158      	bne.n	3114 <APP_vProcessRxDataStandard+0x638>
    3062:	4907      	ldr	r1, [pc, #28]	; (3080 <APP_vProcessRxDataStandard+0x5a4>)
    3064:	482a      	ldr	r0, [pc, #168]	; (3110 <APP_vProcessRxDataStandard+0x634>)
    3066:	f7fe fd25 	bl	1ab4 <DbgConsole_Printf>
    306a:	4805      	ldr	r0, [pc, #20]	; (3080 <APP_vProcessRxDataStandard+0x5a4>)
    306c:	f032 fbb2 	bl	357d4 <atol>
    3070:	4b05      	ldr	r3, [pc, #20]	; (3088 <APP_vProcessRxDataStandard+0x5ac>)
    3072:	f883 043c 	strb.w	r0, [r3, #1084]	; 0x43c
    3076:	e56a      	b.n	2b4e <APP_vProcessRxDataStandard+0x72>
    3078:	000375ec 	.word	0x000375ec
    307c:	0400545e 	.word	0x0400545e
    3080:	0400555e 	.word	0x0400555e
    3084:	000375f3 	.word	0x000375f3
    3088:	04003f68 	.word	0x04003f68
    308c:	00037601 	.word	0x00037601
    3090:	00037608 	.word	0x00037608
    3094:	00037616 	.word	0x00037616
    3098:	0003761d 	.word	0x0003761d
    309c:	0003762b 	.word	0x0003762b
    30a0:	00037632 	.word	0x00037632
    30a4:	00037640 	.word	0x00037640
    30a8:	00037647 	.word	0x00037647
    30ac:	00037655 	.word	0x00037655
    30b0:	0003765c 	.word	0x0003765c
    30b4:	0003766a 	.word	0x0003766a
    30b8:	0003766f 	.word	0x0003766f
    30bc:	0003767b 	.word	0x0003767b
    30c0:	00037680 	.word	0x00037680
    30c4:	0003768c 	.word	0x0003768c
    30c8:	00037691 	.word	0x00037691
    30cc:	0003769d 	.word	0x0003769d
    30d0:	000376a2 	.word	0x000376a2
    30d4:	000376ae 	.word	0x000376ae
    30d8:	000376b3 	.word	0x000376b3
    30dc:	000376bf 	.word	0x000376bf
    30e0:	000376c5 	.word	0x000376c5
    30e4:	000376d2 	.word	0x000376d2
    30e8:	000376d8 	.word	0x000376d8
    30ec:	000376e5 	.word	0x000376e5
    30f0:	000376eb 	.word	0x000376eb
    30f4:	000376f8 	.word	0x000376f8
    30f8:	000376fe 	.word	0x000376fe
    30fc:	0003770b 	.word	0x0003770b
    3100:	00037711 	.word	0x00037711
    3104:	0003771e 	.word	0x0003771e
    3108:	00037724 	.word	0x00037724
    310c:	00037731 	.word	0x00037731
    3110:	00037736 	.word	0x00037736
    3114:	499b      	ldr	r1, [pc, #620]	; (3384 <APP_vProcessRxDataStandard+0x8a8>)
    3116:	489c      	ldr	r0, [pc, #624]	; (3388 <APP_vProcessRxDataStandard+0x8ac>)
    3118:	2204      	movs	r2, #4
    311a:	f032 fb67 	bl	357ec <memcmp>
    311e:	b9e8      	cbnz	r0, 315c <APP_vProcessRxDataStandard+0x680>
    3120:	499a      	ldr	r1, [pc, #616]	; (338c <APP_vProcessRxDataStandard+0x8b0>)
    3122:	489b      	ldr	r0, [pc, #620]	; (3390 <APP_vProcessRxDataStandard+0x8b4>)
    3124:	f7fe fcc6 	bl	1ab4 <DbgConsole_Printf>
    3128:	4998      	ldr	r1, [pc, #608]	; (338c <APP_vProcessRxDataStandard+0x8b0>)
    312a:	489a      	ldr	r0, [pc, #616]	; (3394 <APP_vProcessRxDataStandard+0x8b8>)
    312c:	2208      	movs	r2, #8
    312e:	f032 fb8d 	bl	3584c <memcpy>
    3132:	4b99      	ldr	r3, [pc, #612]	; (3398 <APP_vProcessRxDataStandard+0x8bc>)
    3134:	781b      	ldrb	r3, [r3, #0]
    3136:	2b01      	cmp	r3, #1
    3138:	f47f ad09 	bne.w	2b4e <APP_vProcessRxDataStandard+0x72>
    313c:	4997      	ldr	r1, [pc, #604]	; (339c <APP_vProcessRxDataStandard+0x8c0>)
    313e:	4893      	ldr	r0, [pc, #588]	; (338c <APP_vProcessRxDataStandard+0x8b0>)
    3140:	2208      	movs	r2, #8
    3142:	f032 fb53 	bl	357ec <memcmp>
    3146:	4b96      	ldr	r3, [pc, #600]	; (33a0 <APP_vProcessRxDataStandard+0x8c4>)
    3148:	b128      	cbz	r0, 3156 <APP_vProcessRxDataStandard+0x67a>
    314a:	2201      	movs	r2, #1
    314c:	701a      	strb	r2, [r3, #0]
    314e:	498f      	ldr	r1, [pc, #572]	; (338c <APP_vProcessRxDataStandard+0x8b0>)
    3150:	4892      	ldr	r0, [pc, #584]	; (339c <APP_vProcessRxDataStandard+0x8c0>)
    3152:	2208      	movs	r2, #8
    3154:	e511      	b.n	2b7a <APP_vProcessRxDataStandard+0x9e>
    3156:	2200      	movs	r2, #0
    3158:	701a      	strb	r2, [r3, #0]
    315a:	e4f8      	b.n	2b4e <APP_vProcessRxDataStandard+0x72>
    315c:	4991      	ldr	r1, [pc, #580]	; (33a4 <APP_vProcessRxDataStandard+0x8c8>)
    315e:	488a      	ldr	r0, [pc, #552]	; (3388 <APP_vProcessRxDataStandard+0x8ac>)
    3160:	2205      	movs	r2, #5
    3162:	f032 fb43 	bl	357ec <memcmp>
    3166:	b950      	cbnz	r0, 317e <APP_vProcessRxDataStandard+0x6a2>
    3168:	4988      	ldr	r1, [pc, #544]	; (338c <APP_vProcessRxDataStandard+0x8b0>)
    316a:	488f      	ldr	r0, [pc, #572]	; (33a8 <APP_vProcessRxDataStandard+0x8cc>)
    316c:	f7fe fca2 	bl	1ab4 <DbgConsole_Printf>
    3170:	4886      	ldr	r0, [pc, #536]	; (338c <APP_vProcessRxDataStandard+0x8b0>)
    3172:	f032 fb2b 	bl	357cc <atoi>
    3176:	4b8d      	ldr	r3, [pc, #564]	; (33ac <APP_vProcessRxDataStandard+0x8d0>)
    3178:	f883 0438 	strb.w	r0, [r3, #1080]	; 0x438
    317c:	e4e7      	b.n	2b4e <APP_vProcessRxDataStandard+0x72>
    317e:	498c      	ldr	r1, [pc, #560]	; (33b0 <APP_vProcessRxDataStandard+0x8d4>)
    3180:	4881      	ldr	r0, [pc, #516]	; (3388 <APP_vProcessRxDataStandard+0x8ac>)
    3182:	2206      	movs	r2, #6
    3184:	f032 fb32 	bl	357ec <memcmp>
    3188:	b950      	cbnz	r0, 31a0 <APP_vProcessRxDataStandard+0x6c4>
    318a:	4980      	ldr	r1, [pc, #512]	; (338c <APP_vProcessRxDataStandard+0x8b0>)
    318c:	4889      	ldr	r0, [pc, #548]	; (33b4 <APP_vProcessRxDataStandard+0x8d8>)
    318e:	f7fe fc91 	bl	1ab4 <DbgConsole_Printf>
    3192:	487e      	ldr	r0, [pc, #504]	; (338c <APP_vProcessRxDataStandard+0x8b0>)
    3194:	f032 fb1e 	bl	357d4 <atol>
    3198:	4b84      	ldr	r3, [pc, #528]	; (33ac <APP_vProcessRxDataStandard+0x8d0>)
    319a:	f8a3 0650 	strh.w	r0, [r3, #1616]	; 0x650
    319e:	e4d6      	b.n	2b4e <APP_vProcessRxDataStandard+0x72>
    31a0:	4985      	ldr	r1, [pc, #532]	; (33b8 <APP_vProcessRxDataStandard+0x8dc>)
    31a2:	4879      	ldr	r0, [pc, #484]	; (3388 <APP_vProcessRxDataStandard+0x8ac>)
    31a4:	2208      	movs	r2, #8
    31a6:	f032 fb21 	bl	357ec <memcmp>
    31aa:	b950      	cbnz	r0, 31c2 <APP_vProcessRxDataStandard+0x6e6>
    31ac:	4977      	ldr	r1, [pc, #476]	; (338c <APP_vProcessRxDataStandard+0x8b0>)
    31ae:	4883      	ldr	r0, [pc, #524]	; (33bc <APP_vProcessRxDataStandard+0x8e0>)
    31b0:	f7fe fc80 	bl	1ab4 <DbgConsole_Printf>
    31b4:	4875      	ldr	r0, [pc, #468]	; (338c <APP_vProcessRxDataStandard+0x8b0>)
    31b6:	f032 fb0d 	bl	357d4 <atol>
    31ba:	4b7c      	ldr	r3, [pc, #496]	; (33ac <APP_vProcessRxDataStandard+0x8d0>)
    31bc:	f8a3 0654 	strh.w	r0, [r3, #1620]	; 0x654
    31c0:	e4c5      	b.n	2b4e <APP_vProcessRxDataStandard+0x72>
    31c2:	497f      	ldr	r1, [pc, #508]	; (33c0 <APP_vProcessRxDataStandard+0x8e4>)
    31c4:	4870      	ldr	r0, [pc, #448]	; (3388 <APP_vProcessRxDataStandard+0x8ac>)
    31c6:	2206      	movs	r2, #6
    31c8:	f032 fb10 	bl	357ec <memcmp>
    31cc:	b950      	cbnz	r0, 31e4 <APP_vProcessRxDataStandard+0x708>
    31ce:	496f      	ldr	r1, [pc, #444]	; (338c <APP_vProcessRxDataStandard+0x8b0>)
    31d0:	487c      	ldr	r0, [pc, #496]	; (33c4 <APP_vProcessRxDataStandard+0x8e8>)
    31d2:	f7fe fc6f 	bl	1ab4 <DbgConsole_Printf>
    31d6:	486d      	ldr	r0, [pc, #436]	; (338c <APP_vProcessRxDataStandard+0x8b0>)
    31d8:	f032 fafc 	bl	357d4 <atol>
    31dc:	4b73      	ldr	r3, [pc, #460]	; (33ac <APP_vProcessRxDataStandard+0x8d0>)
    31de:	f8a3 0652 	strh.w	r0, [r3, #1618]	; 0x652
    31e2:	e4b4      	b.n	2b4e <APP_vProcessRxDataStandard+0x72>
    31e4:	4978      	ldr	r1, [pc, #480]	; (33c8 <APP_vProcessRxDataStandard+0x8ec>)
    31e6:	4868      	ldr	r0, [pc, #416]	; (3388 <APP_vProcessRxDataStandard+0x8ac>)
    31e8:	2207      	movs	r2, #7
    31ea:	f032 faff 	bl	357ec <memcmp>
    31ee:	b950      	cbnz	r0, 3206 <APP_vProcessRxDataStandard+0x72a>
    31f0:	4966      	ldr	r1, [pc, #408]	; (338c <APP_vProcessRxDataStandard+0x8b0>)
    31f2:	4876      	ldr	r0, [pc, #472]	; (33cc <APP_vProcessRxDataStandard+0x8f0>)
    31f4:	f7fe fc5e 	bl	1ab4 <DbgConsole_Printf>
    31f8:	4864      	ldr	r0, [pc, #400]	; (338c <APP_vProcessRxDataStandard+0x8b0>)
    31fa:	f032 fae7 	bl	357cc <atoi>
    31fe:	4b6b      	ldr	r3, [pc, #428]	; (33ac <APP_vProcessRxDataStandard+0x8d0>)
    3200:	f8a3 0416 	strh.w	r0, [r3, #1046]	; 0x416
    3204:	e4a3      	b.n	2b4e <APP_vProcessRxDataStandard+0x72>
    3206:	4972      	ldr	r1, [pc, #456]	; (33d0 <APP_vProcessRxDataStandard+0x8f4>)
    3208:	485f      	ldr	r0, [pc, #380]	; (3388 <APP_vProcessRxDataStandard+0x8ac>)
    320a:	2205      	movs	r2, #5
    320c:	f032 faee 	bl	357ec <memcmp>
    3210:	b950      	cbnz	r0, 3228 <APP_vProcessRxDataStandard+0x74c>
    3212:	495e      	ldr	r1, [pc, #376]	; (338c <APP_vProcessRxDataStandard+0x8b0>)
    3214:	486f      	ldr	r0, [pc, #444]	; (33d4 <APP_vProcessRxDataStandard+0x8f8>)
    3216:	f7fe fc4d 	bl	1ab4 <DbgConsole_Printf>
    321a:	485c      	ldr	r0, [pc, #368]	; (338c <APP_vProcessRxDataStandard+0x8b0>)
    321c:	f032 fad6 	bl	357cc <atoi>
    3220:	4b62      	ldr	r3, [pc, #392]	; (33ac <APP_vProcessRxDataStandard+0x8d0>)
    3222:	f8a3 0406 	strh.w	r0, [r3, #1030]	; 0x406
    3226:	e492      	b.n	2b4e <APP_vProcessRxDataStandard+0x72>
    3228:	496b      	ldr	r1, [pc, #428]	; (33d8 <APP_vProcessRxDataStandard+0x8fc>)
    322a:	4857      	ldr	r0, [pc, #348]	; (3388 <APP_vProcessRxDataStandard+0x8ac>)
    322c:	2207      	movs	r2, #7
    322e:	f032 fadd 	bl	357ec <memcmp>
    3232:	b950      	cbnz	r0, 324a <APP_vProcessRxDataStandard+0x76e>
    3234:	4955      	ldr	r1, [pc, #340]	; (338c <APP_vProcessRxDataStandard+0x8b0>)
    3236:	4869      	ldr	r0, [pc, #420]	; (33dc <APP_vProcessRxDataStandard+0x900>)
    3238:	f7fe fc3c 	bl	1ab4 <DbgConsole_Printf>
    323c:	4853      	ldr	r0, [pc, #332]	; (338c <APP_vProcessRxDataStandard+0x8b0>)
    323e:	f032 fac9 	bl	357d4 <atol>
    3242:	4b5a      	ldr	r3, [pc, #360]	; (33ac <APP_vProcessRxDataStandard+0x8d0>)
    3244:	f8a3 0658 	strh.w	r0, [r3, #1624]	; 0x658
    3248:	e481      	b.n	2b4e <APP_vProcessRxDataStandard+0x72>
    324a:	4965      	ldr	r1, [pc, #404]	; (33e0 <APP_vProcessRxDataStandard+0x904>)
    324c:	484e      	ldr	r0, [pc, #312]	; (3388 <APP_vProcessRxDataStandard+0x8ac>)
    324e:	2205      	movs	r2, #5
    3250:	f032 facc 	bl	357ec <memcmp>
    3254:	b950      	cbnz	r0, 326c <APP_vProcessRxDataStandard+0x790>
    3256:	494d      	ldr	r1, [pc, #308]	; (338c <APP_vProcessRxDataStandard+0x8b0>)
    3258:	4862      	ldr	r0, [pc, #392]	; (33e4 <APP_vProcessRxDataStandard+0x908>)
    325a:	f7fe fc2b 	bl	1ab4 <DbgConsole_Printf>
    325e:	484b      	ldr	r0, [pc, #300]	; (338c <APP_vProcessRxDataStandard+0x8b0>)
    3260:	f032 fab8 	bl	357d4 <atol>
    3264:	4b51      	ldr	r3, [pc, #324]	; (33ac <APP_vProcessRxDataStandard+0x8d0>)
    3266:	f8a3 0656 	strh.w	r0, [r3, #1622]	; 0x656
    326a:	e470      	b.n	2b4e <APP_vProcessRxDataStandard+0x72>
    326c:	495e      	ldr	r1, [pc, #376]	; (33e8 <APP_vProcessRxDataStandard+0x90c>)
    326e:	4846      	ldr	r0, [pc, #280]	; (3388 <APP_vProcessRxDataStandard+0x8ac>)
    3270:	2205      	movs	r2, #5
    3272:	f032 fabb 	bl	357ec <memcmp>
    3276:	b950      	cbnz	r0, 328e <APP_vProcessRxDataStandard+0x7b2>
    3278:	4944      	ldr	r1, [pc, #272]	; (338c <APP_vProcessRxDataStandard+0x8b0>)
    327a:	485c      	ldr	r0, [pc, #368]	; (33ec <APP_vProcessRxDataStandard+0x910>)
    327c:	f7fe fc1a 	bl	1ab4 <DbgConsole_Printf>
    3280:	4842      	ldr	r0, [pc, #264]	; (338c <APP_vProcessRxDataStandard+0x8b0>)
    3282:	f032 faa3 	bl	357cc <atoi>
    3286:	4b49      	ldr	r3, [pc, #292]	; (33ac <APP_vProcessRxDataStandard+0x8d0>)
    3288:	f8a3 040e 	strh.w	r0, [r3, #1038]	; 0x40e
    328c:	e45f      	b.n	2b4e <APP_vProcessRxDataStandard+0x72>
    328e:	4958      	ldr	r1, [pc, #352]	; (33f0 <APP_vProcessRxDataStandard+0x914>)
    3290:	483d      	ldr	r0, [pc, #244]	; (3388 <APP_vProcessRxDataStandard+0x8ac>)
    3292:	2205      	movs	r2, #5
    3294:	f032 faaa 	bl	357ec <memcmp>
    3298:	b950      	cbnz	r0, 32b0 <APP_vProcessRxDataStandard+0x7d4>
    329a:	493c      	ldr	r1, [pc, #240]	; (338c <APP_vProcessRxDataStandard+0x8b0>)
    329c:	4855      	ldr	r0, [pc, #340]	; (33f4 <APP_vProcessRxDataStandard+0x918>)
    329e:	f7fe fc09 	bl	1ab4 <DbgConsole_Printf>
    32a2:	483a      	ldr	r0, [pc, #232]	; (338c <APP_vProcessRxDataStandard+0x8b0>)
    32a4:	f032 fa92 	bl	357cc <atoi>
    32a8:	4b40      	ldr	r3, [pc, #256]	; (33ac <APP_vProcessRxDataStandard+0x8d0>)
    32aa:	f8a3 041e 	strh.w	r0, [r3, #1054]	; 0x41e
    32ae:	e44e      	b.n	2b4e <APP_vProcessRxDataStandard+0x72>
    32b0:	4951      	ldr	r1, [pc, #324]	; (33f8 <APP_vProcessRxDataStandard+0x91c>)
    32b2:	4835      	ldr	r0, [pc, #212]	; (3388 <APP_vProcessRxDataStandard+0x8ac>)
    32b4:	2205      	movs	r2, #5
    32b6:	f032 fa99 	bl	357ec <memcmp>
    32ba:	b950      	cbnz	r0, 32d2 <APP_vProcessRxDataStandard+0x7f6>
    32bc:	4933      	ldr	r1, [pc, #204]	; (338c <APP_vProcessRxDataStandard+0x8b0>)
    32be:	484f      	ldr	r0, [pc, #316]	; (33fc <APP_vProcessRxDataStandard+0x920>)
    32c0:	f7fe fbf8 	bl	1ab4 <DbgConsole_Printf>
    32c4:	4831      	ldr	r0, [pc, #196]	; (338c <APP_vProcessRxDataStandard+0x8b0>)
    32c6:	f032 fa81 	bl	357cc <atoi>
    32ca:	4b38      	ldr	r3, [pc, #224]	; (33ac <APP_vProcessRxDataStandard+0x8d0>)
    32cc:	f8a3 042c 	strh.w	r0, [r3, #1068]	; 0x42c
    32d0:	e43d      	b.n	2b4e <APP_vProcessRxDataStandard+0x72>
    32d2:	494b      	ldr	r1, [pc, #300]	; (3400 <APP_vProcessRxDataStandard+0x924>)
    32d4:	482c      	ldr	r0, [pc, #176]	; (3388 <APP_vProcessRxDataStandard+0x8ac>)
    32d6:	2207      	movs	r2, #7
    32d8:	f032 fa88 	bl	357ec <memcmp>
    32dc:	b950      	cbnz	r0, 32f4 <APP_vProcessRxDataStandard+0x818>
    32de:	492b      	ldr	r1, [pc, #172]	; (338c <APP_vProcessRxDataStandard+0x8b0>)
    32e0:	4848      	ldr	r0, [pc, #288]	; (3404 <APP_vProcessRxDataStandard+0x928>)
    32e2:	f7fe fbe7 	bl	1ab4 <DbgConsole_Printf>
    32e6:	4829      	ldr	r0, [pc, #164]	; (338c <APP_vProcessRxDataStandard+0x8b0>)
    32e8:	f032 fa74 	bl	357d4 <atol>
    32ec:	4b2f      	ldr	r3, [pc, #188]	; (33ac <APP_vProcessRxDataStandard+0x8d0>)
    32ee:	f8a3 040c 	strh.w	r0, [r3, #1036]	; 0x40c
    32f2:	e42c      	b.n	2b4e <APP_vProcessRxDataStandard+0x72>
    32f4:	4944      	ldr	r1, [pc, #272]	; (3408 <APP_vProcessRxDataStandard+0x92c>)
    32f6:	4824      	ldr	r0, [pc, #144]	; (3388 <APP_vProcessRxDataStandard+0x8ac>)
    32f8:	2207      	movs	r2, #7
    32fa:	f032 fa77 	bl	357ec <memcmp>
    32fe:	b950      	cbnz	r0, 3316 <APP_vProcessRxDataStandard+0x83a>
    3300:	4922      	ldr	r1, [pc, #136]	; (338c <APP_vProcessRxDataStandard+0x8b0>)
    3302:	4842      	ldr	r0, [pc, #264]	; (340c <APP_vProcessRxDataStandard+0x930>)
    3304:	f7fe fbd6 	bl	1ab4 <DbgConsole_Printf>
    3308:	4820      	ldr	r0, [pc, #128]	; (338c <APP_vProcessRxDataStandard+0x8b0>)
    330a:	f032 fa63 	bl	357d4 <atol>
    330e:	4b27      	ldr	r3, [pc, #156]	; (33ac <APP_vProcessRxDataStandard+0x8d0>)
    3310:	f8a3 041c 	strh.w	r0, [r3, #1052]	; 0x41c
    3314:	e41b      	b.n	2b4e <APP_vProcessRxDataStandard+0x72>
    3316:	493e      	ldr	r1, [pc, #248]	; (3410 <APP_vProcessRxDataStandard+0x934>)
    3318:	481b      	ldr	r0, [pc, #108]	; (3388 <APP_vProcessRxDataStandard+0x8ac>)
    331a:	2207      	movs	r2, #7
    331c:	f032 fa66 	bl	357ec <memcmp>
    3320:	b950      	cbnz	r0, 3338 <APP_vProcessRxDataStandard+0x85c>
    3322:	491a      	ldr	r1, [pc, #104]	; (338c <APP_vProcessRxDataStandard+0x8b0>)
    3324:	483b      	ldr	r0, [pc, #236]	; (3414 <APP_vProcessRxDataStandard+0x938>)
    3326:	f7fe fbc5 	bl	1ab4 <DbgConsole_Printf>
    332a:	4818      	ldr	r0, [pc, #96]	; (338c <APP_vProcessRxDataStandard+0x8b0>)
    332c:	f032 fa52 	bl	357d4 <atol>
    3330:	4b1e      	ldr	r3, [pc, #120]	; (33ac <APP_vProcessRxDataStandard+0x8d0>)
    3332:	f8a3 042a 	strh.w	r0, [r3, #1066]	; 0x42a
    3336:	e40a      	b.n	2b4e <APP_vProcessRxDataStandard+0x72>
    3338:	4937      	ldr	r1, [pc, #220]	; (3418 <APP_vProcessRxDataStandard+0x93c>)
    333a:	4813      	ldr	r0, [pc, #76]	; (3388 <APP_vProcessRxDataStandard+0x8ac>)
    333c:	2206      	movs	r2, #6
    333e:	f032 fa55 	bl	357ec <memcmp>
    3342:	b910      	cbnz	r0, 334a <APP_vProcessRxDataStandard+0x86e>
    3344:	4911      	ldr	r1, [pc, #68]	; (338c <APP_vProcessRxDataStandard+0x8b0>)
    3346:	4835      	ldr	r0, [pc, #212]	; (341c <APP_vProcessRxDataStandard+0x940>)
    3348:	e7cb      	b.n	32e2 <APP_vProcessRxDataStandard+0x806>
    334a:	4935      	ldr	r1, [pc, #212]	; (3420 <APP_vProcessRxDataStandard+0x944>)
    334c:	480e      	ldr	r0, [pc, #56]	; (3388 <APP_vProcessRxDataStandard+0x8ac>)
    334e:	2208      	movs	r2, #8
    3350:	f032 fa4c 	bl	357ec <memcmp>
    3354:	b958      	cbnz	r0, 336e <APP_vProcessRxDataStandard+0x892>
    3356:	490d      	ldr	r1, [pc, #52]	; (338c <APP_vProcessRxDataStandard+0x8b0>)
    3358:	4832      	ldr	r0, [pc, #200]	; (3424 <APP_vProcessRxDataStandard+0x948>)
    335a:	f7fe fbab 	bl	1ab4 <DbgConsole_Printf>
    335e:	480b      	ldr	r0, [pc, #44]	; (338c <APP_vProcessRxDataStandard+0x8b0>)
    3360:	f032 fa38 	bl	357d4 <atol>
    3364:	4b11      	ldr	r3, [pc, #68]	; (33ac <APP_vProcessRxDataStandard+0x8d0>)
    3366:	f8a3 065a 	strh.w	r0, [r3, #1626]	; 0x65a
    336a:	f7ff bbf0 	b.w	2b4e <APP_vProcessRxDataStandard+0x72>
    336e:	492e      	ldr	r1, [pc, #184]	; (3428 <APP_vProcessRxDataStandard+0x94c>)
    3370:	4805      	ldr	r0, [pc, #20]	; (3388 <APP_vProcessRxDataStandard+0x8ac>)
    3372:	2209      	movs	r2, #9
    3374:	f032 fa3a 	bl	357ec <memcmp>
    3378:	2800      	cmp	r0, #0
    337a:	d159      	bne.n	3430 <APP_vProcessRxDataStandard+0x954>
    337c:	4903      	ldr	r1, [pc, #12]	; (338c <APP_vProcessRxDataStandard+0x8b0>)
    337e:	482b      	ldr	r0, [pc, #172]	; (342c <APP_vProcessRxDataStandard+0x950>)
    3380:	e7eb      	b.n	335a <APP_vProcessRxDataStandard+0x87e>
    3382:	bf00      	nop
    3384:	00037742 	.word	0x00037742
    3388:	0400545e 	.word	0x0400545e
    338c:	0400555e 	.word	0x0400555e
    3390:	00037747 	.word	0x00037747
    3394:	04004610 	.word	0x04004610
    3398:	04005666 	.word	0x04005666
    339c:	0400565e 	.word	0x0400565e
    33a0:	0400545d 	.word	0x0400545d
    33a4:	00037753 	.word	0x00037753
    33a8:	00037759 	.word	0x00037759
    33ac:	04003f68 	.word	0x04003f68
    33b0:	00037766 	.word	0x00037766
    33b4:	0003776d 	.word	0x0003776d
    33b8:	0003777b 	.word	0x0003777b
    33bc:	00037784 	.word	0x00037784
    33c0:	00037794 	.word	0x00037794
    33c4:	0003779b 	.word	0x0003779b
    33c8:	000377a9 	.word	0x000377a9
    33cc:	000377b1 	.word	0x000377b1
    33d0:	000377c0 	.word	0x000377c0
    33d4:	000377c6 	.word	0x000377c6
    33d8:	000377d3 	.word	0x000377d3
    33dc:	000377db 	.word	0x000377db
    33e0:	000377ea 	.word	0x000377ea
    33e4:	000377f0 	.word	0x000377f0
    33e8:	000377fd 	.word	0x000377fd
    33ec:	00037803 	.word	0x00037803
    33f0:	00037810 	.word	0x00037810
    33f4:	00037816 	.word	0x00037816
    33f8:	00037823 	.word	0x00037823
    33fc:	00037829 	.word	0x00037829
    3400:	00037836 	.word	0x00037836
    3404:	0003783e 	.word	0x0003783e
    3408:	0003784d 	.word	0x0003784d
    340c:	00037855 	.word	0x00037855
    3410:	00037864 	.word	0x00037864
    3414:	0003786c 	.word	0x0003786c
    3418:	0003787b 	.word	0x0003787b
    341c:	00037882 	.word	0x00037882
    3420:	00037890 	.word	0x00037890
    3424:	00037899 	.word	0x00037899
    3428:	000378a9 	.word	0x000378a9
    342c:	000378b3 	.word	0x000378b3
    3430:	49a7      	ldr	r1, [pc, #668]	; (36d0 <APP_vProcessRxDataStandard+0xbf4>)
    3432:	48a8      	ldr	r0, [pc, #672]	; (36d4 <APP_vProcessRxDataStandard+0xbf8>)
    3434:	2209      	movs	r2, #9
    3436:	f032 f9d9 	bl	357ec <memcmp>
    343a:	b958      	cbnz	r0, 3454 <APP_vProcessRxDataStandard+0x978>
    343c:	49a6      	ldr	r1, [pc, #664]	; (36d8 <APP_vProcessRxDataStandard+0xbfc>)
    343e:	48a7      	ldr	r0, [pc, #668]	; (36dc <APP_vProcessRxDataStandard+0xc00>)
    3440:	f7fe fb38 	bl	1ab4 <DbgConsole_Printf>
    3444:	48a4      	ldr	r0, [pc, #656]	; (36d8 <APP_vProcessRxDataStandard+0xbfc>)
    3446:	f032 f9c5 	bl	357d4 <atol>
    344a:	4ba5      	ldr	r3, [pc, #660]	; (36e0 <APP_vProcessRxDataStandard+0xc04>)
    344c:	f8a3 065c 	strh.w	r0, [r3, #1628]	; 0x65c
    3450:	f7ff bb7d 	b.w	2b4e <APP_vProcessRxDataStandard+0x72>
    3454:	49a3      	ldr	r1, [pc, #652]	; (36e4 <APP_vProcessRxDataStandard+0xc08>)
    3456:	489f      	ldr	r0, [pc, #636]	; (36d4 <APP_vProcessRxDataStandard+0xbf8>)
    3458:	2209      	movs	r2, #9
    345a:	f032 f9c7 	bl	357ec <memcmp>
    345e:	b958      	cbnz	r0, 3478 <APP_vProcessRxDataStandard+0x99c>
    3460:	499d      	ldr	r1, [pc, #628]	; (36d8 <APP_vProcessRxDataStandard+0xbfc>)
    3462:	48a1      	ldr	r0, [pc, #644]	; (36e8 <APP_vProcessRxDataStandard+0xc0c>)
    3464:	f7fe fb26 	bl	1ab4 <DbgConsole_Printf>
    3468:	489b      	ldr	r0, [pc, #620]	; (36d8 <APP_vProcessRxDataStandard+0xbfc>)
    346a:	f032 f9b3 	bl	357d4 <atol>
    346e:	4b9c      	ldr	r3, [pc, #624]	; (36e0 <APP_vProcessRxDataStandard+0xc04>)
    3470:	f8a3 065e 	strh.w	r0, [r3, #1630]	; 0x65e
    3474:	f7ff bb6b 	b.w	2b4e <APP_vProcessRxDataStandard+0x72>
    3478:	499c      	ldr	r1, [pc, #624]	; (36ec <APP_vProcessRxDataStandard+0xc10>)
    347a:	4896      	ldr	r0, [pc, #600]	; (36d4 <APP_vProcessRxDataStandard+0xbf8>)
    347c:	2207      	movs	r2, #7
    347e:	f032 f9b5 	bl	357ec <memcmp>
    3482:	b958      	cbnz	r0, 349c <APP_vProcessRxDataStandard+0x9c0>
    3484:	4994      	ldr	r1, [pc, #592]	; (36d8 <APP_vProcessRxDataStandard+0xbfc>)
    3486:	489a      	ldr	r0, [pc, #616]	; (36f0 <APP_vProcessRxDataStandard+0xc14>)
    3488:	f7fe fb14 	bl	1ab4 <DbgConsole_Printf>
    348c:	4892      	ldr	r0, [pc, #584]	; (36d8 <APP_vProcessRxDataStandard+0xbfc>)
    348e:	f032 f99d 	bl	357cc <atoi>
    3492:	4b93      	ldr	r3, [pc, #588]	; (36e0 <APP_vProcessRxDataStandard+0xc04>)
    3494:	f8a3 0408 	strh.w	r0, [r3, #1032]	; 0x408
    3498:	f7ff bb59 	b.w	2b4e <APP_vProcessRxDataStandard+0x72>
    349c:	4995      	ldr	r1, [pc, #596]	; (36f4 <APP_vProcessRxDataStandard+0xc18>)
    349e:	488d      	ldr	r0, [pc, #564]	; (36d4 <APP_vProcessRxDataStandard+0xbf8>)
    34a0:	2207      	movs	r2, #7
    34a2:	f032 f9a3 	bl	357ec <memcmp>
    34a6:	b958      	cbnz	r0, 34c0 <APP_vProcessRxDataStandard+0x9e4>
    34a8:	498b      	ldr	r1, [pc, #556]	; (36d8 <APP_vProcessRxDataStandard+0xbfc>)
    34aa:	4893      	ldr	r0, [pc, #588]	; (36f8 <APP_vProcessRxDataStandard+0xc1c>)
    34ac:	f7fe fb02 	bl	1ab4 <DbgConsole_Printf>
    34b0:	4889      	ldr	r0, [pc, #548]	; (36d8 <APP_vProcessRxDataStandard+0xbfc>)
    34b2:	f032 f98b 	bl	357cc <atoi>
    34b6:	4b8a      	ldr	r3, [pc, #552]	; (36e0 <APP_vProcessRxDataStandard+0xc04>)
    34b8:	f8a3 0418 	strh.w	r0, [r3, #1048]	; 0x418
    34bc:	f7ff bb47 	b.w	2b4e <APP_vProcessRxDataStandard+0x72>
    34c0:	498e      	ldr	r1, [pc, #568]	; (36fc <APP_vProcessRxDataStandard+0xc20>)
    34c2:	4884      	ldr	r0, [pc, #528]	; (36d4 <APP_vProcessRxDataStandard+0xbf8>)
    34c4:	2207      	movs	r2, #7
    34c6:	f032 f991 	bl	357ec <memcmp>
    34ca:	b958      	cbnz	r0, 34e4 <APP_vProcessRxDataStandard+0xa08>
    34cc:	4982      	ldr	r1, [pc, #520]	; (36d8 <APP_vProcessRxDataStandard+0xbfc>)
    34ce:	488c      	ldr	r0, [pc, #560]	; (3700 <APP_vProcessRxDataStandard+0xc24>)
    34d0:	f7fe faf0 	bl	1ab4 <DbgConsole_Printf>
    34d4:	4880      	ldr	r0, [pc, #512]	; (36d8 <APP_vProcessRxDataStandard+0xbfc>)
    34d6:	f032 f979 	bl	357cc <atoi>
    34da:	4b81      	ldr	r3, [pc, #516]	; (36e0 <APP_vProcessRxDataStandard+0xc04>)
    34dc:	f8a3 0426 	strh.w	r0, [r3, #1062]	; 0x426
    34e0:	f7ff bb35 	b.w	2b4e <APP_vProcessRxDataStandard+0x72>
    34e4:	4987      	ldr	r1, [pc, #540]	; (3704 <APP_vProcessRxDataStandard+0xc28>)
    34e6:	487b      	ldr	r0, [pc, #492]	; (36d4 <APP_vProcessRxDataStandard+0xbf8>)
    34e8:	2206      	movs	r2, #6
    34ea:	f032 f97f 	bl	357ec <memcmp>
    34ee:	b910      	cbnz	r0, 34f6 <APP_vProcessRxDataStandard+0xa1a>
    34f0:	4979      	ldr	r1, [pc, #484]	; (36d8 <APP_vProcessRxDataStandard+0xbfc>)
    34f2:	4885      	ldr	r0, [pc, #532]	; (3708 <APP_vProcessRxDataStandard+0xc2c>)
    34f4:	e7c8      	b.n	3488 <APP_vProcessRxDataStandard+0x9ac>
    34f6:	4985      	ldr	r1, [pc, #532]	; (370c <APP_vProcessRxDataStandard+0xc30>)
    34f8:	4876      	ldr	r0, [pc, #472]	; (36d4 <APP_vProcessRxDataStandard+0xbf8>)
    34fa:	2204      	movs	r2, #4
    34fc:	f032 f976 	bl	357ec <memcmp>
    3500:	b958      	cbnz	r0, 351a <APP_vProcessRxDataStandard+0xa3e>
    3502:	4875      	ldr	r0, [pc, #468]	; (36d8 <APP_vProcessRxDataStandard+0xbfc>)
    3504:	f7ff fad2 	bl	2aac <trim>
    3508:	4601      	mov	r1, r0
    350a:	4881      	ldr	r0, [pc, #516]	; (3710 <APP_vProcessRxDataStandard+0xc34>)
    350c:	f7fe fad2 	bl	1ab4 <DbgConsole_Printf>
    3510:	4971      	ldr	r1, [pc, #452]	; (36d8 <APP_vProcessRxDataStandard+0xbfc>)
    3512:	4880      	ldr	r0, [pc, #512]	; (3714 <APP_vProcessRxDataStandard+0xc38>)
    3514:	2220      	movs	r2, #32
    3516:	f7ff bb30 	b.w	2b7a <APP_vProcessRxDataStandard+0x9e>
    351a:	497f      	ldr	r1, [pc, #508]	; (3718 <APP_vProcessRxDataStandard+0xc3c>)
    351c:	486d      	ldr	r0, [pc, #436]	; (36d4 <APP_vProcessRxDataStandard+0xbf8>)
    351e:	2204      	movs	r2, #4
    3520:	f032 f964 	bl	357ec <memcmp>
    3524:	b958      	cbnz	r0, 353e <APP_vProcessRxDataStandard+0xa62>
    3526:	486c      	ldr	r0, [pc, #432]	; (36d8 <APP_vProcessRxDataStandard+0xbfc>)
    3528:	f7ff fac0 	bl	2aac <trim>
    352c:	4601      	mov	r1, r0
    352e:	487b      	ldr	r0, [pc, #492]	; (371c <APP_vProcessRxDataStandard+0xc40>)
    3530:	f7fe fac0 	bl	1ab4 <DbgConsole_Printf>
    3534:	4968      	ldr	r1, [pc, #416]	; (36d8 <APP_vProcessRxDataStandard+0xbfc>)
    3536:	487a      	ldr	r0, [pc, #488]	; (3720 <APP_vProcessRxDataStandard+0xc44>)
    3538:	2210      	movs	r2, #16
    353a:	f7ff bb1e 	b.w	2b7a <APP_vProcessRxDataStandard+0x9e>
    353e:	4979      	ldr	r1, [pc, #484]	; (3724 <APP_vProcessRxDataStandard+0xc48>)
    3540:	4864      	ldr	r0, [pc, #400]	; (36d4 <APP_vProcessRxDataStandard+0xbf8>)
    3542:	2203      	movs	r2, #3
    3544:	f032 f952 	bl	357ec <memcmp>
    3548:	b978      	cbnz	r0, 356a <APP_vProcessRxDataStandard+0xa8e>
    354a:	4c65      	ldr	r4, [pc, #404]	; (36e0 <APP_vProcessRxDataStandard+0xc04>)
    354c:	4962      	ldr	r1, [pc, #392]	; (36d8 <APP_vProcessRxDataStandard+0xbfc>)
    354e:	4876      	ldr	r0, [pc, #472]	; (3728 <APP_vProcessRxDataStandard+0xc4c>)
    3550:	f7fe fab0 	bl	1ab4 <DbgConsole_Printf>
    3554:	4960      	ldr	r1, [pc, #384]	; (36d8 <APP_vProcessRxDataStandard+0xbfc>)
    3556:	f8d4 0348 	ldr.w	r0, [r4, #840]	; 0x348
    355a:	220e      	movs	r2, #14
    355c:	f032 f976 	bl	3584c <memcpy>
    3560:	230e      	movs	r3, #14
    3562:	f884 3345 	strb.w	r3, [r4, #837]	; 0x345
    3566:	f7ff baf2 	b.w	2b4e <APP_vProcessRxDataStandard+0x72>
    356a:	4970      	ldr	r1, [pc, #448]	; (372c <APP_vProcessRxDataStandard+0xc50>)
    356c:	4859      	ldr	r0, [pc, #356]	; (36d4 <APP_vProcessRxDataStandard+0xbf8>)
    356e:	2203      	movs	r2, #3
    3570:	f032 f93c 	bl	357ec <memcmp>
    3574:	b940      	cbnz	r0, 3588 <APP_vProcessRxDataStandard+0xaac>
    3576:	4958      	ldr	r1, [pc, #352]	; (36d8 <APP_vProcessRxDataStandard+0xbfc>)
    3578:	486d      	ldr	r0, [pc, #436]	; (3730 <APP_vProcessRxDataStandard+0xc54>)
    357a:	f7fe fa9b 	bl	1ab4 <DbgConsole_Printf>
    357e:	4956      	ldr	r1, [pc, #344]	; (36d8 <APP_vProcessRxDataStandard+0xbfc>)
    3580:	486c      	ldr	r0, [pc, #432]	; (3734 <APP_vProcessRxDataStandard+0xc58>)
    3582:	2208      	movs	r2, #8
    3584:	f7ff baf9 	b.w	2b7a <APP_vProcessRxDataStandard+0x9e>
    3588:	496b      	ldr	r1, [pc, #428]	; (3738 <APP_vProcessRxDataStandard+0xc5c>)
    358a:	4852      	ldr	r0, [pc, #328]	; (36d4 <APP_vProcessRxDataStandard+0xbf8>)
    358c:	2204      	movs	r2, #4
    358e:	f032 f92d 	bl	357ec <memcmp>
    3592:	b958      	cbnz	r0, 35ac <APP_vProcessRxDataStandard+0xad0>
    3594:	4950      	ldr	r1, [pc, #320]	; (36d8 <APP_vProcessRxDataStandard+0xbfc>)
    3596:	4869      	ldr	r0, [pc, #420]	; (373c <APP_vProcessRxDataStandard+0xc60>)
    3598:	f7fe fa8c 	bl	1ab4 <DbgConsole_Printf>
    359c:	484e      	ldr	r0, [pc, #312]	; (36d8 <APP_vProcessRxDataStandard+0xbfc>)
    359e:	f032 f915 	bl	357cc <atoi>
    35a2:	4b4f      	ldr	r3, [pc, #316]	; (36e0 <APP_vProcessRxDataStandard+0xc04>)
    35a4:	f883 06b0 	strb.w	r0, [r3, #1712]	; 0x6b0
    35a8:	f7ff bad1 	b.w	2b4e <APP_vProcessRxDataStandard+0x72>
    35ac:	4964      	ldr	r1, [pc, #400]	; (3740 <APP_vProcessRxDataStandard+0xc64>)
    35ae:	4849      	ldr	r0, [pc, #292]	; (36d4 <APP_vProcessRxDataStandard+0xbf8>)
    35b0:	2204      	movs	r2, #4
    35b2:	f032 f91b 	bl	357ec <memcmp>
    35b6:	b958      	cbnz	r0, 35d0 <APP_vProcessRxDataStandard+0xaf4>
    35b8:	4947      	ldr	r1, [pc, #284]	; (36d8 <APP_vProcessRxDataStandard+0xbfc>)
    35ba:	4862      	ldr	r0, [pc, #392]	; (3744 <APP_vProcessRxDataStandard+0xc68>)
    35bc:	f7fe fa7a 	bl	1ab4 <DbgConsole_Printf>
    35c0:	4845      	ldr	r0, [pc, #276]	; (36d8 <APP_vProcessRxDataStandard+0xbfc>)
    35c2:	f032 f903 	bl	357cc <atoi>
    35c6:	4b46      	ldr	r3, [pc, #280]	; (36e0 <APP_vProcessRxDataStandard+0xc04>)
    35c8:	f883 06b1 	strb.w	r0, [r3, #1713]	; 0x6b1
    35cc:	f7ff babf 	b.w	2b4e <APP_vProcessRxDataStandard+0x72>
    35d0:	495d      	ldr	r1, [pc, #372]	; (3748 <APP_vProcessRxDataStandard+0xc6c>)
    35d2:	4840      	ldr	r0, [pc, #256]	; (36d4 <APP_vProcessRxDataStandard+0xbf8>)
    35d4:	2204      	movs	r2, #4
    35d6:	f032 f909 	bl	357ec <memcmp>
    35da:	b958      	cbnz	r0, 35f4 <APP_vProcessRxDataStandard+0xb18>
    35dc:	493e      	ldr	r1, [pc, #248]	; (36d8 <APP_vProcessRxDataStandard+0xbfc>)
    35de:	485b      	ldr	r0, [pc, #364]	; (374c <APP_vProcessRxDataStandard+0xc70>)
    35e0:	f7fe fa68 	bl	1ab4 <DbgConsole_Printf>
    35e4:	483c      	ldr	r0, [pc, #240]	; (36d8 <APP_vProcessRxDataStandard+0xbfc>)
    35e6:	f032 f8f1 	bl	357cc <atoi>
    35ea:	4b3d      	ldr	r3, [pc, #244]	; (36e0 <APP_vProcessRxDataStandard+0xc04>)
    35ec:	f883 06b2 	strb.w	r0, [r3, #1714]	; 0x6b2
    35f0:	f7ff baad 	b.w	2b4e <APP_vProcessRxDataStandard+0x72>
    35f4:	4956      	ldr	r1, [pc, #344]	; (3750 <APP_vProcessRxDataStandard+0xc74>)
    35f6:	4837      	ldr	r0, [pc, #220]	; (36d4 <APP_vProcessRxDataStandard+0xbf8>)
    35f8:	2204      	movs	r2, #4
    35fa:	f032 f8f7 	bl	357ec <memcmp>
    35fe:	b958      	cbnz	r0, 3618 <APP_vProcessRxDataStandard+0xb3c>
    3600:	4935      	ldr	r1, [pc, #212]	; (36d8 <APP_vProcessRxDataStandard+0xbfc>)
    3602:	4854      	ldr	r0, [pc, #336]	; (3754 <APP_vProcessRxDataStandard+0xc78>)
    3604:	f7fe fa56 	bl	1ab4 <DbgConsole_Printf>
    3608:	4833      	ldr	r0, [pc, #204]	; (36d8 <APP_vProcessRxDataStandard+0xbfc>)
    360a:	f032 f8df 	bl	357cc <atoi>
    360e:	4b34      	ldr	r3, [pc, #208]	; (36e0 <APP_vProcessRxDataStandard+0xc04>)
    3610:	f883 06b3 	strb.w	r0, [r3, #1715]	; 0x6b3
    3614:	f7ff ba9b 	b.w	2b4e <APP_vProcessRxDataStandard+0x72>
    3618:	494f      	ldr	r1, [pc, #316]	; (3758 <APP_vProcessRxDataStandard+0xc7c>)
    361a:	482e      	ldr	r0, [pc, #184]	; (36d4 <APP_vProcessRxDataStandard+0xbf8>)
    361c:	2204      	movs	r2, #4
    361e:	f032 f8e5 	bl	357ec <memcmp>
    3622:	b958      	cbnz	r0, 363c <APP_vProcessRxDataStandard+0xb60>
    3624:	492c      	ldr	r1, [pc, #176]	; (36d8 <APP_vProcessRxDataStandard+0xbfc>)
    3626:	484d      	ldr	r0, [pc, #308]	; (375c <APP_vProcessRxDataStandard+0xc80>)
    3628:	f7fe fa44 	bl	1ab4 <DbgConsole_Printf>
    362c:	482a      	ldr	r0, [pc, #168]	; (36d8 <APP_vProcessRxDataStandard+0xbfc>)
    362e:	f032 f8cd 	bl	357cc <atoi>
    3632:	4b2b      	ldr	r3, [pc, #172]	; (36e0 <APP_vProcessRxDataStandard+0xc04>)
    3634:	f883 06b4 	strb.w	r0, [r3, #1716]	; 0x6b4
    3638:	f7ff ba89 	b.w	2b4e <APP_vProcessRxDataStandard+0x72>
    363c:	4948      	ldr	r1, [pc, #288]	; (3760 <APP_vProcessRxDataStandard+0xc84>)
    363e:	4825      	ldr	r0, [pc, #148]	; (36d4 <APP_vProcessRxDataStandard+0xbf8>)
    3640:	2204      	movs	r2, #4
    3642:	f032 f8d3 	bl	357ec <memcmp>
    3646:	b958      	cbnz	r0, 3660 <APP_vProcessRxDataStandard+0xb84>
    3648:	4923      	ldr	r1, [pc, #140]	; (36d8 <APP_vProcessRxDataStandard+0xbfc>)
    364a:	4846      	ldr	r0, [pc, #280]	; (3764 <APP_vProcessRxDataStandard+0xc88>)
    364c:	f7fe fa32 	bl	1ab4 <DbgConsole_Printf>
    3650:	4821      	ldr	r0, [pc, #132]	; (36d8 <APP_vProcessRxDataStandard+0xbfc>)
    3652:	f032 f8bb 	bl	357cc <atoi>
    3656:	4b22      	ldr	r3, [pc, #136]	; (36e0 <APP_vProcessRxDataStandard+0xc04>)
    3658:	f883 06b5 	strb.w	r0, [r3, #1717]	; 0x6b5
    365c:	f7ff ba77 	b.w	2b4e <APP_vProcessRxDataStandard+0x72>
    3660:	4941      	ldr	r1, [pc, #260]	; (3768 <APP_vProcessRxDataStandard+0xc8c>)
    3662:	481c      	ldr	r0, [pc, #112]	; (36d4 <APP_vProcessRxDataStandard+0xbf8>)
    3664:	2206      	movs	r2, #6
    3666:	f032 f8c1 	bl	357ec <memcmp>
    366a:	b958      	cbnz	r0, 3684 <APP_vProcessRxDataStandard+0xba8>
    366c:	491a      	ldr	r1, [pc, #104]	; (36d8 <APP_vProcessRxDataStandard+0xbfc>)
    366e:	483f      	ldr	r0, [pc, #252]	; (376c <APP_vProcessRxDataStandard+0xc90>)
    3670:	f7fe fa20 	bl	1ab4 <DbgConsole_Printf>
    3674:	4818      	ldr	r0, [pc, #96]	; (36d8 <APP_vProcessRxDataStandard+0xbfc>)
    3676:	f032 f8a9 	bl	357cc <atoi>
    367a:	4b19      	ldr	r3, [pc, #100]	; (36e0 <APP_vProcessRxDataStandard+0xc04>)
    367c:	f8a3 06b6 	strh.w	r0, [r3, #1718]	; 0x6b6
    3680:	f7ff ba65 	b.w	2b4e <APP_vProcessRxDataStandard+0x72>
    3684:	493a      	ldr	r1, [pc, #232]	; (3770 <APP_vProcessRxDataStandard+0xc94>)
    3686:	4813      	ldr	r0, [pc, #76]	; (36d4 <APP_vProcessRxDataStandard+0xbf8>)
    3688:	2208      	movs	r2, #8
    368a:	f032 f8af 	bl	357ec <memcmp>
    368e:	b958      	cbnz	r0, 36a8 <APP_vProcessRxDataStandard+0xbcc>
    3690:	4911      	ldr	r1, [pc, #68]	; (36d8 <APP_vProcessRxDataStandard+0xbfc>)
    3692:	4838      	ldr	r0, [pc, #224]	; (3774 <APP_vProcessRxDataStandard+0xc98>)
    3694:	f7fe fa0e 	bl	1ab4 <DbgConsole_Printf>
    3698:	480f      	ldr	r0, [pc, #60]	; (36d8 <APP_vProcessRxDataStandard+0xbfc>)
    369a:	f032 f897 	bl	357cc <atoi>
    369e:	4b10      	ldr	r3, [pc, #64]	; (36e0 <APP_vProcessRxDataStandard+0xc04>)
    36a0:	f883 06b9 	strb.w	r0, [r3, #1721]	; 0x6b9
    36a4:	f7ff ba53 	b.w	2b4e <APP_vProcessRxDataStandard+0x72>
    36a8:	4933      	ldr	r1, [pc, #204]	; (3778 <APP_vProcessRxDataStandard+0xc9c>)
    36aa:	480a      	ldr	r0, [pc, #40]	; (36d4 <APP_vProcessRxDataStandard+0xbf8>)
    36ac:	2206      	movs	r2, #6
    36ae:	f032 f89d 	bl	357ec <memcmp>
    36b2:	2800      	cmp	r0, #0
    36b4:	d164      	bne.n	3780 <APP_vProcessRxDataStandard+0xca4>
    36b6:	4908      	ldr	r1, [pc, #32]	; (36d8 <APP_vProcessRxDataStandard+0xbfc>)
    36b8:	4830      	ldr	r0, [pc, #192]	; (377c <APP_vProcessRxDataStandard+0xca0>)
    36ba:	f7fe f9fb 	bl	1ab4 <DbgConsole_Printf>
    36be:	4806      	ldr	r0, [pc, #24]	; (36d8 <APP_vProcessRxDataStandard+0xbfc>)
    36c0:	f032 f884 	bl	357cc <atoi>
    36c4:	4b06      	ldr	r3, [pc, #24]	; (36e0 <APP_vProcessRxDataStandard+0xc04>)
    36c6:	f883 06b8 	strb.w	r0, [r3, #1720]	; 0x6b8
    36ca:	f7ff ba40 	b.w	2b4e <APP_vProcessRxDataStandard+0x72>
    36ce:	bf00      	nop
    36d0:	000378c4 	.word	0x000378c4
    36d4:	0400545e 	.word	0x0400545e
    36d8:	0400555e 	.word	0x0400555e
    36dc:	000378ce 	.word	0x000378ce
    36e0:	04003f68 	.word	0x04003f68
    36e4:	000378df 	.word	0x000378df
    36e8:	000378e9 	.word	0x000378e9
    36ec:	000378fa 	.word	0x000378fa
    36f0:	00037902 	.word	0x00037902
    36f4:	00037911 	.word	0x00037911
    36f8:	00037919 	.word	0x00037919
    36fc:	00037928 	.word	0x00037928
    3700:	00037930 	.word	0x00037930
    3704:	0003793f 	.word	0x0003793f
    3708:	00037946 	.word	0x00037946
    370c:	00037954 	.word	0x00037954
    3710:	00037959 	.word	0x00037959
    3714:	040045d0 	.word	0x040045d0
    3718:	00037965 	.word	0x00037965
    371c:	0003796a 	.word	0x0003796a
    3720:	040045f8 	.word	0x040045f8
    3724:	00037976 	.word	0x00037976
    3728:	0003797a 	.word	0x0003797a
    372c:	00037742 	.word	0x00037742
    3730:	00037747 	.word	0x00037747
    3734:	04004610 	.word	0x04004610
    3738:	00037985 	.word	0x00037985
    373c:	0003798a 	.word	0x0003798a
    3740:	00037996 	.word	0x00037996
    3744:	0003799b 	.word	0x0003799b
    3748:	000379a7 	.word	0x000379a7
    374c:	000379ac 	.word	0x000379ac
    3750:	000379b8 	.word	0x000379b8
    3754:	000379bd 	.word	0x000379bd
    3758:	000379c9 	.word	0x000379c9
    375c:	000379ce 	.word	0x000379ce
    3760:	000379da 	.word	0x000379da
    3764:	000379df 	.word	0x000379df
    3768:	000379eb 	.word	0x000379eb
    376c:	000379f2 	.word	0x000379f2
    3770:	00037a00 	.word	0x00037a00
    3774:	00037a09 	.word	0x00037a09
    3778:	00037a19 	.word	0x00037a19
    377c:	00037a20 	.word	0x00037a20
    3780:	491c      	ldr	r1, [pc, #112]	; (37f4 <APP_vProcessRxDataStandard+0xd18>)
    3782:	481d      	ldr	r0, [pc, #116]	; (37f8 <APP_vProcessRxDataStandard+0xd1c>)
    3784:	2208      	movs	r2, #8
    3786:	f032 f831 	bl	357ec <memcmp>
    378a:	b978      	cbnz	r0, 37ac <APP_vProcessRxDataStandard+0xcd0>
    378c:	4c1b      	ldr	r4, [pc, #108]	; (37fc <APP_vProcessRxDataStandard+0xd20>)
    378e:	491c      	ldr	r1, [pc, #112]	; (3800 <APP_vProcessRxDataStandard+0xd24>)
    3790:	481c      	ldr	r0, [pc, #112]	; (3804 <APP_vProcessRxDataStandard+0xd28>)
    3792:	f7fe f98f 	bl	1ab4 <DbgConsole_Printf>
    3796:	491a      	ldr	r1, [pc, #104]	; (3800 <APP_vProcessRxDataStandard+0xd24>)
    3798:	f8d4 06c0 	ldr.w	r0, [r4, #1728]	; 0x6c0
    379c:	2262      	movs	r2, #98	; 0x62
    379e:	f032 f855 	bl	3584c <memcpy>
    37a2:	2348      	movs	r3, #72	; 0x48
    37a4:	f884 36bd 	strb.w	r3, [r4, #1725]	; 0x6bd
    37a8:	f7ff b9d1 	b.w	2b4e <APP_vProcessRxDataStandard+0x72>
    37ac:	4916      	ldr	r1, [pc, #88]	; (3808 <APP_vProcessRxDataStandard+0xd2c>)
    37ae:	4812      	ldr	r0, [pc, #72]	; (37f8 <APP_vProcessRxDataStandard+0xd1c>)
    37b0:	2207      	movs	r2, #7
    37b2:	f032 f81b 	bl	357ec <memcmp>
    37b6:	2800      	cmp	r0, #0
    37b8:	f47f a9c9 	bne.w	2b4e <APP_vProcessRxDataStandard+0x72>
    37bc:	4c0f      	ldr	r4, [pc, #60]	; (37fc <APP_vProcessRxDataStandard+0xd20>)
    37be:	4910      	ldr	r1, [pc, #64]	; (3800 <APP_vProcessRxDataStandard+0xd24>)
    37c0:	4812      	ldr	r0, [pc, #72]	; (380c <APP_vProcessRxDataStandard+0xd30>)
    37c2:	f7fe f977 	bl	1ab4 <DbgConsole_Printf>
