
../../../Binaries/Linky_Ota_OM15081R2/Linky_Ota_OM15081R2.axf:     file format elf32-littlearm


Disassembly of section .text:

00000200 <ResetISR>:
     200:	4804      	ldr	r0, [pc, #16]	; (214 <masterboot+0x4>)
     202:	6800      	ldr	r0, [r0, #0]
     204:	0000      	movs	r0, r0
     206:	d003      	beq.n	210 <masterboot>
     208:	4903      	ldr	r1, [pc, #12]	; (218 <masterboot+0x8>)
     20a:	6809      	ldr	r1, [r1, #0]
     20c:	468d      	mov	sp, r1
     20e:	4700      	bx	r0

00000210 <masterboot>:
     210:	4802      	ldr	r0, [pc, #8]	; (21c <masterboot+0xc>)
     212:	4700      	bx	r0
     214:	40000804 	.word	0x40000804
     218:	40000808 	.word	0x40000808
     21c:	0000029f 	.word	0x0000029f

00000220 <ADC_SEQA_IRQHandler>:
     220:	e7fe      	b.n	220 <ADC_SEQA_IRQHandler>

00000222 <NMI_Handler>:
     222:	e7fe      	b.n	222 <NMI_Handler>
     224:	e7fe      	b.n	224 <NMI_Handler+0x2>
     226:	e7fe      	b.n	226 <NMI_Handler+0x4>
     228:	e7fe      	b.n	228 <NMI_Handler+0x6>
     22a:	e7fe      	b.n	22a <NMI_Handler+0x8>

0000022c <SVC_Handler>:
     22c:	e7fe      	b.n	22c <SVC_Handler>

0000022e <DebugMon_Handler>:
     22e:	e7fe      	b.n	22e <DebugMon_Handler>

00000230 <PendSV_Handler>:
     230:	e7fe      	b.n	230 <PendSV_Handler>
     232:	e7fe      	b.n	232 <PendSV_Handler+0x2>

00000234 <MAC_154_IRQHandler>:
     234:	b508      	push	{r3, lr}
     236:	4b06      	ldr	r3, [pc, #24]	; (250 <MAC_154_IRQHandler+0x1c>)
     238:	b113      	cbz	r3, 240 <MAC_154_IRQHandler+0xc>
     23a:	f026 fe75 	bl	26f28 <vMMAC_IntHandlerBbc>
     23e:	bd08      	pop	{r3, pc}
     240:	4b04      	ldr	r3, [pc, #16]	; (254 <MAC_154_IRQHandler+0x20>)
     242:	b113      	cbz	r3, 24a <MAC_154_IRQHandler+0x16>
     244:	f02a f9e0 	bl	2a608 <__ZIGBEE_MAC_IRQHandler_veneer>
     248:	e7f9      	b.n	23e <MAC_154_IRQHandler+0xa>
     24a:	f7ff ffe9 	bl	220 <ADC_SEQA_IRQHandler>
     24e:	bf00      	nop
     250:	00026f29 	.word	0x00026f29
     254:	03006b65 	.word	0x03006b65

00000258 <MODEM_154_IRQHandler>:
     258:	b508      	push	{r3, lr}
     25a:	4b06      	ldr	r3, [pc, #24]	; (274 <MODEM_154_IRQHandler+0x1c>)
     25c:	b113      	cbz	r3, 264 <MODEM_154_IRQHandler+0xc>
     25e:	f026 fe7b 	bl	26f58 <vMMAC_IntHandlerPhy>
     262:	bd08      	pop	{r3, pc}
     264:	4b04      	ldr	r3, [pc, #16]	; (278 <MODEM_154_IRQHandler+0x20>)
     266:	b113      	cbz	r3, 26e <MODEM_154_IRQHandler+0x16>
     268:	f02a f9ca 	bl	2a600 <__ZIGBEE_MODEM_IRQHandler_veneer>
     26c:	e7f9      	b.n	262 <MODEM_154_IRQHandler+0xa>
     26e:	f7ff ffd7 	bl	220 <ADC_SEQA_IRQHandler>
     272:	bf00      	nop
     274:	00026f59 	.word	0x00026f59
     278:	03000151 	.word	0x03000151

0000027c <data_init>:
     27c:	440a      	add	r2, r1
     27e:	1a40      	subs	r0, r0, r1
     280:	4291      	cmp	r1, r2
     282:	d300      	bcc.n	286 <data_init+0xa>
     284:	4770      	bx	lr
     286:	580b      	ldr	r3, [r1, r0]
     288:	f841 3b04 	str.w	r3, [r1], #4
     28c:	e7f8      	b.n	280 <data_init+0x4>

0000028e <bss_init>:
     28e:	4401      	add	r1, r0
     290:	2300      	movs	r3, #0
     292:	4288      	cmp	r0, r1
     294:	d300      	bcc.n	298 <bss_init+0xa>
     296:	4770      	bx	lr
     298:	f840 3b04 	str.w	r3, [r0], #4
     29c:	e7f9      	b.n	292 <bss_init+0x4>

0000029e <ResetISR2>:
     29e:	b570      	push	{r4, r5, r6, lr}
     2a0:	f04f 4580 	mov.w	r5, #1073741824	; 0x40000000
     2a4:	2303      	movs	r3, #3
     2a6:	f8c5 3280 	str.w	r3, [r5, #640]	; 0x280
     2aa:	4b2e      	ldr	r3, [pc, #184]	; (364 <HEAP_SIZE+0x70>)
     2ac:	b98b      	cbnz	r3, 2d2 <ResetISR2+0x34>
     2ae:	4c2e      	ldr	r4, [pc, #184]	; (368 <HEAP_SIZE+0x74>)
     2b0:	4d2e      	ldr	r5, [pc, #184]	; (36c <HEAP_SIZE+0x78>)
     2b2:	42ac      	cmp	r4, r5
     2b4:	d348      	bcc.n	348 <HEAP_SIZE+0x54>
     2b6:	4a2e      	ldr	r2, [pc, #184]	; (370 <HEAP_SIZE+0x7c>)
     2b8:	4c2e      	ldr	r4, [pc, #184]	; (374 <HEAP_SIZE+0x80>)
     2ba:	42a2      	cmp	r2, r4
     2bc:	d34b      	bcc.n	356 <HEAP_SIZE+0x62>
     2be:	4b2e      	ldr	r3, [pc, #184]	; (378 <HEAP_SIZE+0x84>)
     2c0:	4a2e      	ldr	r2, [pc, #184]	; (37c <HEAP_SIZE+0x88>)
     2c2:	601a      	str	r2, [r3, #0]
     2c4:	4b2e      	ldr	r3, [pc, #184]	; (380 <HEAP_SIZE+0x8c>)
     2c6:	b10b      	cbz	r3, 2cc <ResetISR2+0x2e>
     2c8:	f004 f8c2 	bl	4450 <SystemInit>
     2cc:	f008 ffb8 	bl	9240 <main>
     2d0:	e7fe      	b.n	2d0 <ResetISR2+0x32>
     2d2:	4b2c      	ldr	r3, [pc, #176]	; (384 <HEAP_SIZE+0x90>)
     2d4:	6f1c      	ldr	r4, [r3, #112]	; 0x70
     2d6:	f8d3 60b0 	ldr.w	r6, [r3, #176]	; 0xb0
     2da:	4b2b      	ldr	r3, [pc, #172]	; (388 <HEAP_SIZE+0x94>)
     2dc:	f004 047f 	and.w	r4, r4, #127	; 0x7f
     2e0:	4798      	blx	r3
     2e2:	2c40      	cmp	r4, #64	; 0x40
     2e4:	d1e3      	bne.n	2ae <ResetISR2+0x10>
     2e6:	4b29      	ldr	r3, [pc, #164]	; (38c <HEAP_SIZE+0x98>)
     2e8:	4033      	ands	r3, r6
     2ea:	2b04      	cmp	r3, #4
     2ec:	d1df      	bne.n	2ae <ResetISR2+0x10>
     2ee:	2802      	cmp	r0, #2
     2f0:	d1dd      	bne.n	2ae <ResetISR2+0x10>
     2f2:	f8d5 3808 	ldr.w	r3, [r5, #2056]	; 0x808
     2f6:	b113      	cbz	r3, 2fe <HEAP_SIZE+0xa>
     2f8:	4927      	ldr	r1, [pc, #156]	; (398 <HEAP_SIZE+0xa4>)
     2fa:	6809      	ldr	r1, [r1, #0]
     2fc:	468d      	mov	sp, r1
     2fe:	4c24      	ldr	r4, [pc, #144]	; (390 <HEAP_SIZE+0x9c>)
     300:	b994      	cbnz	r4, 328 <HEAP_SIZE+0x34>
     302:	4a24      	ldr	r2, [pc, #144]	; (394 <HEAP_SIZE+0xa0>)
     304:	b9da      	cbnz	r2, 33e <HEAP_SIZE+0x4a>
     306:	4b1c      	ldr	r3, [pc, #112]	; (378 <HEAP_SIZE+0x84>)
     308:	4a1c      	ldr	r2, [pc, #112]	; (37c <HEAP_SIZE+0x88>)
     30a:	601a      	str	r2, [r3, #0]
     30c:	4b1c      	ldr	r3, [pc, #112]	; (380 <HEAP_SIZE+0x8c>)
     30e:	b9c3      	cbnz	r3, 342 <HEAP_SIZE+0x4e>
     310:	f007 ffa6 	bl	8260 <WarmMain>
     314:	e7fe      	b.n	314 <HEAP_SIZE+0x20>
     316:	e9d4 0100 	ldrd	r0, r1, [r4]
     31a:	68a2      	ldr	r2, [r4, #8]
     31c:	340c      	adds	r4, #12
     31e:	f7ff ffad 	bl	27c <data_init>
     322:	42ac      	cmp	r4, r5
     324:	d3f7      	bcc.n	316 <HEAP_SIZE+0x22>
     326:	e7ec      	b.n	302 <HEAP_SIZE+0xe>
     328:	4d10      	ldr	r5, [pc, #64]	; (36c <HEAP_SIZE+0x78>)
     32a:	e7fa      	b.n	322 <HEAP_SIZE+0x2e>
     32c:	f852 0b08 	ldr.w	r0, [r2], #8
     330:	f852 1c04 	ldr.w	r1, [r2, #-4]
     334:	f7ff ffab 	bl	28e <bss_init>
     338:	42a2      	cmp	r2, r4
     33a:	d3f7      	bcc.n	32c <HEAP_SIZE+0x38>
     33c:	e7e3      	b.n	306 <HEAP_SIZE+0x12>
     33e:	4c0d      	ldr	r4, [pc, #52]	; (374 <HEAP_SIZE+0x80>)
     340:	e7fa      	b.n	338 <HEAP_SIZE+0x44>
     342:	f004 f885 	bl	4450 <SystemInit>
     346:	e7e3      	b.n	310 <HEAP_SIZE+0x1c>
     348:	e9d4 0100 	ldrd	r0, r1, [r4]
     34c:	68a2      	ldr	r2, [r4, #8]
     34e:	340c      	adds	r4, #12
     350:	f7ff ff94 	bl	27c <data_init>
     354:	e7ad      	b.n	2b2 <ResetISR2+0x14>
     356:	f852 0b08 	ldr.w	r0, [r2], #8
     35a:	f852 1c04 	ldr.w	r1, [r2, #-4]
     35e:	f7ff ff96 	bl	28e <bss_init>
     362:	e7aa      	b.n	2ba <ResetISR2+0x1c>
     364:	00008261 	.word	0x00008261
     368:	00000120 	.word	0x00000120
     36c:	00000144 	.word	0x00000144
     370:	000001c0 	.word	0x000001c0
     374:	000001d8 	.word	0x000001d8
     378:	e000ed08 	.word	0xe000ed08
     37c:	00000000 	.word	0x00000000
     380:	00004451 	.word	0x00004451
     384:	40012000 	.word	0x40012000
     388:	03000e9d 	.word	0x03000e9d
     38c:	00020004 	.word	0x00020004
     390:	00000138 	.word	0x00000138
     394:	000001d0 	.word	0x000001d0
     398:	40000808 	.word	0x40000808

0000039c <System_IRQHandler>:
     39c:	4b17      	ldr	r3, [pc, #92]	; (3fc <System_IRQHandler+0x60>)
     39e:	4918      	ldr	r1, [pc, #96]	; (400 <BOOT_RESUME_STACK_SIZE>)
     3a0:	681a      	ldr	r2, [r3, #0]
     3a2:	6f09      	ldr	r1, [r1, #112]	; 0x70
     3a4:	06c9      	lsls	r1, r1, #27
     3a6:	b510      	push	{r4, lr}
     3a8:	f002 040c 	and.w	r4, r2, #12
     3ac:	d50d      	bpl.n	3ca <System_IRQHandler+0x2e>
     3ae:	f044 0404 	orr.w	r4, r4, #4
     3b2:	681a      	ldr	r2, [r3, #0]
     3b4:	4811      	ldr	r0, [pc, #68]	; (3fc <System_IRQHandler+0x60>)
     3b6:	f022 0201 	bic.w	r2, r2, #1
     3ba:	601a      	str	r2, [r3, #0]
     3bc:	2104      	movs	r1, #4
     3be:	f004 f951 	bl	4664 <WWDT_ClearStatusFlags>
     3c2:	4810      	ldr	r0, [pc, #64]	; (404 <BOOT_RESUME_STACK_SIZE+0x4>)
     3c4:	f002 fa14 	bl	27f0 <DbgConsole_Printf>
     3c8:	e001      	b.n	3ce <System_IRQHandler+0x32>
     3ca:	0752      	lsls	r2, r2, #29
     3cc:	d4f1      	bmi.n	3b2 <System_IRQHandler+0x16>
     3ce:	0723      	lsls	r3, r4, #28
     3d0:	d512      	bpl.n	3f8 <System_IRQHandler+0x5c>
     3d2:	4c0d      	ldr	r4, [pc, #52]	; (408 <BOOT_RESUME_STACK_SIZE+0x8>)
     3d4:	4809      	ldr	r0, [pc, #36]	; (3fc <System_IRQHandler+0x60>)
     3d6:	2108      	movs	r1, #8
     3d8:	f004 f944 	bl	4664 <WWDT_ClearStatusFlags>
     3dc:	7823      	ldrb	r3, [r4, #0]
     3de:	2b07      	cmp	r3, #7
     3e0:	d80a      	bhi.n	3f8 <System_IRQHandler+0x5c>
     3e2:	4806      	ldr	r0, [pc, #24]	; (3fc <System_IRQHandler+0x60>)
     3e4:	3301      	adds	r3, #1
     3e6:	7023      	strb	r3, [r4, #0]
     3e8:	f004 f932 	bl	4650 <WWDT_Refresh>
     3ec:	7821      	ldrb	r1, [r4, #0]
     3ee:	4807      	ldr	r0, [pc, #28]	; (40c <BOOT_RESUME_STACK_SIZE+0xc>)
     3f0:	e8bd 4010 	ldmia.w	sp!, {r4, lr}
     3f4:	f002 b9fc 	b.w	27f0 <DbgConsole_Printf>
     3f8:	bd10      	pop	{r4, pc}
     3fa:	bf00      	nop
     3fc:	4000a000 	.word	0x4000a000
     400:	40012000 	.word	0x40012000
     404:	0002a610 	.word	0x0002a610
     408:	04012701 	.word	0x04012701
     40c:	0002a628 	.word	0x0002a628

00000410 <main_task>:
     410:	b570      	push	{r4, r5, r6, lr}
     412:	4b13      	ldr	r3, [pc, #76]	; (460 <main_task+0x50>)
     414:	781a      	ldrb	r2, [r3, #0]
     416:	b95a      	cbnz	r2, 430 <main_task+0x20>
     418:	2201      	movs	r2, #1
     41a:	701a      	strb	r2, [r3, #0]
     41c:	f006 fe64 	bl	70e8 <RNG_Init>
     420:	f006 fd16 	bl	6e50 <SecLib_Init>
     424:	f006 feee 	bl	7204 <MEM_Init>
     428:	f006 ffc0 	bl	73ac <TMR_Init>
     42c:	f000 fbf6 	bl	c1c <vAppMain>
     430:	4e0c      	ldr	r6, [pc, #48]	; (464 <main_task+0x54>)
     432:	4d0d      	ldr	r5, [pc, #52]	; (468 <main_task+0x58>)
     434:	4c0d      	ldr	r4, [pc, #52]	; (46c <main_task+0x5c>)
     436:	f013 ffdb 	bl	143f0 <zps_taskZPS>
     43a:	f00f fcad 	bl	fd98 <bdb_taskBDB>
     43e:	f003 fd67 	bl	3f10 <ZTIMER_vTask>
     442:	f001 f9ab 	bl	179c <APP_taskSensor>
     446:	4630      	mov	r0, r6
     448:	f004 f902 	bl	4650 <WWDT_Refresh>
     44c:	2300      	movs	r3, #0
     44e:	702b      	strb	r3, [r5, #0]
     450:	f001 fe00 	bl	2054 <vAttemptToSleep>
     454:	f007 fd4c 	bl	7ef0 <PWR_EnterLowPower>
     458:	7823      	ldrb	r3, [r4, #0]
     45a:	2b00      	cmp	r3, #0
     45c:	d1eb      	bne.n	436 <main_task+0x26>
     45e:	bd70      	pop	{r4, r5, r6, pc}
     460:	040126fa 	.word	0x040126fa
     464:	4000a000 	.word	0x4000a000
     468:	04012701 	.word	0x04012701
     46c:	0002e130 	.word	0x0002e130

00000470 <APP_vSetUpHardware>:
     470:	b570      	push	{r4, r5, r6, lr}
     472:	4b26      	ldr	r3, [pc, #152]	; (50c <APP_vSetUpHardware+0x9c>)
     474:	4a26      	ldr	r2, [pc, #152]	; (510 <APP_vSetUpHardware+0xa0>)
     476:	601a      	str	r2, [r3, #0]
     478:	f240 1209 	movw	r2, #265	; 0x109
     47c:	b086      	sub	sp, #24
     47e:	605a      	str	r2, [r3, #4]
     480:	f002 fabc 	bl	29fc <BOARD_InitHardware>
     484:	220a      	movs	r2, #10
     486:	2100      	movs	r1, #0
     488:	4b22      	ldr	r3, [pc, #136]	; (514 <APP_vSetUpHardware+0xa4>)
     48a:	4823      	ldr	r0, [pc, #140]	; (518 <APP_vSetUpHardware+0xa8>)
     48c:	4c23      	ldr	r4, [pc, #140]	; (51c <APP_vSetUpHardware+0xac>)
     48e:	f002 f9cf 	bl	2830 <GPIO_PinInit>
     492:	2016      	movs	r0, #22
     494:	f004 fb06 	bl	4aa4 <CLOCK_GetFreq>
     498:	2601      	movs	r6, #1
     49a:	0885      	lsrs	r5, r0, #2
     49c:	6026      	str	r6, [r4, #0]
     49e:	a801      	add	r0, sp, #4
     4a0:	f004 f850 	bl	4544 <WWDT_GetDefaultConfig>
     4a4:	f44f 7300 	mov.w	r3, #512	; 0x200
     4a8:	2016      	movs	r0, #22
     4aa:	9304      	str	r3, [sp, #16]
     4ac:	9503      	str	r5, [sp, #12]
     4ae:	9502      	str	r5, [sp, #8]
     4b0:	f88d 6005 	strb.w	r6, [sp, #5]
     4b4:	f004 faf6 	bl	4aa4 <CLOCK_GetFreq>
     4b8:	a901      	add	r1, sp, #4
     4ba:	9005      	str	r0, [sp, #20]
     4bc:	4818      	ldr	r0, [pc, #96]	; (520 <APP_vSetUpHardware+0xb0>)
     4be:	f004 f85f 	bl	4580 <WWDT_Init>
     4c2:	4817      	ldr	r0, [pc, #92]	; (520 <APP_vSetUpHardware+0xb0>)
     4c4:	f004 f8c4 	bl	4650 <WWDT_Refresh>
     4c8:	4816      	ldr	r0, [pc, #88]	; (524 <APP_vSetUpHardware+0xb4>)
     4ca:	f06f 037f 	mvn.w	r3, #127	; 0x7f
     4ce:	21a0      	movs	r1, #160	; 0xa0
     4d0:	2b00      	cmp	r3, #0
     4d2:	bfbb      	ittet	lt
     4d4:	f003 020f 	andlt.w	r2, r3, #15
     4d8:	3a04      	sublt	r2, #4
     4da:	18e2      	addge	r2, r4, r3
     4dc:	1812      	addlt	r2, r2, r0
     4de:	f103 0301 	add.w	r3, r3, #1
     4e2:	bfac      	ite	ge
     4e4:	f882 1300 	strbge.w	r1, [r2, #768]	; 0x300
     4e8:	7611      	strblt	r1, [r2, #24]
     4ea:	2b36      	cmp	r3, #54	; 0x36
     4ec:	d1f0      	bne.n	4d0 <APP_vSetUpHardware+0x60>
     4ee:	4b0b      	ldr	r3, [pc, #44]	; (51c <APP_vSetUpHardware+0xac>)
     4f0:	2220      	movs	r2, #32
     4f2:	f883 2300 	strb.w	r2, [r3, #768]	; 0x300
     4f6:	f04f 4380 	mov.w	r3, #1073741824	; 0x40000000
     4fa:	2203      	movs	r2, #3
     4fc:	f8c3 2280 	str.w	r2, [r3, #640]	; 0x280
     500:	f003 ff56 	bl	43b0 <SystemCoreClockUpdate>
     504:	f008 fe4a 	bl	919c <OSA_TimeInit>
     508:	b006      	add	sp, #24
     50a:	bd70      	pop	{r4, r5, r6, pc}
     50c:	40001000 	.word	0x40001000
     510:	e000f733 	.word	0xe000f733
     514:	04011b40 	.word	0x04011b40
     518:	40080000 	.word	0x40080000
     51c:	e000e100 	.word	0xe000e100
     520:	4000a000 	.word	0x4000a000
     524:	e000ed00 	.word	0xe000ed00

00000528 <APP_vInitResources>:
     528:	b510      	push	{r4, lr}
     52a:	2109      	movs	r1, #9
     52c:	482f      	ldr	r0, [pc, #188]	; (5ec <APP_vInitResources+0xc4>)
     52e:	f003 fcd3 	bl	3ed8 <ZTIMER_eInit>
     532:	492f      	ldr	r1, [pc, #188]	; (5f0 <APP_vInitResources+0xc8>)
     534:	482f      	ldr	r0, [pc, #188]	; (5f4 <APP_vInitResources+0xcc>)
     536:	2301      	movs	r3, #1
     538:	2200      	movs	r2, #0
     53a:	f003 fd37 	bl	3fac <ZTIMER_eOpen>
     53e:	492e      	ldr	r1, [pc, #184]	; (5f8 <APP_vInitResources+0xd0>)
     540:	482e      	ldr	r0, [pc, #184]	; (5fc <APP_vInitResources+0xd4>)
     542:	2301      	movs	r3, #1
     544:	2200      	movs	r2, #0
     546:	f003 fd31 	bl	3fac <ZTIMER_eOpen>
     54a:	492d      	ldr	r1, [pc, #180]	; (600 <APP_vInitResources+0xd8>)
     54c:	482d      	ldr	r0, [pc, #180]	; (604 <APP_vInitResources+0xdc>)
     54e:	2301      	movs	r3, #1
     550:	2200      	movs	r2, #0
     552:	f003 fd2b 	bl	3fac <ZTIMER_eOpen>
     556:	492c      	ldr	r1, [pc, #176]	; (608 <APP_vInitResources+0xe0>)
     558:	482c      	ldr	r0, [pc, #176]	; (60c <APP_vInitResources+0xe4>)
     55a:	2301      	movs	r3, #1
     55c:	2200      	movs	r2, #0
     55e:	f003 fd25 	bl	3fac <ZTIMER_eOpen>
     562:	492b      	ldr	r1, [pc, #172]	; (610 <APP_vInitResources+0xe8>)
     564:	482b      	ldr	r0, [pc, #172]	; (614 <APP_vInitResources+0xec>)
     566:	2301      	movs	r3, #1
     568:	2200      	movs	r2, #0
     56a:	f003 fd1f 	bl	3fac <ZTIMER_eOpen>
     56e:	492a      	ldr	r1, [pc, #168]	; (618 <APP_vInitResources+0xf0>)
     570:	482a      	ldr	r0, [pc, #168]	; (61c <APP_vInitResources+0xf4>)
     572:	2301      	movs	r3, #1
     574:	2200      	movs	r2, #0
     576:	f003 fd19 	bl	3fac <ZTIMER_eOpen>
     57a:	4829      	ldr	r0, [pc, #164]	; (620 <APP_vInitResources+0xf8>)
     57c:	2300      	movs	r3, #0
     57e:	2240      	movs	r2, #64	; 0x40
     580:	2102      	movs	r1, #2
     582:	f003 fc5b 	bl	3e3c <ZQ_vQueueCreate>
     586:	4827      	ldr	r0, [pc, #156]	; (624 <APP_vInitResources+0xfc>)
     588:	2300      	movs	r3, #0
     58a:	2238      	movs	r2, #56	; 0x38
     58c:	2101      	movs	r1, #1
     58e:	f003 fc55 	bl	3e3c <ZQ_vQueueCreate>
     592:	4825      	ldr	r0, [pc, #148]	; (628 <APP_vInitResources+0x100>)
     594:	2300      	movs	r3, #0
     596:	2238      	movs	r2, #56	; 0x38
     598:	2101      	movs	r1, #1
     59a:	f003 fc4f 	bl	3e3c <ZQ_vQueueCreate>
     59e:	4823      	ldr	r0, [pc, #140]	; (62c <APP_vInitResources+0x104>)
     5a0:	2300      	movs	r3, #0
     5a2:	220c      	movs	r2, #12
     5a4:	2104      	movs	r1, #4
     5a6:	f003 fc49 	bl	3e3c <ZQ_vQueueCreate>
     5aa:	4821      	ldr	r0, [pc, #132]	; (630 <APP_vInitResources+0x108>)
     5ac:	2300      	movs	r3, #0
     5ae:	222c      	movs	r2, #44	; 0x2c
     5b0:	2104      	movs	r1, #4
     5b2:	f003 fc43 	bl	3e3c <ZQ_vQueueCreate>
     5b6:	481f      	ldr	r0, [pc, #124]	; (634 <APP_vInitResources+0x10c>)
     5b8:	2300      	movs	r3, #0
     5ba:	222c      	movs	r2, #44	; 0x2c
     5bc:	2102      	movs	r1, #2
     5be:	f003 fc3d 	bl	3e3c <ZQ_vQueueCreate>
     5c2:	481d      	ldr	r0, [pc, #116]	; (638 <APP_vInitResources+0x110>)
     5c4:	2300      	movs	r3, #0
     5c6:	2208      	movs	r2, #8
     5c8:	2104      	movs	r1, #4
     5ca:	f003 fc37 	bl	3e3c <ZQ_vQueueCreate>
     5ce:	481b      	ldr	r0, [pc, #108]	; (63c <APP_vInitResources+0x114>)
     5d0:	2300      	movs	r3, #0
     5d2:	220c      	movs	r2, #12
     5d4:	2108      	movs	r1, #8
     5d6:	f003 fc31 	bl	3e3c <ZQ_vQueueCreate>
     5da:	e8bd 4010 	ldmia.w	sp!, {r4, lr}
     5de:	4b18      	ldr	r3, [pc, #96]	; (640 <APP_vInitResources+0x118>)
     5e0:	4818      	ldr	r0, [pc, #96]	; (644 <APP_vInitResources+0x11c>)
     5e2:	2201      	movs	r2, #1
     5e4:	2196      	movs	r1, #150	; 0x96
     5e6:	f003 bc29 	b.w	3e3c <ZQ_vQueueCreate>
     5ea:	bf00      	nop
     5ec:	040125d4 	.word	0x040125d4
     5f0:	00002135 	.word	0x00002135
     5f4:	040126fe 	.word	0x040126fe
     5f8:	00001c0d 	.word	0x00001c0d
     5fc:	040126fc 	.word	0x040126fc
     600:	0000134d 	.word	0x0000134d
     604:	040126fd 	.word	0x040126fd
     608:	00001b79 	.word	0x00001b79
     60c:	04012700 	.word	0x04012700
     610:	00002541 	.word	0x00002541
     614:	040126ff 	.word	0x040126ff
     618:	00002619 	.word	0x00002619
     61c:	040126fb 	.word	0x040126fb
     620:	04012594 	.word	0x04012594
     624:	040125c4 	.word	0x040125c4
     628:	040125b4 	.word	0x040125b4
     62c:	04012584 	.word	0x04012584
     630:	04013ed4 	.word	0x04013ed4
     634:	04013ec4 	.word	0x04013ec4
     638:	04013eb4 	.word	0x04013eb4
     63c:	04013ea4 	.word	0x04013ea4
     640:	04012664 	.word	0x04012664
     644:	040125a4 	.word	0x040125a4

00000648 <APP_vRadioTempUpdate>:
     648:	b51f      	push	{r0, r1, r2, r3, r4, lr}
     64a:	4604      	mov	r4, r0
     64c:	f008 fdbe 	bl	91cc <OSA_TimeGetMsec>
     650:	4622      	mov	r2, r4
     652:	4601      	mov	r1, r0
     654:	481b      	ldr	r0, [pc, #108]	; (6c4 <APP_vRadioTempUpdate+0x7c>)
     656:	f002 f8cb 	bl	27f0 <DbgConsole_Printf>
     65a:	bb24      	cbnz	r4, 6a6 <APP_vRadioTempUpdate+0x5e>
     65c:	f008 fdb6 	bl	91cc <OSA_TimeGetMsec>
     660:	4601      	mov	r1, r0
     662:	4819      	ldr	r0, [pc, #100]	; (6c8 <APP_vRadioTempUpdate+0x80>)
     664:	f002 f8c4 	bl	27f0 <DbgConsole_Printf>
     668:	ab03      	add	r3, sp, #12
     66a:	9300      	str	r3, [sp, #0]
     66c:	2107      	movs	r1, #7
     66e:	4817      	ldr	r0, [pc, #92]	; (6cc <APP_vRadioTempUpdate+0x84>)
     670:	2308      	movs	r3, #8
     672:	f44f 7296 	mov.w	r2, #300	; 0x12c
     676:	f003 fa65 	bl	3b44 <get_temperature>
     67a:	4604      	mov	r4, r0
     67c:	4601      	mov	r1, r0
     67e:	4814      	ldr	r0, [pc, #80]	; (6d0 <APP_vRadioTempUpdate+0x88>)
     680:	f002 f8b6 	bl	27f0 <DbgConsole_Printf>
     684:	b1e4      	cbz	r4, 6c0 <APP_vRadioTempUpdate+0x78>
     686:	9903      	ldr	r1, [sp, #12]
     688:	4812      	ldr	r0, [pc, #72]	; (6d4 <APP_vRadioTempUpdate+0x8c>)
     68a:	2900      	cmp	r1, #0
     68c:	460c      	mov	r4, r1
     68e:	bfb8      	it	lt
     690:	f101 043f 	addlt.w	r4, r1, #63	; 0x3f
     694:	f344 148f 	sbfx	r4, r4, #6, #16
     698:	4622      	mov	r2, r4
     69a:	f002 f8a9 	bl	27f0 <DbgConsole_Printf>
     69e:	4620      	mov	r0, r4
     6a0:	f028 fccc 	bl	2903c <vRadio_Temp_Update>
     6a4:	e00c      	b.n	6c0 <APP_vRadioTempUpdate+0x78>
     6a6:	4809      	ldr	r0, [pc, #36]	; (6cc <APP_vRadioTempUpdate+0x84>)
     6a8:	f003 fa0a 	bl	3ac0 <load_calibration_param_from_flash>
     6ac:	4604      	mov	r4, r0
     6ae:	f008 fd8d 	bl	91cc <OSA_TimeGetMsec>
     6b2:	4622      	mov	r2, r4
     6b4:	4601      	mov	r1, r0
     6b6:	4808      	ldr	r0, [pc, #32]	; (6d8 <APP_vRadioTempUpdate+0x90>)
     6b8:	f002 f89a 	bl	27f0 <DbgConsole_Printf>
     6bc:	2c00      	cmp	r4, #0
     6be:	d1cd      	bne.n	65c <APP_vRadioTempUpdate+0x14>
     6c0:	b004      	add	sp, #16
     6c2:	bd10      	pop	{r4, pc}
     6c4:	0002a643 	.word	0x0002a643
     6c8:	0002a662 	.word	0x0002a662
     6cc:	40089000 	.word	0x40089000
     6d0:	0002acbc 	.word	0x0002acbc
     6d4:	0002a6ac 	.word	0x0002a6ac
     6d8:	0002a67d 	.word	0x0002a67d

000006dc <bRadioCB_WriteNVM>:
     6dc:	b573      	push	{r0, r1, r4, r5, r6, lr}
     6de:	460a      	mov	r2, r1
     6e0:	460d      	mov	r5, r1
     6e2:	4601      	mov	r1, r0
     6e4:	f44f 407f 	mov.w	r0, #65280	; 0xff00
     6e8:	f012 fde4 	bl	132b4 <PDM_eSaveRecordData>
     6ec:	4606      	mov	r6, r0
     6ee:	fab0 f480 	clz	r4, r0
     6f2:	f008 fd6b 	bl	91cc <OSA_TimeGetMsec>
     6f6:	0964      	lsrs	r4, r4, #5
     6f8:	4601      	mov	r1, r0
     6fa:	9600      	str	r6, [sp, #0]
     6fc:	4623      	mov	r3, r4
     6fe:	462a      	mov	r2, r5
     700:	4802      	ldr	r0, [pc, #8]	; (70c <bRadioCB_WriteNVM+0x30>)
     702:	f002 f875 	bl	27f0 <DbgConsole_Printf>
     706:	4620      	mov	r0, r4
     708:	b002      	add	sp, #8
     70a:	bd70      	pop	{r4, r5, r6, pc}
     70c:	0002a6d1 	.word	0x0002a6d1

00000710 <u16RadioCB_ReadNVM>:
     710:	b530      	push	{r4, r5, lr}
     712:	b085      	sub	sp, #20
     714:	2300      	movs	r3, #0
     716:	460a      	mov	r2, r1
     718:	460c      	mov	r4, r1
     71a:	f8ad 300e 	strh.w	r3, [sp, #14]
     71e:	4601      	mov	r1, r0
     720:	f10d 030e 	add.w	r3, sp, #14
     724:	f44f 407f 	mov.w	r0, #65280	; 0xff00
     728:	f011 f9f0 	bl	11b0c <PDM_eReadDataFromRecord>
     72c:	4605      	mov	r5, r0
     72e:	f008 fd4d 	bl	91cc <OSA_TimeGetMsec>
     732:	f8bd 300e 	ldrh.w	r3, [sp, #14]
     736:	9500      	str	r5, [sp, #0]
     738:	4601      	mov	r1, r0
     73a:	4622      	mov	r2, r4
     73c:	4803      	ldr	r0, [pc, #12]	; (74c <u16RadioCB_ReadNVM+0x3c>)
     73e:	f002 f857 	bl	27f0 <DbgConsole_Printf>
     742:	f8bd 000e 	ldrh.w	r0, [sp, #14]
     746:	b005      	add	sp, #20
     748:	bd30      	pop	{r4, r5, pc}
     74a:	bf00      	nop
     74c:	0002a700 	.word	0x0002a700

00000750 <ZPS_u8GrabMutexLock>:
     750:	b538      	push	{r3, r4, r5, lr}
     752:	460d      	mov	r5, r1
     754:	4604      	mov	r4, r0
     756:	b128      	cbz	r0, 764 <ZPS_u8GrabMutexLock+0x14>
     758:	4780      	blx	r0
     75a:	7803      	ldrb	r3, [r0, #0]
     75c:	b113      	cbz	r3, 764 <ZPS_u8GrabMutexLock+0x14>
     75e:	4b07      	ldr	r3, [pc, #28]	; (77c <ZPS_u8GrabMutexLock+0x2c>)
     760:	2201      	movs	r2, #1
     762:	601a      	str	r2, [r3, #0]
     764:	4628      	mov	r0, r5
     766:	f008 fd41 	bl	91ec <OSA_InterruptEnableRestricted>
     76a:	b114      	cbz	r4, 772 <ZPS_u8GrabMutexLock+0x22>
     76c:	47a0      	blx	r4
     76e:	2301      	movs	r3, #1
     770:	7003      	strb	r3, [r0, #0]
     772:	4628      	mov	r0, r5
     774:	f008 fd47 	bl	9206 <OSA_InterruptEnableRestore>
     778:	2000      	movs	r0, #0
     77a:	bd38      	pop	{r3, r4, r5, pc}
     77c:	badadd04 	.word	0xbadadd04

00000780 <ZPS_u8ReleaseMutexLock>:
     780:	b538      	push	{r3, r4, r5, lr}
     782:	4605      	mov	r5, r0
     784:	4608      	mov	r0, r1
     786:	460c      	mov	r4, r1
     788:	f008 fd30 	bl	91ec <OSA_InterruptEnableRestricted>
     78c:	b115      	cbz	r5, 794 <ZPS_u8ReleaseMutexLock+0x14>
     78e:	47a8      	blx	r5
     790:	2300      	movs	r3, #0
     792:	7003      	strb	r3, [r0, #0]
     794:	4620      	mov	r0, r4
     796:	f008 fd36 	bl	9206 <OSA_InterruptEnableRestore>
     79a:	2000      	movs	r0, #0
     79c:	bd38      	pop	{r3, r4, r5, pc}
     79e:	Address 0x0000079e is out of bounds.


000007a0 <ZPS_eEnterCriticalSection>:
     7a0:	b538      	push	{r3, r4, r5, lr}
     7a2:	460d      	mov	r5, r1
     7a4:	4604      	mov	r4, r0
     7a6:	b128      	cbz	r0, 7b4 <ZPS_eEnterCriticalSection+0x14>
     7a8:	4780      	blx	r0
     7aa:	7803      	ldrb	r3, [r0, #0]
     7ac:	b113      	cbz	r3, 7b4 <ZPS_eEnterCriticalSection+0x14>
     7ae:	4b06      	ldr	r3, [pc, #24]	; (7c8 <ZPS_eEnterCriticalSection+0x28>)
     7b0:	2201      	movs	r2, #1
     7b2:	601a      	str	r2, [r3, #0]
     7b4:	4628      	mov	r0, r5
     7b6:	f008 fd19 	bl	91ec <OSA_InterruptEnableRestricted>
     7ba:	b114      	cbz	r4, 7c2 <ZPS_eEnterCriticalSection+0x22>
     7bc:	47a0      	blx	r4
     7be:	2301      	movs	r3, #1
     7c0:	7003      	strb	r3, [r0, #0]
     7c2:	2000      	movs	r0, #0
     7c4:	bd38      	pop	{r3, r4, r5, pc}
     7c6:	bf00      	nop
     7c8:	badadd08 	.word	0xbadadd08

000007cc <ZPS_eExitCriticalSection>:
     7cc:	b510      	push	{r4, lr}
     7ce:	460c      	mov	r4, r1
     7d0:	b110      	cbz	r0, 7d8 <ZPS_eExitCriticalSection+0xc>
     7d2:	4780      	blx	r0
     7d4:	2300      	movs	r3, #0
     7d6:	7003      	strb	r3, [r0, #0]
     7d8:	4620      	mov	r0, r4
     7da:	f008 fd14 	bl	9206 <OSA_InterruptEnableRestore>
     7de:	2000      	movs	r0, #0
     7e0:	bd10      	pop	{r4, pc}
     7e2:	Address 0x000007e2 is out of bounds.


000007e4 <PDUM_vInit>:
     7e4:	b510      	push	{r4, lr}
     7e6:	4c07      	ldr	r4, [pc, #28]	; (804 <PDUM_vInit+0x20>)
     7e8:	4807      	ldr	r0, [pc, #28]	; (808 <PDUM_vInit+0x24>)
     7ea:	2300      	movs	r3, #0
     7ec:	2109      	movs	r1, #9
     7ee:	80a3      	strh	r3, [r4, #4]
     7f0:	8223      	strh	r3, [r4, #16]
     7f2:	f010 fbe7 	bl	10fc4 <pdum_vNPduInit>
     7f6:	4620      	mov	r0, r4
     7f8:	2102      	movs	r1, #2
     7fa:	e8bd 4010 	ldmia.w	sp!, {r4, lr}
     7fe:	f010 bd07 	b.w	11210 <pdum_vAPduInit>
     802:	bf00      	nop
     804:	04011bc0 	.word	0x04011bc0
     808:	04012704 	.word	0x04012704

0000080c <zps_vGetZpsMutex>:
     80c:	4800      	ldr	r0, [pc, #0]	; (810 <zps_vGetZpsMutex+0x4>)
     80e:	4770      	bx	lr
     810:	04012f58 	.word	0x04012f58

00000814 <vZdoServersInit>:
     814:	b510      	push	{r4, lr}
     816:	4c24      	ldr	r4, [pc, #144]	; (8a8 <vZdoServersInit+0x94>)
     818:	4824      	ldr	r0, [pc, #144]	; (8ac <vZdoServersInit+0x98>)
     81a:	4621      	mov	r1, r4
     81c:	f019 f820 	bl	19860 <zps_vAplZdoDefaultServerInit>
     820:	4621      	mov	r1, r4
     822:	4823      	ldr	r0, [pc, #140]	; (8b0 <vZdoServersInit+0x9c>)
     824:	f01b fd48 	bl	1c2b8 <zps_vAplZdoZdoClientInit>
     828:	4822      	ldr	r0, [pc, #136]	; (8b4 <vZdoServersInit+0xa0>)
     82a:	f01a f849 	bl	1a8c0 <zps_vAplZdoDeviceAnnceServerInit>
     82e:	4621      	mov	r1, r4
     830:	4821      	ldr	r0, [pc, #132]	; (8b8 <vZdoServersInit+0xa4>)
     832:	f019 ffd5 	bl	1a7e0 <zps_vAplZdoActiveEpServerInit>
     836:	4621      	mov	r1, r4
     838:	4820      	ldr	r0, [pc, #128]	; (8bc <vZdoServersInit+0xa8>)
     83a:	f019 fa92 	bl	19d62 <zps_vAplZdoNwkAddrServerInit>
     83e:	4621      	mov	r1, r4
     840:	481f      	ldr	r0, [pc, #124]	; (8c0 <vZdoServersInit+0xac>)
     842:	f019 fb67 	bl	19f14 <zps_vAplZdoIeeeAddrServerInit>
     846:	4621      	mov	r1, r4
     848:	481e      	ldr	r0, [pc, #120]	; (8c4 <vZdoServersInit+0xb0>)
     84a:	f01a f911 	bl	1aa70 <zps_vAplZdoSystemServerDiscoveryServerInit>
     84e:	4621      	mov	r1, r4
     850:	481d      	ldr	r0, [pc, #116]	; (8c8 <vZdoServersInit+0xb4>)
     852:	f019 fd9d 	bl	1a390 <zps_vAplZdoNodeDescServerInit>
     856:	4621      	mov	r1, r4
     858:	481c      	ldr	r0, [pc, #112]	; (8cc <vZdoServersInit+0xb8>)
     85a:	f019 ff47 	bl	1a6ec <zps_vAplZdoPowerDescServerInit>
     85e:	4621      	mov	r1, r4
     860:	481b      	ldr	r0, [pc, #108]	; (8d0 <vZdoServersInit+0xbc>)
     862:	f019 fc23 	bl	1a0ac <zps_vAplZdoMatchDescServerInit>
     866:	4621      	mov	r1, r4
     868:	481a      	ldr	r0, [pc, #104]	; (8d4 <vZdoServersInit+0xc0>)
     86a:	f019 fe31 	bl	1a4d0 <zps_vAplZdoSimpleDescServerInit>
     86e:	4621      	mov	r1, r4
     870:	4819      	ldr	r0, [pc, #100]	; (8d8 <vZdoServersInit+0xc4>)
     872:	f01a f943 	bl	1aafc <zps_vAplZdoMgmtLqiServerInit>
     876:	4621      	mov	r1, r4
     878:	4818      	ldr	r0, [pc, #96]	; (8dc <vZdoServersInit+0xc8>)
     87a:	f01a fa65 	bl	1ad48 <zps_vAplZdoMgmtLeaveServerInit>
     87e:	4a18      	ldr	r2, [pc, #96]	; (8e0 <vZdoServersInit+0xcc>)
     880:	4818      	ldr	r0, [pc, #96]	; (8e4 <vZdoServersInit+0xd0>)
     882:	4621      	mov	r1, r4
     884:	f01a fbb4 	bl	1aff0 <zps_vAplZdoMgmtNWKUpdateServerInit>
     888:	4621      	mov	r1, r4
     88a:	4817      	ldr	r0, [pc, #92]	; (8e8 <vZdoServersInit+0xd4>)
     88c:	f01a fe9d 	bl	1b5ca <zps_vAplZdoBindUnbindServerInit>
     890:	4816      	ldr	r0, [pc, #88]	; (8ec <vZdoServersInit+0xd8>)
     892:	4b17      	ldr	r3, [pc, #92]	; (8f0 <vZdoServersInit+0xdc>)
     894:	2101      	movs	r1, #1
     896:	220a      	movs	r2, #10
     898:	f01b f942 	bl	1bb20 <zps_vAplZdoBindRequestServerInit>
     89c:	4621      	mov	r1, r4
     89e:	4815      	ldr	r0, [pc, #84]	; (8f4 <vZdoServersInit+0xe0>)
     8a0:	e8bd 4010 	ldmia.w	sp!, {r4, lr}
     8a4:	f01b bd92 	b.w	1c3cc <zps_vAplZdoMgmtBindServerInit>
     8a8:	04011bc0 	.word	0x04011bc0
     8ac:	040135fc 	.word	0x040135fc
     8b0:	04013e9c 	.word	0x04013e9c
     8b4:	04013600 	.word	0x04013600
     8b8:	0401351c 	.word	0x0401351c
     8bc:	04013694 	.word	0x04013694
     8c0:	04013600 	.word	0x04013600
     8c4:	04013e98 	.word	0x04013e98
     8c8:	04013690 	.word	0x04013690
     8cc:	04013e90 	.word	0x04013e90
     8d0:	04013604 	.word	0x04013604
     8d4:	04013e94 	.word	0x04013e94
     8d8:	04013634 	.word	0x04013634
     8dc:	0401360c 	.word	0x0401360c
     8e0:	04011cf4 	.word	0x04011cf4
     8e4:	04013638 	.word	0x04013638
     8e8:	040135cc 	.word	0x040135cc
     8ec:	04013578 	.word	0x04013578
     8f0:	04013558 	.word	0x04013558
     8f4:	04013608 	.word	0x04013608

000008f8 <ZPS_pvAplZdoGetAplHandle>:
     8f8:	4b01      	ldr	r3, [pc, #4]	; (900 <ZPS_pvAplZdoGetAplHandle+0x8>)
     8fa:	6818      	ldr	r0, [r3, #0]
     8fc:	4770      	bx	lr
     8fe:	bf00      	nop
     900:	04011f64 	.word	0x04011f64

00000904 <ZPS_u32ApsFcSaveCountBitShift>:
     904:	200a      	movs	r0, #10
     906:	4770      	bx	lr

00000908 <ZPS_psAplDefaultDistributedAPSLinkKey>:
     908:	4800      	ldr	r0, [pc, #0]	; (90c <ZPS_psAplDefaultDistributedAPSLinkKey+0x4>)
     90a:	4770      	bx	lr
     90c:	04011c30 	.word	0x04011c30

00000910 <ZPS_psAplDefaultGlobalAPSLinkKey>:
     910:	4800      	ldr	r0, [pc, #0]	; (914 <ZPS_psAplDefaultGlobalAPSLinkKey+0x4>)
     912:	4770      	bx	lr
     914:	04011c34 	.word	0x04011c34

00000918 <ZPS_ps_groupPdmTable>:
     918:	4800      	ldr	r0, [pc, #0]	; (91c <ZPS_ps_groupPdmTable+0x4>)
     91a:	4770      	bx	lr
     91c:	04013514 	.word	0x04013514

00000920 <ZPS_pu8MaxZpsConfigEp>:
     920:	4800      	ldr	r0, [pc, #0]	; (924 <ZPS_pu8MaxZpsConfigEp+0x4>)
     922:	4770      	bx	lr
     924:	04011f60 	.word	0x04011f60

00000928 <ZPS_pau8EpMapPresent>:
     928:	4800      	ldr	r0, [pc, #0]	; (92c <ZPS_pau8EpMapPresent+0x4>)
     92a:	4770      	bx	lr
     92c:	04011bd8 	.word	0x04011bd8

00000930 <ZPS_u8ConfigStackProfileId>:
     930:	4b01      	ldr	r3, [pc, #4]	; (938 <ZPS_u8ConfigStackProfileId+0x8>)
     932:	7818      	ldrb	r0, [r3, #0]
     934:	4770      	bx	lr
     936:	bf00      	nop
     938:	04011f61 	.word	0x04011f61

0000093c <ZPS_u32NwkFcSaveCountBitShift>:
     93c:	200a      	movs	r0, #10
     93e:	4770      	bx	lr

00000940 <ZPS_psMacIFTGetTable>:
     940:	4800      	ldr	r0, [pc, #0]	; (944 <ZPS_psMacIFTGetTable+0x4>)
     942:	4770      	bx	lr
     944:	04011bdc 	.word	0x04011bdc

00000948 <ZPS_psMacIFTGetInterface>:
     948:	4b04      	ldr	r3, [pc, #16]	; (95c <ZPS_psMacIFTGetInterface+0x14>)
     94a:	f893 2040 	ldrb.w	r2, [r3, #64]	; 0x40
     94e:	4282      	cmp	r2, r0
     950:	bf86      	itte	hi
     952:	685b      	ldrhi	r3, [r3, #4]
     954:	eb03 0080 	addhi.w	r0, r3, r0, lsl #2
     958:	2000      	movls	r0, #0
     95a:	4770      	bx	lr
     95c:	04011bdc 	.word	0x04011bdc

00000960 <ZPS_vGetGpContext>:
     960:	4b01      	ldr	r3, [pc, #4]	; (968 <ZPS_vGetGpContext+0x8>)
     962:	6818      	ldr	r0, [r3, #0]
     964:	4770      	bx	lr
     966:	bf00      	nop
     968:	04012f5c 	.word	0x04012f5c

0000096c <ZPS_vGetOptionalFeatures>:
     96c:	4770      	bx	lr
     96e:	Address 0x0000096e is out of bounds.


00000970 <eRestoreReports>:
     970:	b513      	push	{r0, r1, r4, lr}
     972:	22a0      	movs	r2, #160	; 0xa0
     974:	f10d 0306 	add.w	r3, sp, #6
     978:	4905      	ldr	r1, [pc, #20]	; (990 <eRestoreReports+0x20>)
     97a:	200b      	movs	r0, #11
     97c:	f011 f8c6 	bl	11b0c <PDM_eReadDataFromRecord>
     980:	4604      	mov	r4, r0
     982:	4601      	mov	r1, r0
     984:	4803      	ldr	r0, [pc, #12]	; (994 <eRestoreReports+0x24>)
     986:	f001 ff33 	bl	27f0 <DbgConsole_Printf>
     98a:	4620      	mov	r0, r4
     98c:	b002      	add	sp, #8
     98e:	bd10      	pop	{r4, pc}
     990:	04013ee8 	.word	0x04013ee8
     994:	0002aaf8 	.word	0x0002aaf8

00000998 <vMakeSupportedAttributesReportable>:
     998:	e92d 41ff 	stmdb	sp!, {r0, r1, r2, r3, r4, r5, r6, r7, r8, lr}
     99c:	4b15      	ldr	r3, [pc, #84]	; (9f4 <vMakeSupportedAttributesReportable+0x5c>)
     99e:	4816      	ldr	r0, [pc, #88]	; (9f8 <vMakeSupportedAttributesReportable+0x60>)
     9a0:	781e      	ldrb	r6, [r3, #0]
     9a2:	4c16      	ldr	r4, [pc, #88]	; (9fc <vMakeSupportedAttributesReportable+0x64>)
     9a4:	f8df 8058 	ldr.w	r8, [pc, #88]	; a00 <vMakeSupportedAttributesReportable+0x68>
     9a8:	4631      	mov	r1, r6
     9aa:	f001 ff21 	bl	27f0 <DbgConsole_Printf>
     9ae:	2500      	movs	r5, #0
     9b0:	f994 3018 	ldrsb.w	r3, [r4, #24]
     9b4:	9303      	str	r3, [sp, #12]
     9b6:	7a23      	ldrb	r3, [r4, #8]
     9b8:	8827      	ldrh	r7, [r4, #0]
     9ba:	9302      	str	r3, [sp, #8]
     9bc:	8a23      	ldrh	r3, [r4, #16]
     9be:	9301      	str	r3, [sp, #4]
     9c0:	89e3      	ldrh	r3, [r4, #14]
     9c2:	8962      	ldrh	r2, [r4, #10]
     9c4:	9300      	str	r3, [sp, #0]
     9c6:	4639      	mov	r1, r7
     9c8:	89a3      	ldrh	r3, [r4, #12]
     9ca:	4640      	mov	r0, r8
     9cc:	f001 ff10 	bl	27f0 <DbgConsole_Printf>
     9d0:	f104 0308 	add.w	r3, r4, #8
     9d4:	9300      	str	r3, [sp, #0]
     9d6:	2200      	movs	r2, #0
     9d8:	2301      	movs	r3, #1
     9da:	4639      	mov	r1, r7
     9dc:	4630      	mov	r0, r6
     9de:	3501      	adds	r5, #1
     9e0:	f00d ffa4 	bl	e92c <eZCL_CreateLocalReport>
     9e4:	2d05      	cmp	r5, #5
     9e6:	f104 0420 	add.w	r4, r4, #32
     9ea:	d1e1      	bne.n	9b0 <vMakeSupportedAttributesReportable+0x18>
     9ec:	b004      	add	sp, #16
     9ee:	e8bd 81f0 	ldmia.w	sp!, {r4, r5, r6, r7, r8, pc}
     9f2:	bf00      	nop
     9f4:	0002af9e 	.word	0x0002af9e
     9f8:	0002ab12 	.word	0x0002ab12
     9fc:	04013ee8 	.word	0x04013ee8
     a00:	0002ab2a 	.word	0x0002ab2a

00000a04 <vLoadDefaultConfigForReportable>:
     a04:	b5f0      	push	{r4, r5, r6, r7, lr}
     a06:	481c      	ldr	r0, [pc, #112]	; (a78 <vLoadDefaultConfigForReportable+0x74>)
     a08:	4f1c      	ldr	r7, [pc, #112]	; (a7c <vLoadDefaultConfigForReportable+0x78>)
     a0a:	b087      	sub	sp, #28
     a0c:	22a0      	movs	r2, #160	; 0xa0
     a0e:	2100      	movs	r1, #0
     a10:	f029 fc8a 	bl	2a328 <memset>
     a14:	f8df c060 	ldr.w	ip, [pc, #96]	; a78 <vLoadDefaultConfigForReportable+0x74>
     a18:	2600      	movs	r6, #0
     a1a:	19bd      	adds	r5, r7, r6
     a1c:	cd0f      	ldmia	r5!, {r0, r1, r2, r3}
     a1e:	eb0c 0406 	add.w	r4, ip, r6
     a22:	c40f      	stmia	r4!, {r0, r1, r2, r3}
     a24:	e895 000f 	ldmia.w	r5, {r0, r1, r2, r3}
     a28:	3620      	adds	r6, #32
     a2a:	2ea0      	cmp	r6, #160	; 0xa0
     a2c:	e884 000f 	stmia.w	r4, {r0, r1, r2, r3}
     a30:	d1f3      	bne.n	a1a <vLoadDefaultConfigForReportable+0x16>
     a32:	4813      	ldr	r0, [pc, #76]	; (a80 <vLoadDefaultConfigForReportable+0x7c>)
     a34:	4c10      	ldr	r4, [pc, #64]	; (a78 <vLoadDefaultConfigForReportable+0x74>)
     a36:	4e13      	ldr	r6, [pc, #76]	; (a84 <vLoadDefaultConfigForReportable+0x80>)
     a38:	f001 feda 	bl	27f0 <DbgConsole_Printf>
     a3c:	2500      	movs	r5, #0
     a3e:	7e23      	ldrb	r3, [r4, #24]
     a40:	9304      	str	r3, [sp, #16]
     a42:	7a23      	ldrb	r3, [r4, #8]
     a44:	9303      	str	r3, [sp, #12]
     a46:	8a23      	ldrh	r3, [r4, #16]
     a48:	9302      	str	r3, [sp, #8]
     a4a:	89e3      	ldrh	r3, [r4, #14]
     a4c:	9301      	str	r3, [sp, #4]
     a4e:	89a3      	ldrh	r3, [r4, #12]
     a50:	9300      	str	r3, [sp, #0]
     a52:	8963      	ldrh	r3, [r4, #10]
     a54:	7a62      	ldrb	r2, [r4, #9]
     a56:	8821      	ldrh	r1, [r4, #0]
     a58:	4630      	mov	r0, r6
     a5a:	3501      	adds	r5, #1
     a5c:	f001 fec8 	bl	27f0 <DbgConsole_Printf>
     a60:	2d05      	cmp	r5, #5
     a62:	f104 0420 	add.w	r4, r4, #32
     a66:	d1ea      	bne.n	a3e <vLoadDefaultConfigForReportable+0x3a>
     a68:	4903      	ldr	r1, [pc, #12]	; (a78 <vLoadDefaultConfigForReportable+0x74>)
     a6a:	22a0      	movs	r2, #160	; 0xa0
     a6c:	200b      	movs	r0, #11
     a6e:	b007      	add	sp, #28
     a70:	e8bd 40f0 	ldmia.w	sp!, {r4, r5, r6, r7, lr}
     a74:	f012 bc1e 	b.w	132b4 <PDM_eSaveRecordData>
     a78:	04013ee8 	.word	0x04013ee8
     a7c:	04013f90 	.word	0x04013f90
     a80:	0002ab72 	.word	0x0002ab72
     a84:	0002ab8d 	.word	0x0002ab8d

00000a88 <vSaveReportableRecord>:
     a88:	b510      	push	{r4, lr}
     a8a:	4c11      	ldr	r4, [pc, #68]	; (ad0 <vSaveReportableRecord+0x48>)
     a8c:	4623      	mov	r3, r4
     a8e:	b086      	sub	sp, #24
     a90:	f823 0b08 	strh.w	r0, [r3], #8
     a94:	2218      	movs	r2, #24
     a96:	4618      	mov	r0, r3
     a98:	f029 fbac 	bl	2a1f4 <memcpy>
     a9c:	7e22      	ldrb	r2, [r4, #24]
     a9e:	9204      	str	r2, [sp, #16]
     aa0:	7a22      	ldrb	r2, [r4, #8]
     aa2:	8821      	ldrh	r1, [r4, #0]
     aa4:	480b      	ldr	r0, [pc, #44]	; (ad4 <vSaveReportableRecord+0x4c>)
     aa6:	2300      	movs	r3, #0
     aa8:	e9cd 3202 	strd	r3, r2, [sp, #8]
     aac:	8223      	strh	r3, [r4, #16]
     aae:	89e3      	ldrh	r3, [r4, #14]
     ab0:	9301      	str	r3, [sp, #4]
     ab2:	89a3      	ldrh	r3, [r4, #12]
     ab4:	7a62      	ldrb	r2, [r4, #9]
     ab6:	9300      	str	r3, [sp, #0]
     ab8:	8963      	ldrh	r3, [r4, #10]
     aba:	f001 fe99 	bl	27f0 <DbgConsole_Printf>
     abe:	22a0      	movs	r2, #160	; 0xa0
     ac0:	4621      	mov	r1, r4
     ac2:	200b      	movs	r0, #11
     ac4:	b006      	add	sp, #24
     ac6:	e8bd 4010 	ldmia.w	sp!, {r4, lr}
     aca:	f012 bbf3 	b.w	132b4 <PDM_eSaveRecordData>
     ace:	bf00      	nop
     ad0:	04013ee8 	.word	0x04013ee8
     ad4:	0002abd7 	.word	0x0002abd7

00000ad8 <vRestoreDefaultRecord>:
     ad8:	b530      	push	{r4, r5, lr}
     ada:	b087      	sub	sp, #28
     adc:	4d14      	ldr	r5, [pc, #80]	; (b30 <vRestoreDefaultRecord+0x58>)
     ade:	4c15      	ldr	r4, [pc, #84]	; (b34 <vRestoreDefaultRecord+0x5c>)
     ae0:	9500      	str	r5, [sp, #0]
     ae2:	2301      	movs	r3, #1
     ae4:	2200      	movs	r2, #0
     ae6:	f00d ff21 	bl	e92c <eZCL_CreateLocalReport>
     aea:	2100      	movs	r1, #0
     aec:	4812      	ldr	r0, [pc, #72]	; (b38 <vRestoreDefaultRecord+0x60>)
     aee:	f001 fe7f 	bl	27f0 <DbgConsole_Printf>
     af2:	4629      	mov	r1, r5
     af4:	2218      	movs	r2, #24
     af6:	f104 0008 	add.w	r0, r4, #8
     afa:	f029 fb7b 	bl	2a1f4 <memcpy>
     afe:	7e23      	ldrb	r3, [r4, #24]
     b00:	9304      	str	r3, [sp, #16]
     b02:	7a23      	ldrb	r3, [r4, #8]
     b04:	9303      	str	r3, [sp, #12]
     b06:	8a23      	ldrh	r3, [r4, #16]
     b08:	9302      	str	r3, [sp, #8]
     b0a:	89e3      	ldrh	r3, [r4, #14]
     b0c:	9301      	str	r3, [sp, #4]
     b0e:	89a3      	ldrh	r3, [r4, #12]
     b10:	7a62      	ldrb	r2, [r4, #9]
     b12:	8821      	ldrh	r1, [r4, #0]
     b14:	9300      	str	r3, [sp, #0]
     b16:	4809      	ldr	r0, [pc, #36]	; (b3c <vRestoreDefaultRecord+0x64>)
     b18:	8963      	ldrh	r3, [r4, #10]
     b1a:	f001 fe69 	bl	27f0 <DbgConsole_Printf>
     b1e:	22a0      	movs	r2, #160	; 0xa0
     b20:	4621      	mov	r1, r4
     b22:	200b      	movs	r0, #11
     b24:	b007      	add	sp, #28
     b26:	e8bd 4030 	ldmia.w	sp!, {r4, r5, lr}
     b2a:	f012 bbc3 	b.w	132b4 <PDM_eSaveRecordData>
     b2e:	bf00      	nop
     b30:	04013f98 	.word	0x04013f98
     b34:	04013ee8 	.word	0x04013ee8
     b38:	0002ac26 	.word	0x0002ac26
     b3c:	0002abd7 	.word	0x0002abd7

00000b40 <vSendImmediateReport>:
     b40:	b570      	push	{r4, r5, r6, lr}
     b42:	4605      	mov	r5, r0
     b44:	b086      	sub	sp, #24
     b46:	4817      	ldr	r0, [pc, #92]	; (ba4 <vSendImmediateReport+0x64>)
     b48:	460e      	mov	r6, r1
     b4a:	f001 fe51 	bl	27f0 <DbgConsole_Printf>
     b4e:	f00c fbb7 	bl	d2c0 <hZCL_AllocateAPduInstance>
     b52:	4604      	mov	r4, r0
     b54:	b920      	cbnz	r0, b60 <vSendImmediateReport+0x20>
     b56:	4814      	ldr	r0, [pc, #80]	; (ba8 <vSendImmediateReport+0x68>)
     b58:	f001 fe4a 	bl	27f0 <DbgConsole_Printf>
     b5c:	b006      	add	sp, #24
     b5e:	bd70      	pop	{r4, r5, r6, pc}
     b60:	4601      	mov	r1, r0
     b62:	4812      	ldr	r0, [pc, #72]	; (bac <vSendImmediateReport+0x6c>)
     b64:	f001 fe44 	bl	27f0 <DbgConsole_Printf>
     b68:	2307      	movs	r3, #7
     b6a:	f88d 3008 	strb.w	r3, [sp, #8]
     b6e:	2300      	movs	r3, #0
     b70:	f8ad 3010 	strh.w	r3, [sp, #16]
     b74:	2301      	movs	r3, #1
     b76:	4629      	mov	r1, r5
     b78:	9401      	str	r4, [sp, #4]
     b7a:	9300      	str	r3, [sp, #0]
     b7c:	4632      	mov	r2, r6
     b7e:	a802      	add	r0, sp, #8
     b80:	f00b fbb0 	bl	c2e4 <eZCL_ReportAttribute>
     b84:	4605      	mov	r5, r0
     b86:	4601      	mov	r1, r0
     b88:	4809      	ldr	r0, [pc, #36]	; (bb0 <vSendImmediateReport+0x70>)
     b8a:	f001 fe31 	bl	27f0 <DbgConsole_Printf>
     b8e:	b90d      	cbnz	r5, b94 <vSendImmediateReport+0x54>
     b90:	4808      	ldr	r0, [pc, #32]	; (bb4 <vSendImmediateReport+0x74>)
     b92:	e7e1      	b.n	b58 <vSendImmediateReport+0x18>
     b94:	4808      	ldr	r0, [pc, #32]	; (bb8 <vSendImmediateReport+0x78>)
     b96:	f001 fe2b 	bl	27f0 <DbgConsole_Printf>
     b9a:	4620      	mov	r0, r4
     b9c:	f010 fae8 	bl	11170 <PDUM_eAPduFreeAPduInstance>
     ba0:	e7dc      	b.n	b5c <vSendImmediateReport+0x1c>
     ba2:	bf00      	nop
     ba4:	0002ac3c 	.word	0x0002ac3c
     ba8:	0002ac5d 	.word	0x0002ac5d
     bac:	0002aca2 	.word	0x0002aca2
     bb0:	0002acbf 	.word	0x0002acbf
     bb4:	0002aced 	.word	0x0002aced
     bb8:	0002acf7 	.word	0x0002acf7

00000bbc <vfExtendedStatusCallBack>:
     bbc:	4770      	bx	lr
     bbe:	Address 0x00000bbe is out of bounds.


00000bc0 <PreSleep>:
     bc0:	b508      	push	{r3, lr}
     bc2:	2001      	movs	r0, #1
     bc4:	f007 f9b8 	bl	7f38 <PWR_vWakeUpConfig>
     bc8:	f025 fb86 	bl	262d8 <vAppApiSaveMacSettings>
     bcc:	f003 f996 	bl	3efc <ZTIMER_vSleep>
     bd0:	4b04      	ldr	r3, [pc, #16]	; (be4 <PreSleep+0x24>)
     bd2:	2201      	movs	r2, #1
     bd4:	729a      	strb	r2, [r3, #10]
     bd6:	f001 fdef 	bl	27b8 <DbgConsole_Deinit>
     bda:	e8bd 4008 	ldmia.w	sp!, {r3, lr}
     bde:	f001 bf45 	b.w	2a6c <BOARD_SetPinsForPowerMode>
     be2:	bf00      	nop
     be4:	40080000 	.word	0x40080000

00000be8 <Wakeup>:
     be8:	b508      	push	{r3, lr}
     bea:	f7ff fc41 	bl	470 <APP_vSetUpHardware>
     bee:	4b09      	ldr	r3, [pc, #36]	; (c14 <Wakeup+0x2c>)
     bf0:	2201      	movs	r2, #1
     bf2:	729a      	strb	r2, [r3, #10]
     bf4:	f001 f9fe 	bl	1ff4 <bTSL25721_Init>
     bf8:	4b07      	ldr	r3, [pc, #28]	; (c18 <Wakeup+0x30>)
     bfa:	6f1b      	ldr	r3, [r3, #112]	; 0x70
     bfc:	f013 0f60 	tst.w	r3, #96	; 0x60
     c00:	d007      	beq.n	c12 <Wakeup+0x2a>
     c02:	f01d fbcd 	bl	1e3a0 <vAppApiRestoreMacSettings>
     c06:	f003 f981 	bl	3f0c <ZTIMER_vWake>
     c0a:	e8bd 4008 	ldmia.w	sp!, {r3, lr}
     c0e:	f001 b87b 	b.w	1d08 <APP_bButtonInitialise>
     c12:	bd08      	pop	{r3, pc}
     c14:	40080000 	.word	0x40080000
     c18:	40012000 	.word	0x40012000

00000c1c <vAppMain>:
     c1c:	b57f      	push	{r0, r1, r2, r3, r4, r5, r6, lr}
     c1e:	f005 faaf 	bl	6180 <vDebugExceptionHandlersInitialise>
     c22:	a801      	add	r0, sp, #4
     c24:	f003 fc8e 	bl	4544 <WWDT_GetDefaultConfig>
     c28:	4b17      	ldr	r3, [pc, #92]	; (c88 <vAppMain+0x6c>)
     c2a:	6f1a      	ldr	r2, [r3, #112]	; 0x70
     c2c:	06d2      	lsls	r2, r2, #27
     c2e:	bf44      	itt	mi
     c30:	2210      	movmi	r2, #16
     c32:	671a      	strmi	r2, [r3, #112]	; 0x70
     c34:	f7ff fc78 	bl	528 <APP_vInitResources>
     c38:	2001      	movs	r0, #1
     c3a:	f007 f859 	bl	7cf0 <PWR_ChangeDeepSleepMode>
     c3e:	f007 f879 	bl	7d34 <PWR_Init>
     c42:	2001      	movs	r0, #1
     c44:	f007 f9ac 	bl	7fa0 <PWR_vForceRadioRetention>
     c48:	2200      	movs	r2, #0
     c4a:	213f      	movs	r1, #63	; 0x3f
     c4c:	f44f 6096 	mov.w	r0, #1200	; 0x4b0
     c50:	f010 fd0a 	bl	11668 <PDM_eInitialise>
     c54:	f7ff fdc6 	bl	7e4 <PDUM_vInit>
     c58:	480c      	ldr	r0, [pc, #48]	; (c8c <vAppMain+0x70>)
     c5a:	f01d fe31 	bl	1e8c0 <ZPS_vExtendedStatusSetCallback>
     c5e:	f000 fce5 	bl	162c <APP_vInitialiseNode>
     c62:	f00f f851 	bl	fd08 <BDB_vStart>
     c66:	f000 fccf 	bl	1608 <APP_bNodeIsInRunningState>
     c6a:	b908      	cbnz	r0, c70 <vAppMain+0x54>
     c6c:	f00f fa5a 	bl	10124 <BDB_eNsStartNwkSteering>
     c70:	f04f 4380 	mov.w	r3, #1073741824	; 0x40000000
     c74:	2202      	movs	r2, #2
     c76:	f8c3 2280 	str.w	r2, [r3, #640]	; 0x280
     c7a:	f003 fb99 	bl	43b0 <SystemCoreClockUpdate>
     c7e:	f008 fa8d 	bl	919c <OSA_TimeInit>
     c82:	b007      	add	sp, #28
     c84:	f85d fb04 	ldr.w	pc, [sp], #4
     c88:	40012000 	.word	0x40012000
     c8c:	00000bbd 	.word	0x00000bbd

00000c90 <vAppRegisterPWRCallbacks>:
     c90:	b508      	push	{r3, lr}
     c92:	4804      	ldr	r0, [pc, #16]	; (ca4 <vAppRegisterPWRCallbacks+0x14>)
     c94:	f007 f944 	bl	7f20 <PWR_RegisterLowPowerEnterCallback>
     c98:	e8bd 4008 	ldmia.w	sp!, {r3, lr}
     c9c:	4802      	ldr	r0, [pc, #8]	; (ca8 <vAppRegisterPWRCallbacks+0x18>)
     c9e:	f007 b945 	b.w	7f2c <PWR_RegisterLowPowerExitCallback>
     ca2:	bf00      	nop
     ca4:	00000bc1 	.word	0x00000bc1
     ca8:	00000be9 	.word	0x00000be9

00000cac <hardware_init>:
     cac:	b510      	push	{r4, lr}
     cae:	4c05      	ldr	r4, [pc, #20]	; (cc4 <hardware_init+0x18>)
     cb0:	7823      	ldrb	r3, [r4, #0]
     cb2:	b92b      	cbnz	r3, cc0 <hardware_init+0x14>
     cb4:	f7ff fbdc 	bl	470 <APP_vSetUpHardware>
     cb8:	f007 fa34 	bl	8124 <PWR_vColdStart>
     cbc:	2301      	movs	r3, #1
     cbe:	7023      	strb	r3, [r4, #0]
     cc0:	bd10      	pop	{r4, pc}
     cc2:	bf00      	nop
     cc4:	04013f88 	.word	0x04013f88

00000cc8 <eApp_ZCL_RegisterEndpoint>:
     cc8:	4601      	mov	r1, r0
     cca:	4a02      	ldr	r2, [pc, #8]	; (cd4 <eApp_ZCL_RegisterEndpoint+0xc>)
     ccc:	2001      	movs	r0, #1
     cce:	f008 bebd 	b.w	9a4c <eZLO_RegisterSimpleMeteringEndPoint>
     cd2:	bf00      	nop
     cd4:	04014060 	.word	0x04014060

00000cd8 <vAPP_ZCL_DeviceSpecific_Init>:
     cd8:	b510      	push	{r4, lr}
     cda:	4c17      	ldr	r4, [pc, #92]	; (d38 <vAPP_ZCL_DeviceSpecific_Init+0x60>)
     cdc:	4917      	ldr	r1, [pc, #92]	; (d3c <vAPP_ZCL_DeviceSpecific_Init+0x64>)
     cde:	2203      	movs	r2, #3
     ce0:	f504 7082 	add.w	r0, r4, #260	; 0x104
     ce4:	f029 fa86 	bl	2a1f4 <memcpy>
     ce8:	4915      	ldr	r1, [pc, #84]	; (d40 <vAPP_ZCL_DeviceSpecific_Init+0x68>)
     cea:	220f      	movs	r2, #15
     cec:	f504 7096 	add.w	r0, r4, #300	; 0x12c
     cf0:	f029 fa80 	bl	2a1f4 <memcpy>
     cf4:	4913      	ldr	r1, [pc, #76]	; (d44 <vAPP_ZCL_DeviceSpecific_Init+0x6c>)
     cf6:	2208      	movs	r2, #8
     cf8:	f504 70aa 	add.w	r0, r4, #340	; 0x154
     cfc:	f029 fa7a 	bl	2a1f4 <memcpy>
     d00:	4911      	ldr	r1, [pc, #68]	; (d48 <vAPP_ZCL_DeviceSpecific_Init+0x70>)
     d02:	2209      	movs	r2, #9
     d04:	f504 70d8 	add.w	r0, r4, #432	; 0x1b0
     d08:	f029 fa74 	bl	2a1f4 <memcpy>
     d0c:	490f      	ldr	r1, [pc, #60]	; (d4c <vAPP_ZCL_DeviceSpecific_Init+0x74>)
     d0e:	220c      	movs	r2, #12
     d10:	f504 70c4 	add.w	r0, r4, #392	; 0x188
     d14:	f029 fa6e 	bl	2a1f4 <memcpy>
     d18:	490d      	ldr	r1, [pc, #52]	; (d50 <vAPP_ZCL_DeviceSpecific_Init+0x78>)
     d1a:	2204      	movs	r2, #4
     d1c:	f504 70b8 	add.w	r0, r4, #368	; 0x170
     d20:	f029 fa68 	bl	2a1f4 <memcpy>
     d24:	490b      	ldr	r1, [pc, #44]	; (d54 <vAPP_ZCL_DeviceSpecific_Init+0x7c>)
     d26:	2204      	movs	r2, #4
     d28:	f504 60a3 	add.w	r0, r4, #1304	; 0x518
     d2c:	f029 fa62 	bl	2a1f4 <memcpy>
     d30:	2300      	movs	r3, #0
     d32:	f884 3253 	strb.w	r3, [r4, #595]	; 0x253
     d36:	bd10      	pop	{r4, pc}
     d38:	04014060 	.word	0x04014060
     d3c:	0002ad00 	.word	0x0002ad00
     d40:	0002ad06 	.word	0x0002ad06
     d44:	0002ad11 	.word	0x0002ad11
     d48:	0002ad1a 	.word	0x0002ad1a
     d4c:	0002ad24 	.word	0x0002ad24
     d50:	0002ad1f 	.word	0x0002ad1f
     d54:	0002ad2d 	.word	0x0002ad2d

00000d58 <vAPP_ZCL_DeviceSpecific_SetIdentifyTime>:
     d58:	4b01      	ldr	r3, [pc, #4]	; (d60 <vAPP_ZCL_DeviceSpecific_SetIdentifyTime+0x8>)
     d5a:	f8a3 01c8 	strh.w	r0, [r3, #456]	; 0x1c8
     d5e:	4770      	bx	lr
     d60:	04014060 	.word	0x04014060

00000d64 <vAPP_ZCL_DeviceSpecific_IdentifyOff>:
     d64:	4b03      	ldr	r3, [pc, #12]	; (d74 <vAPP_ZCL_DeviceSpecific_IdentifyOff+0x10>)
     d66:	2200      	movs	r2, #0
     d68:	f8a3 21c8 	strh.w	r2, [r3, #456]	; 0x1c8
     d6c:	4b02      	ldr	r3, [pc, #8]	; (d78 <vAPP_ZCL_DeviceSpecific_IdentifyOff+0x14>)
     d6e:	2201      	movs	r2, #1
     d70:	729a      	strb	r2, [r3, #10]
     d72:	4770      	bx	lr
     d74:	04014060 	.word	0x04014060
     d78:	40080000 	.word	0x40080000

00000d7c <APP_vProcessRxData>:
     d7c:	b537      	push	{r0, r1, r2, r4, r5, lr}
     d7e:	4d9b      	ldr	r5, [pc, #620]	; (fec <STACK_SIZE+0xc>)
     d80:	782b      	ldrb	r3, [r5, #0]
     d82:	2b01      	cmp	r3, #1
     d84:	f200 8255 	bhi.w	1232 <STACK_SIZE+0x252>
     d88:	4c99      	ldr	r4, [pc, #612]	; (ff0 <STACK_SIZE+0x10>)
     d8a:	4b9a      	ldr	r3, [pc, #616]	; (ff4 <STACK_SIZE+0x14>)
     d8c:	6822      	ldr	r2, [r4, #0]
     d8e:	429a      	cmp	r2, r3
     d90:	f200 8251 	bhi.w	1236 <STACK_SIZE+0x256>
     d94:	4898      	ldr	r0, [pc, #608]	; (ff8 <STACK_SIZE+0x18>)
     d96:	f10d 0107 	add.w	r1, sp, #7
     d9a:	f003 f87b 	bl	3e94 <ZQ_bQueueReceive>
     d9e:	2800      	cmp	r0, #0
     da0:	f000 8243 	beq.w	122a <STACK_SIZE+0x24a>
     da4:	f89d 3007 	ldrb.w	r3, [sp, #7]
     da8:	4a94      	ldr	r2, [pc, #592]	; (ffc <STACK_SIZE+0x1c>)
     daa:	4995      	ldr	r1, [pc, #596]	; (1000 <STACK_SIZE+0x20>)
     dac:	f44f 7087 	mov.w	r0, #270	; 0x10e
     db0:	f001 f87e 	bl	1eb0 <bSL_ReadMessage>
     db4:	b1c0      	cbz	r0, de8 <APP_vProcessRxData+0x6c>
     db6:	2300      	movs	r3, #0
     db8:	4992      	ldr	r1, [pc, #584]	; (1004 <STACK_SIZE+0x24>)
     dba:	4891      	ldr	r0, [pc, #580]	; (1000 <STACK_SIZE+0x20>)
     dbc:	6023      	str	r3, [r4, #0]
     dbe:	2204      	movs	r2, #4
     dc0:	f029 f9e8 	bl	2a194 <memcmp>
     dc4:	b9b0      	cbnz	r0, df4 <APP_vProcessRxData+0x78>
     dc6:	4c90      	ldr	r4, [pc, #576]	; (1008 <STACK_SIZE+0x28>)
     dc8:	498c      	ldr	r1, [pc, #560]	; (ffc <STACK_SIZE+0x1c>)
     dca:	4890      	ldr	r0, [pc, #576]	; (100c <STACK_SIZE+0x2c>)
     dcc:	f001 fd10 	bl	27f0 <DbgConsole_Printf>
     dd0:	498a      	ldr	r1, [pc, #552]	; (ffc <STACK_SIZE+0x1c>)
     dd2:	f8d4 0258 	ldr.w	r0, [r4, #600]	; 0x258
     dd6:	220c      	movs	r2, #12
     dd8:	f029 fa0c 	bl	2a1f4 <memcpy>
     ddc:	230c      	movs	r3, #12
     dde:	f884 3255 	strb.w	r3, [r4, #597]	; 0x255
     de2:	782b      	ldrb	r3, [r5, #0]
     de4:	3301      	adds	r3, #1
     de6:	702b      	strb	r3, [r5, #0]
     de8:	4889      	ldr	r0, [pc, #548]	; (1010 <STACK_SIZE+0x30>)
     dea:	f003 fc31 	bl	4650 <WWDT_Refresh>
     dee:	2000      	movs	r0, #0
     df0:	b003      	add	sp, #12
     df2:	bd30      	pop	{r4, r5, pc}
     df4:	4987      	ldr	r1, [pc, #540]	; (1014 <STACK_SIZE+0x34>)
     df6:	4882      	ldr	r0, [pc, #520]	; (1000 <STACK_SIZE+0x20>)
     df8:	2208      	movs	r2, #8
     dfa:	f029 f9cb 	bl	2a194 <memcmp>
     dfe:	b920      	cbnz	r0, e0a <APP_vProcessRxData+0x8e>
     e00:	497e      	ldr	r1, [pc, #504]	; (ffc <STACK_SIZE+0x1c>)
     e02:	4885      	ldr	r0, [pc, #532]	; (1018 <STACK_SIZE+0x38>)
     e04:	f001 fcf4 	bl	27f0 <DbgConsole_Printf>
     e08:	e7ee      	b.n	de8 <APP_vProcessRxData+0x6c>
     e0a:	4984      	ldr	r1, [pc, #528]	; (101c <STACK_SIZE+0x3c>)
     e0c:	487c      	ldr	r0, [pc, #496]	; (1000 <STACK_SIZE+0x20>)
     e0e:	2204      	movs	r2, #4
     e10:	f029 f9c0 	bl	2a194 <memcmp>
     e14:	b950      	cbnz	r0, e2c <APP_vProcessRxData+0xb0>
     e16:	4979      	ldr	r1, [pc, #484]	; (ffc <STACK_SIZE+0x1c>)
     e18:	4881      	ldr	r0, [pc, #516]	; (1020 <STACK_SIZE+0x40>)
     e1a:	f001 fce9 	bl	27f0 <DbgConsole_Printf>
     e1e:	4877      	ldr	r0, [pc, #476]	; (ffc <STACK_SIZE+0x1c>)
     e20:	f029 f9b4 	bl	2a18c <atol>
     e24:	4b78      	ldr	r3, [pc, #480]	; (1008 <STACK_SIZE+0x28>)
     e26:	f8c3 0228 	str.w	r0, [r3, #552]	; 0x228
     e2a:	e7dd      	b.n	de8 <APP_vProcessRxData+0x6c>
     e2c:	497d      	ldr	r1, [pc, #500]	; (1024 <STACK_SIZE+0x44>)
     e2e:	4874      	ldr	r0, [pc, #464]	; (1000 <STACK_SIZE+0x20>)
     e30:	2205      	movs	r2, #5
     e32:	f029 f9af 	bl	2a194 <memcmp>
     e36:	b910      	cbnz	r0, e3e <APP_vProcessRxData+0xc2>
     e38:	4970      	ldr	r1, [pc, #448]	; (ffc <STACK_SIZE+0x1c>)
     e3a:	487b      	ldr	r0, [pc, #492]	; (1028 <STACK_SIZE+0x48>)
     e3c:	e7e2      	b.n	e04 <APP_vProcessRxData+0x88>
     e3e:	497b      	ldr	r1, [pc, #492]	; (102c <STACK_SIZE+0x4c>)
     e40:	486f      	ldr	r0, [pc, #444]	; (1000 <STACK_SIZE+0x20>)
     e42:	2207      	movs	r2, #7
     e44:	f029 f9a6 	bl	2a194 <memcmp>
     e48:	b948      	cbnz	r0, e5e <APP_vProcessRxData+0xe2>
     e4a:	496c      	ldr	r1, [pc, #432]	; (ffc <STACK_SIZE+0x1c>)
     e4c:	4878      	ldr	r0, [pc, #480]	; (1030 <STACK_SIZE+0x50>)
     e4e:	f001 fccf 	bl	27f0 <DbgConsole_Printf>
     e52:	496a      	ldr	r1, [pc, #424]	; (ffc <STACK_SIZE+0x1c>)
     e54:	4877      	ldr	r0, [pc, #476]	; (1034 <STACK_SIZE+0x54>)
     e56:	2204      	movs	r2, #4
     e58:	f029 f9cc 	bl	2a1f4 <memcpy>
     e5c:	e7c4      	b.n	de8 <APP_vProcessRxData+0x6c>
     e5e:	4976      	ldr	r1, [pc, #472]	; (1038 <STACK_SIZE+0x58>)
     e60:	4867      	ldr	r0, [pc, #412]	; (1000 <STACK_SIZE+0x20>)
     e62:	2206      	movs	r2, #6
     e64:	f029 f996 	bl	2a194 <memcmp>
     e68:	b950      	cbnz	r0, e80 <APP_vProcessRxData+0x104>
     e6a:	4964      	ldr	r1, [pc, #400]	; (ffc <STACK_SIZE+0x1c>)
     e6c:	4873      	ldr	r0, [pc, #460]	; (103c <STACK_SIZE+0x5c>)
     e6e:	f001 fcbf 	bl	27f0 <DbgConsole_Printf>
     e72:	4862      	ldr	r0, [pc, #392]	; (ffc <STACK_SIZE+0x1c>)
     e74:	f029 f98a 	bl	2a18c <atol>
     e78:	4b63      	ldr	r3, [pc, #396]	; (1008 <STACK_SIZE+0x28>)
     e7a:	f8a3 0302 	strh.w	r0, [r3, #770]	; 0x302
     e7e:	e7b3      	b.n	de8 <APP_vProcessRxData+0x6c>
     e80:	496f      	ldr	r1, [pc, #444]	; (1040 <STACK_SIZE+0x60>)
     e82:	485f      	ldr	r0, [pc, #380]	; (1000 <STACK_SIZE+0x20>)
     e84:	2204      	movs	r2, #4
     e86:	f029 f985 	bl	2a194 <memcmp>
     e8a:	b950      	cbnz	r0, ea2 <APP_vProcessRxData+0x126>
     e8c:	495b      	ldr	r1, [pc, #364]	; (ffc <STACK_SIZE+0x1c>)
     e8e:	486d      	ldr	r0, [pc, #436]	; (1044 <STACK_SIZE+0x64>)
     e90:	f001 fcae 	bl	27f0 <DbgConsole_Printf>
     e94:	4859      	ldr	r0, [pc, #356]	; (ffc <STACK_SIZE+0x1c>)
     e96:	f029 f979 	bl	2a18c <atol>
     e9a:	4b5b      	ldr	r3, [pc, #364]	; (1008 <STACK_SIZE+0x28>)
     e9c:	f8c3 023c 	str.w	r0, [r3, #572]	; 0x23c
     ea0:	e7a2      	b.n	de8 <APP_vProcessRxData+0x6c>
     ea2:	4969      	ldr	r1, [pc, #420]	; (1048 <STACK_SIZE+0x68>)
     ea4:	4856      	ldr	r0, [pc, #344]	; (1000 <STACK_SIZE+0x20>)
     ea6:	2204      	movs	r2, #4
     ea8:	f029 f974 	bl	2a194 <memcmp>
     eac:	b950      	cbnz	r0, ec4 <APP_vProcessRxData+0x148>
     eae:	4953      	ldr	r1, [pc, #332]	; (ffc <STACK_SIZE+0x1c>)
     eb0:	4866      	ldr	r0, [pc, #408]	; (104c <STACK_SIZE+0x6c>)
     eb2:	f001 fc9d 	bl	27f0 <DbgConsole_Printf>
     eb6:	4851      	ldr	r0, [pc, #324]	; (ffc <STACK_SIZE+0x1c>)
     eb8:	f029 f968 	bl	2a18c <atol>
     ebc:	4b52      	ldr	r3, [pc, #328]	; (1008 <STACK_SIZE+0x28>)
     ebe:	f8c3 0238 	str.w	r0, [r3, #568]	; 0x238
     ec2:	e791      	b.n	de8 <APP_vProcessRxData+0x6c>
     ec4:	4962      	ldr	r1, [pc, #392]	; (1050 <STACK_SIZE+0x70>)
     ec6:	484e      	ldr	r0, [pc, #312]	; (1000 <STACK_SIZE+0x20>)
     ec8:	2205      	movs	r2, #5
     eca:	f029 f963 	bl	2a194 <memcmp>
     ece:	b910      	cbnz	r0, ed6 <APP_vProcessRxData+0x15a>
     ed0:	494a      	ldr	r1, [pc, #296]	; (ffc <STACK_SIZE+0x1c>)
     ed2:	4860      	ldr	r0, [pc, #384]	; (1054 <STACK_SIZE+0x74>)
     ed4:	e7ed      	b.n	eb2 <APP_vProcessRxData+0x136>
     ed6:	4960      	ldr	r1, [pc, #384]	; (1058 <STACK_SIZE+0x78>)
     ed8:	4849      	ldr	r0, [pc, #292]	; (1000 <STACK_SIZE+0x20>)
     eda:	2206      	movs	r2, #6
     edc:	f029 f95a 	bl	2a194 <memcmp>
     ee0:	b910      	cbnz	r0, ee8 <APP_vProcessRxData+0x16c>
     ee2:	4946      	ldr	r1, [pc, #280]	; (ffc <STACK_SIZE+0x1c>)
     ee4:	485d      	ldr	r0, [pc, #372]	; (105c <STACK_SIZE+0x7c>)
     ee6:	e7d3      	b.n	e90 <APP_vProcessRxData+0x114>
     ee8:	495d      	ldr	r1, [pc, #372]	; (1060 <STACK_SIZE+0x80>)
     eea:	4845      	ldr	r0, [pc, #276]	; (1000 <STACK_SIZE+0x20>)
     eec:	2207      	movs	r2, #7
     eee:	f029 f951 	bl	2a194 <memcmp>
     ef2:	b910      	cbnz	r0, efa <APP_vProcessRxData+0x17e>
     ef4:	4941      	ldr	r1, [pc, #260]	; (ffc <STACK_SIZE+0x1c>)
     ef6:	485b      	ldr	r0, [pc, #364]	; (1064 <STACK_SIZE+0x84>)
     ef8:	e7db      	b.n	eb2 <APP_vProcessRxData+0x136>
     efa:	495b      	ldr	r1, [pc, #364]	; (1068 <STACK_SIZE+0x88>)
     efc:	4840      	ldr	r0, [pc, #256]	; (1000 <STACK_SIZE+0x20>)
     efe:	2207      	movs	r2, #7
     f00:	f029 f948 	bl	2a194 <memcmp>
     f04:	b910      	cbnz	r0, f0c <APP_vProcessRxData+0x190>
     f06:	493d      	ldr	r1, [pc, #244]	; (ffc <STACK_SIZE+0x1c>)
     f08:	4858      	ldr	r0, [pc, #352]	; (106c <STACK_SIZE+0x8c>)
     f0a:	e7c1      	b.n	e90 <APP_vProcessRxData+0x114>
     f0c:	4958      	ldr	r1, [pc, #352]	; (1070 <STACK_SIZE+0x90>)
     f0e:	483c      	ldr	r0, [pc, #240]	; (1000 <STACK_SIZE+0x20>)
     f10:	2207      	movs	r2, #7
     f12:	f029 f93f 	bl	2a194 <memcmp>
     f16:	b950      	cbnz	r0, f2e <APP_vProcessRxData+0x1b2>
     f18:	4938      	ldr	r1, [pc, #224]	; (ffc <STACK_SIZE+0x1c>)
     f1a:	4856      	ldr	r0, [pc, #344]	; (1074 <STACK_SIZE+0x94>)
     f1c:	f001 fc68 	bl	27f0 <DbgConsole_Printf>
     f20:	4836      	ldr	r0, [pc, #216]	; (ffc <STACK_SIZE+0x1c>)
     f22:	f029 f933 	bl	2a18c <atol>
     f26:	4b38      	ldr	r3, [pc, #224]	; (1008 <STACK_SIZE+0x28>)
     f28:	f8c3 0240 	str.w	r0, [r3, #576]	; 0x240
     f2c:	e75c      	b.n	de8 <APP_vProcessRxData+0x6c>
     f2e:	4952      	ldr	r1, [pc, #328]	; (1078 <STACK_SIZE+0x98>)
     f30:	4833      	ldr	r0, [pc, #204]	; (1000 <STACK_SIZE+0x20>)
     f32:	2207      	movs	r2, #7
     f34:	f029 f92e 	bl	2a194 <memcmp>
     f38:	b950      	cbnz	r0, f50 <APP_vProcessRxData+0x1d4>
     f3a:	4930      	ldr	r1, [pc, #192]	; (ffc <STACK_SIZE+0x1c>)
     f3c:	484f      	ldr	r0, [pc, #316]	; (107c <STACK_SIZE+0x9c>)
     f3e:	f001 fc57 	bl	27f0 <DbgConsole_Printf>
     f42:	482e      	ldr	r0, [pc, #184]	; (ffc <STACK_SIZE+0x1c>)
     f44:	f029 f922 	bl	2a18c <atol>
     f48:	4b2f      	ldr	r3, [pc, #188]	; (1008 <STACK_SIZE+0x28>)
     f4a:	f8c3 0244 	str.w	r0, [r3, #580]	; 0x244
     f4e:	e74b      	b.n	de8 <APP_vProcessRxData+0x6c>
     f50:	494b      	ldr	r1, [pc, #300]	; (1080 <STACK_SIZE+0xa0>)
     f52:	482b      	ldr	r0, [pc, #172]	; (1000 <STACK_SIZE+0x20>)
     f54:	2207      	movs	r2, #7
     f56:	f029 f91d 	bl	2a194 <memcmp>
     f5a:	b950      	cbnz	r0, f72 <APP_vProcessRxData+0x1f6>
     f5c:	4927      	ldr	r1, [pc, #156]	; (ffc <STACK_SIZE+0x1c>)
     f5e:	4849      	ldr	r0, [pc, #292]	; (1084 <STACK_SIZE+0xa4>)
     f60:	f001 fc46 	bl	27f0 <DbgConsole_Printf>
     f64:	4825      	ldr	r0, [pc, #148]	; (ffc <STACK_SIZE+0x1c>)
     f66:	f029 f911 	bl	2a18c <atol>
     f6a:	4b27      	ldr	r3, [pc, #156]	; (1008 <STACK_SIZE+0x28>)
     f6c:	f8c3 0248 	str.w	r0, [r3, #584]	; 0x248
     f70:	e73a      	b.n	de8 <APP_vProcessRxData+0x6c>
     f72:	4945      	ldr	r1, [pc, #276]	; (1088 <STACK_SIZE+0xa8>)
     f74:	4822      	ldr	r0, [pc, #136]	; (1000 <STACK_SIZE+0x20>)
     f76:	2207      	movs	r2, #7
     f78:	f029 f90c 	bl	2a194 <memcmp>
     f7c:	b950      	cbnz	r0, f94 <APP_vProcessRxData+0x218>
     f7e:	491f      	ldr	r1, [pc, #124]	; (ffc <STACK_SIZE+0x1c>)
     f80:	4842      	ldr	r0, [pc, #264]	; (108c <STACK_SIZE+0xac>)
     f82:	f001 fc35 	bl	27f0 <DbgConsole_Printf>
     f86:	481d      	ldr	r0, [pc, #116]	; (ffc <STACK_SIZE+0x1c>)
     f88:	f029 f900 	bl	2a18c <atol>
     f8c:	4b1e      	ldr	r3, [pc, #120]	; (1008 <STACK_SIZE+0x28>)
     f8e:	f8c3 024c 	str.w	r0, [r3, #588]	; 0x24c
     f92:	e729      	b.n	de8 <APP_vProcessRxData+0x6c>
     f94:	493e      	ldr	r1, [pc, #248]	; (1090 <STACK_SIZE+0xb0>)
     f96:	481a      	ldr	r0, [pc, #104]	; (1000 <STACK_SIZE+0x20>)
     f98:	2205      	movs	r2, #5
     f9a:	f029 f8fb 	bl	2a194 <memcmp>
     f9e:	b950      	cbnz	r0, fb6 <APP_vProcessRxData+0x23a>
     fa0:	4916      	ldr	r1, [pc, #88]	; (ffc <STACK_SIZE+0x1c>)
     fa2:	483c      	ldr	r0, [pc, #240]	; (1094 <STACK_SIZE+0xb4>)
     fa4:	f001 fc24 	bl	27f0 <DbgConsole_Printf>
     fa8:	4814      	ldr	r0, [pc, #80]	; (ffc <STACK_SIZE+0x1c>)
     faa:	f029 f8eb 	bl	2a184 <atoi>
     fae:	4b16      	ldr	r3, [pc, #88]	; (1008 <STACK_SIZE+0x28>)
     fb0:	f8a3 02e4 	strh.w	r0, [r3, #740]	; 0x2e4
     fb4:	e718      	b.n	de8 <APP_vProcessRxData+0x6c>
     fb6:	4938      	ldr	r1, [pc, #224]	; (1098 <STACK_SIZE+0xb8>)
     fb8:	4811      	ldr	r0, [pc, #68]	; (1000 <STACK_SIZE+0x20>)
     fba:	2206      	movs	r2, #6
     fbc:	f029 f8ea 	bl	2a194 <memcmp>
     fc0:	b910      	cbnz	r0, fc8 <APP_vProcessRxData+0x24c>
     fc2:	490e      	ldr	r1, [pc, #56]	; (ffc <STACK_SIZE+0x1c>)
     fc4:	4835      	ldr	r0, [pc, #212]	; (109c <STACK_SIZE+0xbc>)
     fc6:	e7ed      	b.n	fa4 <APP_vProcessRxData+0x228>
     fc8:	4935      	ldr	r1, [pc, #212]	; (10a0 <STACK_SIZE+0xc0>)
     fca:	480d      	ldr	r0, [pc, #52]	; (1000 <STACK_SIZE+0x20>)
     fcc:	2206      	movs	r2, #6
     fce:	f029 f8e1 	bl	2a194 <memcmp>
     fd2:	2800      	cmp	r0, #0
     fd4:	d168      	bne.n	10a8 <STACK_SIZE+0xc8>
     fd6:	4909      	ldr	r1, [pc, #36]	; (ffc <STACK_SIZE+0x1c>)
     fd8:	4832      	ldr	r0, [pc, #200]	; (10a4 <STACK_SIZE+0xc4>)
     fda:	f001 fc09 	bl	27f0 <DbgConsole_Printf>
     fde:	4807      	ldr	r0, [pc, #28]	; (ffc <STACK_SIZE+0x1c>)
     fe0:	f029 f8d0 	bl	2a184 <atoi>
     fe4:	4b08      	ldr	r3, [pc, #32]	; (1008 <STACK_SIZE+0x28>)
     fe6:	f8a3 02ee 	strh.w	r0, [r3, #750]	; 0x2ee
     fea:	e6fd      	b.n	de8 <APP_vProcessRxData+0x6c>
     fec:	04014058 	.word	0x04014058
     ff0:	04014590 	.word	0x04014590
     ff4:	000186a0 	.word	0x000186a0
     ff8:	040125a4 	.word	0x040125a4
     ffc:	04014044 	.word	0x04014044
    1000:	04014030 	.word	0x04014030
    1004:	0002ad32 	.word	0x0002ad32
    1008:	04014060 	.word	0x04014060
    100c:	0002ad37 	.word	0x0002ad37
    1010:	4000a000 	.word	0x4000a000
    1014:	0002ad43 	.word	0x0002ad43
    1018:	0002ad4c 	.word	0x0002ad4c
    101c:	0002ad2d 	.word	0x0002ad2d
    1020:	0002ad5c 	.word	0x0002ad5c
    1024:	0002ad68 	.word	0x0002ad68
    1028:	0002ad6e 	.word	0x0002ad6e
    102c:	0002ad7b 	.word	0x0002ad7b
    1030:	0002ad83 	.word	0x0002ad83
    1034:	04014578 	.word	0x04014578
    1038:	0002ad92 	.word	0x0002ad92
    103c:	0002ad99 	.word	0x0002ad99
    1040:	0002ada7 	.word	0x0002ada7
    1044:	0002adac 	.word	0x0002adac
    1048:	0002adb8 	.word	0x0002adb8
    104c:	0002adbd 	.word	0x0002adbd
    1050:	0002adc9 	.word	0x0002adc9
    1054:	0002adcf 	.word	0x0002adcf
    1058:	0002addc 	.word	0x0002addc
    105c:	0002ade3 	.word	0x0002ade3
    1060:	0002adf1 	.word	0x0002adf1
    1064:	0002adf9 	.word	0x0002adf9
    1068:	0002ae08 	.word	0x0002ae08
    106c:	0002ae10 	.word	0x0002ae10
    1070:	0002ae1f 	.word	0x0002ae1f
    1074:	0002ae27 	.word	0x0002ae27
    1078:	0002ae36 	.word	0x0002ae36
    107c:	0002ae3e 	.word	0x0002ae3e
    1080:	0002ae4d 	.word	0x0002ae4d
    1084:	0002ae55 	.word	0x0002ae55
    1088:	0002ae64 	.word	0x0002ae64
    108c:	0002ae6c 	.word	0x0002ae6c
    1090:	0002ae7b 	.word	0x0002ae7b
    1094:	0002ae81 	.word	0x0002ae81
    1098:	0002ae8e 	.word	0x0002ae8e
    109c:	0002ae95 	.word	0x0002ae95
    10a0:	0002aea3 	.word	0x0002aea3
    10a4:	0002aeaa 	.word	0x0002aeaa
    10a8:	4964      	ldr	r1, [pc, #400]	; (123c <STACK_SIZE+0x25c>)
    10aa:	4865      	ldr	r0, [pc, #404]	; (1240 <STACK_SIZE+0x260>)
    10ac:	2206      	movs	r2, #6
    10ae:	f029 f871 	bl	2a194 <memcmp>
    10b2:	b950      	cbnz	r0, 10ca <STACK_SIZE+0xea>
    10b4:	4963      	ldr	r1, [pc, #396]	; (1244 <STACK_SIZE+0x264>)
    10b6:	4864      	ldr	r0, [pc, #400]	; (1248 <STACK_SIZE+0x268>)
    10b8:	f001 fb9a 	bl	27f0 <DbgConsole_Printf>
    10bc:	4861      	ldr	r0, [pc, #388]	; (1244 <STACK_SIZE+0x264>)
    10be:	f029 f861 	bl	2a184 <atoi>
    10c2:	4b62      	ldr	r3, [pc, #392]	; (124c <STACK_SIZE+0x26c>)
    10c4:	f8a3 02f2 	strh.w	r0, [r3, #754]	; 0x2f2
    10c8:	e68e      	b.n	de8 <APP_vProcessRxData+0x6c>
    10ca:	4961      	ldr	r1, [pc, #388]	; (1250 <STACK_SIZE+0x270>)
    10cc:	485c      	ldr	r0, [pc, #368]	; (1240 <STACK_SIZE+0x260>)
    10ce:	2204      	movs	r2, #4
    10d0:	f029 f860 	bl	2a194 <memcmp>
    10d4:	b950      	cbnz	r0, 10ec <STACK_SIZE+0x10c>
    10d6:	495b      	ldr	r1, [pc, #364]	; (1244 <STACK_SIZE+0x264>)
    10d8:	485e      	ldr	r0, [pc, #376]	; (1254 <STACK_SIZE+0x274>)
    10da:	f001 fb89 	bl	27f0 <DbgConsole_Printf>
    10de:	4859      	ldr	r0, [pc, #356]	; (1244 <STACK_SIZE+0x264>)
    10e0:	f029 f850 	bl	2a184 <atoi>
    10e4:	4b59      	ldr	r3, [pc, #356]	; (124c <STACK_SIZE+0x26c>)
    10e6:	f8a3 02e6 	strh.w	r0, [r3, #742]	; 0x2e6
    10ea:	e67d      	b.n	de8 <APP_vProcessRxData+0x6c>
    10ec:	495a      	ldr	r1, [pc, #360]	; (1258 <STACK_SIZE+0x278>)
    10ee:	4854      	ldr	r0, [pc, #336]	; (1240 <STACK_SIZE+0x260>)
    10f0:	2205      	movs	r2, #5
    10f2:	f029 f84f 	bl	2a194 <memcmp>
    10f6:	b910      	cbnz	r0, 10fe <STACK_SIZE+0x11e>
    10f8:	4952      	ldr	r1, [pc, #328]	; (1244 <STACK_SIZE+0x264>)
    10fa:	4858      	ldr	r0, [pc, #352]	; (125c <STACK_SIZE+0x27c>)
    10fc:	e7ed      	b.n	10da <STACK_SIZE+0xfa>
    10fe:	4958      	ldr	r1, [pc, #352]	; (1260 <STACK_SIZE+0x280>)
    1100:	484f      	ldr	r0, [pc, #316]	; (1240 <STACK_SIZE+0x260>)
    1102:	2205      	movs	r2, #5
    1104:	f029 f846 	bl	2a194 <memcmp>
    1108:	b950      	cbnz	r0, 1120 <STACK_SIZE+0x140>
    110a:	494e      	ldr	r1, [pc, #312]	; (1244 <STACK_SIZE+0x264>)
    110c:	4855      	ldr	r0, [pc, #340]	; (1264 <STACK_SIZE+0x284>)
    110e:	f001 fb6f 	bl	27f0 <DbgConsole_Printf>
    1112:	484c      	ldr	r0, [pc, #304]	; (1244 <STACK_SIZE+0x264>)
    1114:	f029 f836 	bl	2a184 <atoi>
    1118:	4b4c      	ldr	r3, [pc, #304]	; (124c <STACK_SIZE+0x26c>)
    111a:	f8a3 02f0 	strh.w	r0, [r3, #752]	; 0x2f0
    111e:	e663      	b.n	de8 <APP_vProcessRxData+0x6c>
    1120:	4951      	ldr	r1, [pc, #324]	; (1268 <STACK_SIZE+0x288>)
    1122:	4847      	ldr	r0, [pc, #284]	; (1240 <STACK_SIZE+0x260>)
    1124:	2205      	movs	r2, #5
    1126:	f029 f835 	bl	2a194 <memcmp>
    112a:	b950      	cbnz	r0, 1142 <STACK_SIZE+0x162>
    112c:	4945      	ldr	r1, [pc, #276]	; (1244 <STACK_SIZE+0x264>)
    112e:	484f      	ldr	r0, [pc, #316]	; (126c <STACK_SIZE+0x28c>)
    1130:	f001 fb5e 	bl	27f0 <DbgConsole_Printf>
    1134:	4843      	ldr	r0, [pc, #268]	; (1244 <STACK_SIZE+0x264>)
    1136:	f029 f825 	bl	2a184 <atoi>
    113a:	4b44      	ldr	r3, [pc, #272]	; (124c <STACK_SIZE+0x26c>)
    113c:	f8a3 02f4 	strh.w	r0, [r3, #756]	; 0x2f4
    1140:	e652      	b.n	de8 <APP_vProcessRxData+0x6c>
    1142:	494b      	ldr	r1, [pc, #300]	; (1270 <STACK_SIZE+0x290>)
    1144:	483e      	ldr	r0, [pc, #248]	; (1240 <STACK_SIZE+0x260>)
    1146:	2204      	movs	r2, #4
    1148:	f029 f824 	bl	2a194 <memcmp>
    114c:	b950      	cbnz	r0, 1164 <STACK_SIZE+0x184>
    114e:	493d      	ldr	r1, [pc, #244]	; (1244 <STACK_SIZE+0x264>)
    1150:	4848      	ldr	r0, [pc, #288]	; (1274 <STACK_SIZE+0x294>)
    1152:	f001 fb4d 	bl	27f0 <DbgConsole_Printf>
    1156:	483b      	ldr	r0, [pc, #236]	; (1244 <STACK_SIZE+0x264>)
    1158:	f029 f814 	bl	2a184 <atoi>
    115c:	4b3b      	ldr	r3, [pc, #236]	; (124c <STACK_SIZE+0x26c>)
    115e:	f8a3 02ea 	strh.w	r0, [r3, #746]	; 0x2ea
    1162:	e641      	b.n	de8 <APP_vProcessRxData+0x6c>
    1164:	4944      	ldr	r1, [pc, #272]	; (1278 <STACK_SIZE+0x298>)
    1166:	4836      	ldr	r0, [pc, #216]	; (1240 <STACK_SIZE+0x260>)
    1168:	2204      	movs	r2, #4
    116a:	f029 f813 	bl	2a194 <memcmp>
    116e:	b950      	cbnz	r0, 1186 <STACK_SIZE+0x1a6>
    1170:	4934      	ldr	r1, [pc, #208]	; (1244 <STACK_SIZE+0x264>)
    1172:	4842      	ldr	r0, [pc, #264]	; (127c <STACK_SIZE+0x29c>)
    1174:	f001 fb3c 	bl	27f0 <DbgConsole_Printf>
    1178:	4832      	ldr	r0, [pc, #200]	; (1244 <STACK_SIZE+0x264>)
    117a:	f029 f803 	bl	2a184 <atoi>
    117e:	4b33      	ldr	r3, [pc, #204]	; (124c <STACK_SIZE+0x26c>)
    1180:	f8a3 02ec 	strh.w	r0, [r3, #748]	; 0x2ec
    1184:	e630      	b.n	de8 <APP_vProcessRxData+0x6c>
    1186:	493e      	ldr	r1, [pc, #248]	; (1280 <STACK_SIZE+0x2a0>)
    1188:	482d      	ldr	r0, [pc, #180]	; (1240 <STACK_SIZE+0x260>)
    118a:	2204      	movs	r2, #4
    118c:	f029 f802 	bl	2a194 <memcmp>
    1190:	b970      	cbnz	r0, 11b0 <STACK_SIZE+0x1d0>
    1192:	4c2e      	ldr	r4, [pc, #184]	; (124c <STACK_SIZE+0x26c>)
    1194:	492b      	ldr	r1, [pc, #172]	; (1244 <STACK_SIZE+0x264>)
    1196:	483b      	ldr	r0, [pc, #236]	; (1284 <STACK_SIZE+0x2a4>)
    1198:	f001 fb2a 	bl	27f0 <DbgConsole_Printf>
    119c:	4929      	ldr	r1, [pc, #164]	; (1244 <STACK_SIZE+0x264>)
    119e:	f8d4 0230 	ldr.w	r0, [r4, #560]	; 0x230
    11a2:	2204      	movs	r2, #4
    11a4:	f029 f826 	bl	2a1f4 <memcpy>
    11a8:	2304      	movs	r3, #4
    11aa:	f884 322d 	strb.w	r3, [r4, #557]	; 0x22d
    11ae:	e61b      	b.n	de8 <APP_vProcessRxData+0x6c>
    11b0:	4935      	ldr	r1, [pc, #212]	; (1288 <STACK_SIZE+0x2a8>)
    11b2:	4823      	ldr	r0, [pc, #140]	; (1240 <STACK_SIZE+0x260>)
    11b4:	2204      	movs	r2, #4
    11b6:	f028 ffed 	bl	2a194 <memcmp>
    11ba:	b930      	cbnz	r0, 11ca <STACK_SIZE+0x1ea>
    11bc:	4821      	ldr	r0, [pc, #132]	; (1244 <STACK_SIZE+0x264>)
    11be:	f028 ffe1 	bl	2a184 <atoi>
    11c2:	4b22      	ldr	r3, [pc, #136]	; (124c <STACK_SIZE+0x26c>)
    11c4:	f8a3 052c 	strh.w	r0, [r3, #1324]	; 0x52c
    11c8:	e60e      	b.n	de8 <APP_vProcessRxData+0x6c>
    11ca:	2206      	movs	r2, #6
    11cc:	492f      	ldr	r1, [pc, #188]	; (128c <STACK_SIZE+0x2ac>)
    11ce:	481c      	ldr	r0, [pc, #112]	; (1240 <STACK_SIZE+0x260>)
    11d0:	f028 ffe0 	bl	2a194 <memcmp>
    11d4:	2204      	movs	r2, #4
    11d6:	b910      	cbnz	r0, 11de <STACK_SIZE+0x1fe>
    11d8:	491a      	ldr	r1, [pc, #104]	; (1244 <STACK_SIZE+0x264>)
    11da:	482d      	ldr	r0, [pc, #180]	; (1290 <STACK_SIZE+0x2b0>)
    11dc:	e63c      	b.n	e58 <APP_vProcessRxData+0xdc>
    11de:	492d      	ldr	r1, [pc, #180]	; (1294 <STACK_SIZE+0x2b4>)
    11e0:	4817      	ldr	r0, [pc, #92]	; (1240 <STACK_SIZE+0x260>)
    11e2:	f028 ffd7 	bl	2a194 <memcmp>
    11e6:	b930      	cbnz	r0, 11f6 <STACK_SIZE+0x216>
    11e8:	4816      	ldr	r0, [pc, #88]	; (1244 <STACK_SIZE+0x264>)
    11ea:	f028 ffcb 	bl	2a184 <atoi>
    11ee:	4b17      	ldr	r3, [pc, #92]	; (124c <STACK_SIZE+0x26c>)
    11f0:	f883 0529 	strb.w	r0, [r3, #1321]	; 0x529
    11f4:	e5f8      	b.n	de8 <APP_vProcessRxData+0x6c>
    11f6:	4928      	ldr	r1, [pc, #160]	; (1298 <STACK_SIZE+0x2b8>)
    11f8:	4811      	ldr	r0, [pc, #68]	; (1240 <STACK_SIZE+0x260>)
    11fa:	2204      	movs	r2, #4
    11fc:	f028 ffca 	bl	2a194 <memcmp>
    1200:	b930      	cbnz	r0, 1210 <STACK_SIZE+0x230>
    1202:	4810      	ldr	r0, [pc, #64]	; (1244 <STACK_SIZE+0x264>)
    1204:	f028 ffbe 	bl	2a184 <atoi>
    1208:	4b10      	ldr	r3, [pc, #64]	; (124c <STACK_SIZE+0x26c>)
    120a:	f883 052a 	strb.w	r0, [r3, #1322]	; 0x52a
    120e:	e5eb      	b.n	de8 <APP_vProcessRxData+0x6c>
    1210:	4922      	ldr	r1, [pc, #136]	; (129c <STACK_SIZE+0x2bc>)
    1212:	480b      	ldr	r0, [pc, #44]	; (1240 <STACK_SIZE+0x260>)
    1214:	2204      	movs	r2, #4
    1216:	f028 ffbd 	bl	2a194 <memcmp>
    121a:	2800      	cmp	r0, #0
    121c:	f47f ade4 	bne.w	de8 <APP_vProcessRxData+0x6c>
    1220:	4b0a      	ldr	r3, [pc, #40]	; (124c <STACK_SIZE+0x26c>)
    1222:	4a08      	ldr	r2, [pc, #32]	; (1244 <STACK_SIZE+0x264>)
    1224:	f883 2528 	strb.w	r2, [r3, #1320]	; 0x528
    1228:	e5de      	b.n	de8 <APP_vProcessRxData+0x6c>
    122a:	6823      	ldr	r3, [r4, #0]
    122c:	3301      	adds	r3, #1
    122e:	6023      	str	r3, [r4, #0]
    1230:	e5da      	b.n	de8 <APP_vProcessRxData+0x6c>
    1232:	2001      	movs	r0, #1
    1234:	e5dc      	b.n	df0 <APP_vProcessRxData+0x74>
    1236:	2002      	movs	r0, #2
    1238:	e5da      	b.n	df0 <APP_vProcessRxData+0x74>
    123a:	bf00      	nop
    123c:	0002aeb8 	.word	0x0002aeb8
    1240:	04014030 	.word	0x04014030
    1244:	04014044 	.word	0x04014044
    1248:	0002aebf 	.word	0x0002aebf
    124c:	04014060 	.word	0x04014060
    1250:	0002aecd 	.word	0x0002aecd
    1254:	0002aed2 	.word	0x0002aed2
    1258:	0002aede 	.word	0x0002aede
    125c:	0002aee4 	.word	0x0002aee4
    1260:	0002aef1 	.word	0x0002aef1
    1264:	0002aef7 	.word	0x0002aef7
    1268:	0002af04 	.word	0x0002af04
    126c:	0002af0a 	.word	0x0002af0a
    1270:	0002af17 	.word	0x0002af17
    1274:	0002af1c 	.word	0x0002af1c
    1278:	0002af28 	.word	0x0002af28
    127c:	0002af2d 	.word	0x0002af2d
    1280:	0002af39 	.word	0x0002af39
    1284:	0002af3e 	.word	0x0002af3e
    1288:	0002af4a 	.word	0x0002af4a
    128c:	0002af4f 	.word	0x0002af4f
    1290:	04014584 	.word	0x04014584
    1294:	0002af56 	.word	0x0002af56
    1298:	0002af5b 	.word	0x0002af5b
    129c:	0002ad68 	.word	0x0002ad68

000012a0 <vAPP_LinkySensorSample>:
    12a0:	4b21      	ldr	r3, [pc, #132]	; (1328 <vAPP_LinkySensorSample+0x88>)
    12a2:	b573      	push	{r0, r1, r4, r5, r6, lr}
    12a4:	2400      	movs	r4, #0
    12a6:	701c      	strb	r4, [r3, #0]
    12a8:	f000 fd9c 	bl	1de4 <UARTLINKY_vInit>
    12ac:	f44f 6096 	mov.w	r0, #1200	; 0x4b0
    12b0:	f000 fdcc 	bl	1e4c <UARTLINKY_vSetBaudRate>
    12b4:	481d      	ldr	r0, [pc, #116]	; (132c <vAPP_LinkySensorSample+0x8c>)
    12b6:	4e1e      	ldr	r6, [pc, #120]	; (1330 <vAPP_LinkySensorSample+0x90>)
    12b8:	4d1e      	ldr	r5, [pc, #120]	; (1334 <vAPP_LinkySensorSample+0x94>)
    12ba:	f001 fa99 	bl	27f0 <DbgConsole_Printf>
    12be:	4b1e      	ldr	r3, [pc, #120]	; (1338 <vAPP_LinkySensorSample+0x98>)
    12c0:	729c      	strb	r4, [r3, #10]
    12c2:	4b1e      	ldr	r3, [pc, #120]	; (133c <vAPP_LinkySensorSample+0x9c>)
    12c4:	601c      	str	r4, [r3, #0]
    12c6:	f7ff fd59 	bl	d7c <APP_vProcessRxData>
    12ca:	4604      	mov	r4, r0
    12cc:	b920      	cbnz	r0, 12d8 <vAPP_LinkySensorSample+0x38>
    12ce:	4630      	mov	r0, r6
    12d0:	f003 f9be 	bl	4650 <WWDT_Refresh>
    12d4:	702c      	strb	r4, [r5, #0]
    12d6:	e7f6      	b.n	12c6 <vAPP_LinkySensorSample+0x26>
    12d8:	f000 fdac 	bl	1e34 <UARTLINKY_vDeInit>
    12dc:	2c02      	cmp	r4, #2
    12de:	d117      	bne.n	1310 <vAPP_LinkySensorSample+0x70>
    12e0:	f44f 7380 	mov.w	r3, #256	; 0x100
    12e4:	4814      	ldr	r0, [pc, #80]	; (1338 <vAPP_LinkySensorSample+0x98>)
    12e6:	f8ad 3004 	strh.w	r3, [sp, #4]
    12ea:	220a      	movs	r2, #10
    12ec:	ab01      	add	r3, sp, #4
    12ee:	2100      	movs	r1, #0
    12f0:	f001 fa9e 	bl	2830 <GPIO_PinInit>
    12f4:	4812      	ldr	r0, [pc, #72]	; (1340 <vAPP_LinkySensorSample+0xa0>)
    12f6:	f001 fa7b 	bl	27f0 <DbgConsole_Printf>
    12fa:	4812      	ldr	r0, [pc, #72]	; (1344 <vAPP_LinkySensorSample+0xa4>)
    12fc:	f001 fa78 	bl	27f0 <DbgConsole_Printf>
    1300:	4b11      	ldr	r3, [pc, #68]	; (1348 <vAPP_LinkySensorSample+0xa8>)
    1302:	f241 3188 	movw	r1, #5000	; 0x1388
    1306:	7818      	ldrb	r0, [r3, #0]
    1308:	f002 fe6c 	bl	3fe4 <ZTIMER_eStart>
    130c:	b002      	add	sp, #8
    130e:	bd70      	pop	{r4, r5, r6, pc}
    1310:	4c09      	ldr	r4, [pc, #36]	; (1338 <vAPP_LinkySensorSample+0x98>)
    1312:	2501      	movs	r5, #1
    1314:	ab01      	add	r3, sp, #4
    1316:	220a      	movs	r2, #10
    1318:	2100      	movs	r1, #0
    131a:	4620      	mov	r0, r4
    131c:	f8ad 5004 	strh.w	r5, [sp, #4]
    1320:	f001 fa86 	bl	2830 <GPIO_PinInit>
    1324:	72a5      	strb	r5, [r4, #10]
    1326:	e7e8      	b.n	12fa <vAPP_LinkySensorSample+0x5a>
    1328:	04014058 	.word	0x04014058
    132c:	0002af60 	.word	0x0002af60
    1330:	4000a000 	.word	0x4000a000
    1334:	04012701 	.word	0x04012701
    1338:	40080000 	.word	0x40080000
    133c:	04014590 	.word	0x04014590
    1340:	0002af7c 	.word	0x0002af7c
    1344:	0002af8e 	.word	0x0002af8e
    1348:	040126fd 	.word	0x040126fd

0000134c <APP_cbTimerLinkySample>:
    134c:	4b03      	ldr	r3, [pc, #12]	; (135c <APP_cbTimerLinkySample+0x10>)
    134e:	781b      	ldrb	r3, [r3, #0]
    1350:	2b01      	cmp	r3, #1
    1352:	d101      	bne.n	1358 <APP_cbTimerLinkySample+0xc>
    1354:	f7ff bfa4 	b.w	12a0 <vAPP_LinkySensorSample>
    1358:	4770      	bx	lr
    135a:	bf00      	nop
    135c:	04012580 	.word	0x04012580

00001360 <app_u8GetDeviceEndpoint>:
    1360:	2001      	movs	r0, #1
    1362:	4770      	bx	lr

00001364 <APP_vBdbCallback>:
    1364:	b530      	push	{r4, r5, lr}
    1366:	7801      	ldrb	r1, [r0, #0]
    1368:	b089      	sub	sp, #36	; 0x24
    136a:	4604      	mov	r4, r0
    136c:	2917      	cmp	r1, #23
    136e:	f200 80e7 	bhi.w	1540 <APP_vBdbCallback+0x1dc>
    1372:	e8df f011 	tbh	[pc, r1, lsl #1]
    1376:	006b      	.short	0x006b
    1378:	006d0018 	.word	0x006d0018
    137c:	0077007d 	.word	0x0077007d
    1380:	008f0086 	.word	0x008f0086
    1384:	00e500e5 	.word	0x00e500e5
    1388:	00e50091 	.word	0x00e50091
    138c:	009800e5 	.word	0x009800e5
    1390:	00ad00a7 	.word	0x00ad00a7
    1394:	00cc00b1 	.word	0x00cc00b1
    1398:	00ce00d0 	.word	0x00ce00d0
    139c:	00d400d2 	.word	0x00d400d2
    13a0:	00e500e3 	.word	0x00e500e3
    13a4:	0071      	.short	0x0071
    13a6:	7c03      	ldrb	r3, [r0, #16]
    13a8:	2b01      	cmp	r3, #1
    13aa:	d119      	bne.n	13e0 <APP_vBdbCallback+0x7c>
    13ac:	f890 3038 	ldrb.w	r3, [r0, #56]	; 0x38
    13b0:	b9b3      	cbnz	r3, 13e0 <APP_vBdbCallback+0x7c>
    13b2:	f890 3035 	ldrb.w	r3, [r0, #53]	; 0x35
    13b6:	b99b      	cbnz	r3, 13e0 <APP_vBdbCallback+0x7c>
    13b8:	8e43      	ldrh	r3, [r0, #50]	; 0x32
    13ba:	f248 0206 	movw	r2, #32774	; 0x8006
    13be:	4293      	cmp	r3, r2
    13c0:	d124      	bne.n	140c <APP_vBdbCallback+0xa8>
    13c2:	4860      	ldr	r0, [pc, #384]	; (1544 <APP_vBdbCallback+0x1e0>)
    13c4:	f001 fa14 	bl	27f0 <DbgConsole_Printf>
    13c8:	f104 0010 	add.w	r0, r4, #16
    13cc:	f001 ff30 	bl	3230 <vHandleMatchDescriptor>
    13d0:	4b5d      	ldr	r3, [pc, #372]	; (1548 <APP_vBdbCallback+0x1e4>)
    13d2:	781b      	ldrb	r3, [r3, #0]
    13d4:	2b01      	cmp	r3, #1
    13d6:	d003      	beq.n	13e0 <APP_vBdbCallback+0x7c>
    13d8:	4b5c      	ldr	r3, [pc, #368]	; (154c <APP_vBdbCallback+0x1e8>)
    13da:	7818      	ldrb	r0, [r3, #0]
    13dc:	f002 fe2c 	bl	4038 <ZTIMER_eStop>
    13e0:	7a23      	ldrb	r3, [r4, #8]
    13e2:	7c25      	ldrb	r5, [r4, #16]
    13e4:	2b01      	cmp	r3, #1
    13e6:	d119      	bne.n	141c <APP_vBdbCallback+0xb8>
    13e8:	f007 fef0 	bl	91cc <OSA_TimeGetMsec>
    13ec:	4629      	mov	r1, r5
    13ee:	4602      	mov	r2, r0
    13f0:	4857      	ldr	r0, [pc, #348]	; (1550 <APP_vBdbCallback+0x1ec>)
    13f2:	f001 f9fd 	bl	27f0 <DbgConsole_Printf>
    13f6:	f104 0010 	add.w	r0, r4, #16
    13fa:	f000 fba1 	bl	1b40 <APP_ZCL_vEventHandler>
    13fe:	7c23      	ldrb	r3, [r4, #16]
    1400:	2b01      	cmp	r3, #1
    1402:	d121      	bne.n	1448 <APP_vBdbCallback+0xe4>
    1404:	6aa0      	ldr	r0, [r4, #40]	; 0x28
    1406:	f00f feb3 	bl	11170 <PDUM_eAPduFreeAPduInstance>
    140a:	e01f      	b.n	144c <APP_vBdbCallback+0xe8>
    140c:	f248 0201 	movw	r2, #32769	; 0x8001
    1410:	4293      	cmp	r3, r2
    1412:	d1e5      	bne.n	13e0 <APP_vBdbCallback+0x7c>
    1414:	3010      	adds	r0, #16
    1416:	f001 ff63 	bl	32e0 <vHandleIeeeAddressRsp>
    141a:	e7d9      	b.n	13d0 <APP_vBdbCallback+0x6c>
    141c:	2b00      	cmp	r3, #0
    141e:	d1ee      	bne.n	13fe <APP_vBdbCallback+0x9a>
    1420:	f007 fed4 	bl	91cc <OSA_TimeGetMsec>
    1424:	4629      	mov	r1, r5
    1426:	4602      	mov	r2, r0
    1428:	484a      	ldr	r0, [pc, #296]	; (1554 <APP_vBdbCallback+0x1f0>)
    142a:	f001 f9e1 	bl	27f0 <DbgConsole_Printf>
    142e:	4b4a      	ldr	r3, [pc, #296]	; (1558 <APP_vBdbCallback+0x1f4>)
    1430:	781b      	ldrb	r3, [r3, #0]
    1432:	b133      	cbz	r3, 1442 <APP_vBdbCallback+0xde>
    1434:	2b02      	cmp	r3, #2
    1436:	d1e2      	bne.n	13fe <APP_vBdbCallback+0x9a>
    1438:	f104 0010 	add.w	r0, r4, #16
    143c:	f000 fc98 	bl	1d70 <vAppHandleRunning>
    1440:	e7dd      	b.n	13fe <APP_vBdbCallback+0x9a>
    1442:	f000 fcbd 	bl	1dc0 <vAppHandleStartup>
    1446:	e7da      	b.n	13fe <APP_vBdbCallback+0x9a>
    1448:	2b16      	cmp	r3, #22
    144a:	d0db      	beq.n	1404 <APP_vBdbCallback+0xa0>
    144c:	b009      	add	sp, #36	; 0x24
    144e:	bd30      	pop	{r4, r5, pc}
    1450:	4842      	ldr	r0, [pc, #264]	; (155c <APP_vBdbCallback+0x1f8>)
    1452:	f001 f9cd 	bl	27f0 <DbgConsole_Printf>
    1456:	e7f9      	b.n	144c <APP_vBdbCallback+0xe8>
    1458:	4841      	ldr	r0, [pc, #260]	; (1560 <APP_vBdbCallback+0x1fc>)
    145a:	f001 f9c9 	bl	27f0 <DbgConsole_Printf>
    145e:	f000 fe9b 	bl	2198 <vHandleFailedRejoin>
    1462:	e7f3      	b.n	144c <APP_vBdbCallback+0xe8>
    1464:	483f      	ldr	r0, [pc, #252]	; (1564 <APP_vBdbCallback+0x200>)
    1466:	f001 f9c3 	bl	27f0 <DbgConsole_Printf>
    146a:	f000 fe81 	bl	2170 <vHandleFailedToJoin>
    146e:	e7ed      	b.n	144c <APP_vBdbCallback+0xe8>
    1470:	483d      	ldr	r0, [pc, #244]	; (1568 <APP_vBdbCallback+0x204>)
    1472:	f001 f9bd 	bl	27f0 <DbgConsole_Printf>
    1476:	4b3d      	ldr	r3, [pc, #244]	; (156c <APP_vBdbCallback+0x208>)
    1478:	2200      	movs	r2, #0
    147a:	701a      	strb	r2, [r3, #0]
    147c:	f000 fe9c 	bl	21b8 <vHandleNetworkJoinEndDevice>
    1480:	e7e4      	b.n	144c <APP_vBdbCallback+0xe8>
    1482:	483b      	ldr	r0, [pc, #236]	; (1570 <APP_vBdbCallback+0x20c>)
    1484:	f001 f9b4 	bl	27f0 <DbgConsole_Printf>
    1488:	4b38      	ldr	r3, [pc, #224]	; (156c <APP_vBdbCallback+0x208>)
    148a:	2200      	movs	r2, #0
    148c:	701a      	strb	r2, [r3, #0]
    148e:	f000 fec3 	bl	2218 <vHandleNetworkJoinAndRejoin>
    1492:	e7db      	b.n	144c <APP_vBdbCallback+0xe8>
    1494:	4837      	ldr	r0, [pc, #220]	; (1574 <APP_vBdbCallback+0x210>)
    1496:	e7e6      	b.n	1466 <APP_vBdbCallback+0x102>
    1498:	4837      	ldr	r0, [pc, #220]	; (1578 <APP_vBdbCallback+0x214>)
    149a:	f001 f9a9 	bl	27f0 <DbgConsole_Printf>
    149e:	2064      	movs	r0, #100	; 0x64
    14a0:	f000 fe3c 	bl	211c <vStartPollTimer>
    14a4:	e7d2      	b.n	144c <APP_vBdbCallback+0xe8>
    14a6:	4835      	ldr	r0, [pc, #212]	; (157c <APP_vBdbCallback+0x218>)
    14a8:	f001 f9a2 	bl	27f0 <DbgConsole_Printf>
    14ac:	68a0      	ldr	r0, [r4, #8]
    14ae:	7a04      	ldrb	r4, [r0, #8]
    14b0:	8883      	ldrh	r3, [r0, #4]
    14b2:	8842      	ldrh	r2, [r0, #2]
    14b4:	7841      	ldrb	r1, [r0, #1]
    14b6:	9401      	str	r4, [sp, #4]
    14b8:	88c0      	ldrh	r0, [r0, #6]
    14ba:	9000      	str	r0, [sp, #0]
    14bc:	4830      	ldr	r0, [pc, #192]	; (1580 <APP_vBdbCallback+0x21c>)
    14be:	f001 f997 	bl	27f0 <DbgConsole_Printf>
    14c2:	e7c3      	b.n	144c <APP_vBdbCallback+0xe8>
    14c4:	6883      	ldr	r3, [r0, #8]
    14c6:	482f      	ldr	r0, [pc, #188]	; (1584 <APP_vBdbCallback+0x220>)
    14c8:	8959      	ldrh	r1, [r3, #10]
    14ca:	f001 f991 	bl	27f0 <DbgConsole_Printf>
    14ce:	e7bd      	b.n	144c <APP_vBdbCallback+0xe8>
    14d0:	6883      	ldr	r3, [r0, #8]
    14d2:	482d      	ldr	r0, [pc, #180]	; (1588 <APP_vBdbCallback+0x224>)
    14d4:	8959      	ldrh	r1, [r3, #10]
    14d6:	e7f8      	b.n	14ca <APP_vBdbCallback+0x166>
    14d8:	6883      	ldr	r3, [r0, #8]
    14da:	482c      	ldr	r0, [pc, #176]	; (158c <APP_vBdbCallback+0x228>)
    14dc:	7859      	ldrb	r1, [r3, #1]
    14de:	f001 f987 	bl	27f0 <DbgConsole_Printf>
    14e2:	4a2b      	ldr	r2, [pc, #172]	; (1590 <APP_vBdbCallback+0x22c>)
    14e4:	2300      	movs	r3, #0
    14e6:	7013      	strb	r3, [r2, #0]
    14e8:	f8ad 300c 	strh.w	r3, [sp, #12]
    14ec:	2307      	movs	r3, #7
    14ee:	f88d 3010 	strb.w	r3, [sp, #16]
    14f2:	68a3      	ldr	r3, [r4, #8]
    14f4:	885a      	ldrh	r2, [r3, #2]
    14f6:	f8ad 2018 	strh.w	r2, [sp, #24]
    14fa:	7859      	ldrb	r1, [r3, #1]
    14fc:	7818      	ldrb	r0, [r3, #0]
    14fe:	ab03      	add	r3, sp, #12
    1500:	9300      	str	r3, [sp, #0]
    1502:	aa04      	add	r2, sp, #16
    1504:	f10d 030b 	add.w	r3, sp, #11
    1508:	f008 f8ac 	bl	9664 <eCLD_IdentifyCommandIdentifyRequestSend>
    150c:	e79e      	b.n	144c <APP_vBdbCallback+0xe8>
    150e:	4821      	ldr	r0, [pc, #132]	; (1594 <APP_vBdbCallback+0x230>)
    1510:	e79f      	b.n	1452 <APP_vBdbCallback+0xee>
    1512:	4821      	ldr	r0, [pc, #132]	; (1598 <APP_vBdbCallback+0x234>)
    1514:	e79d      	b.n	1452 <APP_vBdbCallback+0xee>
    1516:	4821      	ldr	r0, [pc, #132]	; (159c <APP_vBdbCallback+0x238>)
    1518:	e79b      	b.n	1452 <APP_vBdbCallback+0xee>
    151a:	4821      	ldr	r0, [pc, #132]	; (15a0 <APP_vBdbCallback+0x23c>)
    151c:	e799      	b.n	1452 <APP_vBdbCallback+0xee>
    151e:	4821      	ldr	r0, [pc, #132]	; (15a4 <APP_vBdbCallback+0x240>)
    1520:	f001 f966 	bl	27f0 <DbgConsole_Printf>
    1524:	4a1a      	ldr	r2, [pc, #104]	; (1590 <APP_vBdbCallback+0x22c>)
    1526:	7813      	ldrb	r3, [r2, #0]
    1528:	2b01      	cmp	r3, #1
    152a:	d904      	bls.n	1536 <APP_vBdbCallback+0x1d2>
    152c:	2300      	movs	r3, #0
    152e:	7013      	strb	r3, [r2, #0]
    1530:	f00f f86c 	bl	1060c <BDB_vFbExitAsInitiator>
    1534:	e78a      	b.n	144c <APP_vBdbCallback+0xe8>
    1536:	3301      	adds	r3, #1
    1538:	7013      	strb	r3, [r2, #0]
    153a:	e787      	b.n	144c <APP_vBdbCallback+0xe8>
    153c:	481a      	ldr	r0, [pc, #104]	; (15a8 <APP_vBdbCallback+0x244>)
    153e:	e788      	b.n	1452 <APP_vBdbCallback+0xee>
    1540:	481a      	ldr	r0, [pc, #104]	; (15ac <APP_vBdbCallback+0x248>)
    1542:	e7c2      	b.n	14ca <APP_vBdbCallback+0x166>
    1544:	0002af9f 	.word	0x0002af9f
    1548:	04012580 	.word	0x04012580
    154c:	040126fe 	.word	0x040126fe
    1550:	0002afc9 	.word	0x0002afc9
    1554:	0002b018 	.word	0x0002b018
    1558:	04014598 	.word	0x04014598
    155c:	0002b065 	.word	0x0002b065
    1560:	0002b08c 	.word	0x0002b08c
    1564:	0002b0c2 	.word	0x0002b0c2
    1568:	0002b0eb 	.word	0x0002b0eb
    156c:	04014594 	.word	0x04014594
    1570:	0002b114 	.word	0x0002b114
    1574:	0002b143 	.word	0x0002b143
    1578:	0002b168 	.word	0x0002b168
    157c:	0002b194 	.word	0x0002b194
    1580:	0002b1d3 	.word	0x0002b1d3
    1584:	0002b200 	.word	0x0002b200
    1588:	0002b258 	.word	0x0002b258
    158c:	0002b2a8 	.word	0x0002b2a8
    1590:	040145b0 	.word	0x040145b0
    1594:	0002b2ec 	.word	0x0002b2ec
    1598:	0002b31f 	.word	0x0002b31f
    159c:	0002b353 	.word	0x0002b353
    15a0:	0002b383 	.word	0x0002b383
    15a4:	0002b3b4 	.word	0x0002b3b4
    15a8:	0002b3e3 	.word	0x0002b3e3
    15ac:	0002b408 	.word	0x0002b408

000015b0 <APP_vFactoryResetRecords>:
    15b0:	b538      	push	{r3, r4, r5, lr}
    15b2:	4c13      	ldr	r4, [pc, #76]	; (1600 <APP_vFactoryResetRecords+0x50>)
    15b4:	4813      	ldr	r0, [pc, #76]	; (1604 <APP_vFactoryResetRecords+0x54>)
    15b6:	2500      	movs	r5, #0
    15b8:	7025      	strb	r5, [r4, #0]
    15ba:	f001 f919 	bl	27f0 <DbgConsole_Printf>
    15be:	f7ff f99b 	bl	8f8 <ZPS_pvAplZdoGetAplHandle>
    15c2:	f017 fa91 	bl	18ae8 <zps_vDefaultStack>
    15c6:	f7ff f997 	bl	8f8 <ZPS_pvAplZdoGetAplHandle>
    15ca:	2200      	movs	r2, #0
    15cc:	2300      	movs	r3, #0
    15ce:	f015 fe8a 	bl	172e6 <zps_eAplAibSetApsUseExtendedPanId>
    15d2:	f016 f9e7 	bl	179a4 <ZPS_vSetKeys>
    15d6:	2200      	movs	r2, #0
    15d8:	2300      	movs	r3, #0
    15da:	e9c4 2302 	strd	r2, r3, [r4, #8]
    15de:	4621      	mov	r1, r4
    15e0:	f64f 73ff 	movw	r3, #65535	; 0xffff
    15e4:	2218      	movs	r2, #24
    15e6:	2001      	movs	r0, #1
    15e8:	8223      	strh	r3, [r4, #16]
    15ea:	74a3      	strb	r3, [r4, #18]
    15ec:	70a5      	strb	r5, [r4, #2]
    15ee:	f011 fe61 	bl	132b4 <PDM_eSaveRecordData>
    15f2:	f7ff f981 	bl	8f8 <ZPS_pvAplZdoGetAplHandle>
    15f6:	e8bd 4038 	ldmia.w	sp!, {r3, r4, r5, lr}
    15fa:	f016 b9ad 	b.w	17958 <zps_vSaveAllZpsRecords>
    15fe:	bf00      	nop
    1600:	04014598 	.word	0x04014598
    1604:	0002b42d 	.word	0x0002b42d

00001608 <APP_bNodeIsInRunningState>:
    1608:	b510      	push	{r4, lr}
    160a:	4c06      	ldr	r4, [pc, #24]	; (1624 <APP_bNodeIsInRunningState+0x1c>)
    160c:	4806      	ldr	r0, [pc, #24]	; (1628 <APP_bNodeIsInRunningState+0x20>)
    160e:	7822      	ldrb	r2, [r4, #0]
    1610:	1e93      	subs	r3, r2, #2
    1612:	4259      	negs	r1, r3
    1614:	4159      	adcs	r1, r3
    1616:	f001 f8eb 	bl	27f0 <DbgConsole_Printf>
    161a:	7820      	ldrb	r0, [r4, #0]
    161c:	1e82      	subs	r2, r0, #2
    161e:	4250      	negs	r0, r2
    1620:	4150      	adcs	r0, r2
    1622:	bd10      	pop	{r4, pc}
    1624:	04014598 	.word	0x04014598
    1628:	0002b462 	.word	0x0002b462

0000162c <APP_vInitialiseNode>:
    162c:	b5f0      	push	{r4, r5, r6, r7, lr}
    162e:	4848      	ldr	r0, [pc, #288]	; (1750 <APP_vInitialiseNode+0x124>)
    1630:	b085      	sub	sp, #20
    1632:	f001 f8dd 	bl	27f0 <DbgConsole_Printf>
    1636:	f001 fb53 	bl	2ce0 <vLoadOTAPersistedData>
    163a:	f000 ff4d 	bl	24d8 <vManagePowerOnCountLoadRecord>
    163e:	4b45      	ldr	r3, [pc, #276]	; (1754 <APP_vInitialiseNode+0x128>)
    1640:	4845      	ldr	r0, [pc, #276]	; (1758 <APP_vInitialiseNode+0x12c>)
    1642:	6f19      	ldr	r1, [r3, #112]	; 0x70
    1644:	f001 f8d4 	bl	27f0 <DbgConsole_Printf>
    1648:	f7ff f992 	bl	970 <eRestoreReports>
    164c:	f10d 030a 	add.w	r3, sp, #10
    1650:	2218      	movs	r2, #24
    1652:	4942      	ldr	r1, [pc, #264]	; (175c <APP_vInitialiseNode+0x130>)
    1654:	4604      	mov	r4, r0
    1656:	2001      	movs	r0, #1
    1658:	f010 fa58 	bl	11b0c <PDM_eReadDataFromRecord>
    165c:	2001      	movs	r0, #1
    165e:	f7fe fff3 	bl	648 <APP_vRadioTempUpdate>
    1662:	483f      	ldr	r0, [pc, #252]	; (1760 <APP_vInitialiseNode+0x134>)
    1664:	f001 f8c4 	bl	27f0 <DbgConsole_Printf>
    1668:	f7ff f946 	bl	8f8 <ZPS_pvAplZdoGetAplHandle>
    166c:	2101      	movs	r1, #1
    166e:	f012 f9f5 	bl	13a5c <zps_eAplAfInit>
    1672:	f000 fa35 	bl	1ae0 <APP_ZCL_vInitialise>
    1676:	f7ff f93f 	bl	8f8 <ZPS_pvAplZdoGetAplHandle>
    167a:	2101      	movs	r1, #1
    167c:	f012 fb2a 	bl	13cd4 <zps_bAplAfSetEndDeviceTimeout>
    1680:	b10c      	cbz	r4, 1686 <APP_vInitialiseNode+0x5a>
    1682:	f7ff f9bf 	bl	a04 <vLoadDefaultConfigForReportable>
    1686:	4c37      	ldr	r4, [pc, #220]	; (1764 <APP_vInitialiseNode+0x138>)
    1688:	4f37      	ldr	r7, [pc, #220]	; (1768 <APP_vInitialiseNode+0x13c>)
    168a:	4e38      	ldr	r6, [pc, #224]	; (176c <APP_vInitialiseNode+0x140>)
    168c:	f7ff f984 	bl	998 <vMakeSupportedAttributesReportable>
    1690:	4b37      	ldr	r3, [pc, #220]	; (1770 <APP_vInitialiseNode+0x144>)
    1692:	9303      	str	r3, [sp, #12]
    1694:	a803      	add	r0, sp, #12
    1696:	62e7      	str	r7, [r4, #44]	; 0x2c
    1698:	6366      	str	r6, [r4, #52]	; 0x34
    169a:	f00e f90b 	bl	f8b4 <BDB_vInit>
    169e:	f7ff ffb3 	bl	1608 <APP_bNodeIsInRunningState>
    16a2:	4605      	mov	r5, r0
    16a4:	2800      	cmp	r0, #0
    16a6:	d045      	beq.n	1734 <APP_vInitialiseNode+0x108>
    16a8:	4832      	ldr	r0, [pc, #200]	; (1774 <APP_vInitialiseNode+0x148>)
    16aa:	f001 f8a1 	bl	27f0 <DbgConsole_Printf>
    16ae:	f7ff f923 	bl	8f8 <ZPS_pvAplZdoGetAplHandle>
    16b2:	f016 f951 	bl	17958 <zps_vSaveAllZpsRecords>
    16b6:	2301      	movs	r3, #1
    16b8:	f884 302a 	strb.w	r3, [r4, #42]	; 0x2a
    16bc:	482e      	ldr	r0, [pc, #184]	; (1778 <APP_vInitialiseNode+0x14c>)
    16be:	f001 f897 	bl	27f0 <DbgConsole_Printf>
    16c2:	f000 fb21 	bl	1d08 <APP_bButtonInitialise>
    16c6:	482d      	ldr	r0, [pc, #180]	; (177c <APP_vInitialiseNode+0x150>)
    16c8:	f001 f892 	bl	27f0 <DbgConsole_Printf>
    16cc:	f000 fa96 	bl	1bfc <APP_u32GetSwitchIOState>
    16d0:	f010 0501 	ands.w	r5, r0, #1
    16d4:	d112      	bne.n	16fc <APP_vInitialiseNode+0xd0>
    16d6:	f884 502a 	strb.w	r5, [r4, #42]	; 0x2a
    16da:	f7ff f90d 	bl	8f8 <ZPS_pvAplZdoGetAplHandle>
    16de:	e9cd 5500 	strd	r5, r5, [sp]
    16e2:	2200      	movs	r2, #0
    16e4:	2300      	movs	r3, #0
    16e6:	f016 fcaf 	bl	18048 <zps_eAplZdoLeaveNetwork>
    16ea:	b138      	cbz	r0, 16fc <APP_vInitialiseNode+0xd0>
    16ec:	4824      	ldr	r0, [pc, #144]	; (1780 <APP_vInitialiseNode+0x154>)
    16ee:	f001 f87f 	bl	27f0 <DbgConsole_Printf>
    16f2:	f7ff ff5d 	bl	15b0 <APP_vFactoryResetRecords>
    16f6:	b672      	cpsid	i
    16f8:	f003 fc72 	bl	4fe0 <RESET_SystemReset>
    16fc:	4b21      	ldr	r3, [pc, #132]	; (1784 <APP_vInitialiseNode+0x158>)
    16fe:	4822      	ldr	r0, [pc, #136]	; (1788 <APP_vInitialiseNode+0x15c>)
    1700:	2201      	movs	r2, #1
    1702:	729a      	strb	r2, [r3, #10]
    1704:	f001 f874 	bl	27f0 <DbgConsole_Printf>
    1708:	f000 fc74 	bl	1ff4 <bTSL25721_Init>
    170c:	4601      	mov	r1, r0
    170e:	481f      	ldr	r0, [pc, #124]	; (178c <APP_vInitialiseNode+0x160>)
    1710:	f001 f86e 	bl	27f0 <DbgConsole_Printf>
    1714:	f7ff fdc4 	bl	12a0 <vAPP_LinkySensorSample>
    1718:	f000 feec 	bl	24f4 <vManagePowerOnCountInit>
    171c:	f7ff ff74 	bl	1608 <APP_bNodeIsInRunningState>
    1720:	b918      	cbnz	r0, 172a <APP_vInitialiseNode+0xfe>
    1722:	f44f 707a 	mov.w	r0, #1000	; 0x3e8
    1726:	f000 ff93 	bl	2650 <vStartBlinkTimer>
    172a:	4819      	ldr	r0, [pc, #100]	; (1790 <APP_vInitialiseNode+0x164>)
    172c:	f001 f860 	bl	27f0 <DbgConsole_Printf>
    1730:	b005      	add	sp, #20
    1732:	bdf0      	pop	{r4, r5, r6, r7, pc}
    1734:	4817      	ldr	r0, [pc, #92]	; (1794 <APP_vInitialiseNode+0x168>)
    1736:	f001 f85b 	bl	27f0 <DbgConsole_Printf>
    173a:	4b08      	ldr	r3, [pc, #32]	; (175c <APP_vInitialiseNode+0x130>)
    173c:	4816      	ldr	r0, [pc, #88]	; (1798 <APP_vInitialiseNode+0x16c>)
    173e:	62e7      	str	r7, [r4, #44]	; 0x2c
    1740:	2201      	movs	r2, #1
    1742:	6366      	str	r6, [r4, #52]	; 0x34
    1744:	701a      	strb	r2, [r3, #0]
    1746:	f001 f853 	bl	27f0 <DbgConsole_Printf>
    174a:	f884 502a 	strb.w	r5, [r4, #42]	; 0x2a
    174e:	e7b5      	b.n	16bc <APP_vInitialiseNode+0x90>
    1750:	0002b498 	.word	0x0002b498
    1754:	40012000 	.word	0x40012000
    1758:	0002b4bc 	.word	0x0002b4bc
    175c:	04014598 	.word	0x04014598
    1760:	0002b4f2 	.word	0x0002b4f2
    1764:	04015b10 	.word	0x04015b10
    1768:	02108800 	.word	0x02108800
    176c:	05ef7000 	.word	0x05ef7000
    1770:	04012594 	.word	0x04012594
    1774:	0002b524 	.word	0x0002b524
    1778:	0002b5a4 	.word	0x0002b5a4
    177c:	0002b5dd 	.word	0x0002b5dd
    1780:	0002b618 	.word	0x0002b618
    1784:	40080000 	.word	0x40080000
    1788:	0002b658 	.word	0x0002b658
    178c:	0002b68a 	.word	0x0002b68a
    1790:	0002b6c1 	.word	0x0002b6c1
    1794:	0002b550 	.word	0x0002b550
    1798:	0002b581 	.word	0x0002b581

0000179c <APP_taskSensor>:
    179c:	b570      	push	{r4, r5, r6, lr}
    179e:	b086      	sub	sp, #24
    17a0:	ac03      	add	r4, sp, #12
    17a2:	4821      	ldr	r0, [pc, #132]	; (1828 <APP_taskSensor+0x8c>)
    17a4:	2600      	movs	r6, #0
    17a6:	4621      	mov	r1, r4
    17a8:	f88d 600c 	strb.w	r6, [sp, #12]
    17ac:	f002 fb72 	bl	3e94 <ZQ_bQueueReceive>
    17b0:	2801      	cmp	r0, #1
    17b2:	4605      	mov	r5, r0
    17b4:	d126      	bne.n	1804 <APP_taskSensor+0x68>
    17b6:	f89d 100c 	ldrb.w	r1, [sp, #12]
    17ba:	481c      	ldr	r0, [pc, #112]	; (182c <APP_taskSensor+0x90>)
    17bc:	f001 f818 	bl	27f0 <DbgConsole_Printf>
    17c0:	4b1b      	ldr	r3, [pc, #108]	; (1830 <APP_taskSensor+0x94>)
    17c2:	781b      	ldrb	r3, [r3, #0]
    17c4:	b35b      	cbz	r3, 181e <APP_taskSensor+0x82>
    17c6:	f44f 707a 	mov.w	r0, #1000	; 0x3e8
    17ca:	f000 ff41 	bl	2650 <vStartBlinkTimer>
    17ce:	f7ff ff1b 	bl	1608 <APP_bNodeIsInRunningState>
    17d2:	b308      	cbz	r0, 1818 <APP_taskSensor+0x7c>
    17d4:	f89d 300c 	ldrb.w	r3, [sp, #12]
    17d8:	4c16      	ldr	r4, [pc, #88]	; (1834 <APP_taskSensor+0x98>)
    17da:	2b0b      	cmp	r3, #11
    17dc:	d114      	bne.n	1808 <APP_taskSensor+0x6c>
    17de:	f884 602a 	strb.w	r6, [r4, #42]	; 0x2a
    17e2:	f7ff f889 	bl	8f8 <ZPS_pvAplZdoGetAplHandle>
    17e6:	e9cd 6600 	strd	r6, r6, [sp]
    17ea:	2200      	movs	r2, #0
    17ec:	2300      	movs	r3, #0
    17ee:	f016 fc2b 	bl	18048 <zps_eAplZdoLeaveNetwork>
    17f2:	b138      	cbz	r0, 1804 <APP_taskSensor+0x68>
    17f4:	4810      	ldr	r0, [pc, #64]	; (1838 <APP_taskSensor+0x9c>)
    17f6:	f000 fffb 	bl	27f0 <DbgConsole_Printf>
    17fa:	f7ff fed9 	bl	15b0 <APP_vFactoryResetRecords>
    17fe:	b672      	cpsid	i
    1800:	f003 fbee 	bl	4fe0 <RESET_SystemReset>
    1804:	b006      	add	sp, #24
    1806:	bd70      	pop	{r4, r5, r6, pc}
    1808:	480c      	ldr	r0, [pc, #48]	; (183c <APP_taskSensor+0xa0>)
    180a:	f000 fff1 	bl	27f0 <DbgConsole_Printf>
    180e:	f884 502a 	strb.w	r5, [r4, #42]	; 0x2a
    1812:	f00e fa79 	bl	fd08 <BDB_vStart>
    1816:	e7f5      	b.n	1804 <APP_taskSensor+0x68>
    1818:	f000 fad2 	bl	1dc0 <vAppHandleStartup>
    181c:	e7f2      	b.n	1804 <APP_taskSensor+0x68>
    181e:	e894 0007 	ldmia.w	r4, {r0, r1, r2}
    1822:	f000 fd75 	bl	2310 <vAppHandleAppEvent>
    1826:	e7ed      	b.n	1804 <APP_taskSensor+0x68>
    1828:	04012584 	.word	0x04012584
    182c:	0002b6e4 	.word	0x0002b6e4
    1830:	04014594 	.word	0x04014594
    1834:	04015b10 	.word	0x04015b10
    1838:	0002b618 	.word	0x0002b618
    183c:	0002b70e 	.word	0x0002b70e

00001840 <sGetOTACallBackPersistdata>:
    1840:	b510      	push	{r4, lr}
    1842:	4903      	ldr	r1, [pc, #12]	; (1850 <sGetOTACallBackPersistdata+0x10>)
    1844:	4604      	mov	r4, r0
    1846:	22a8      	movs	r2, #168	; 0xa8
    1848:	f028 fcd4 	bl	2a1f4 <memcpy>
    184c:	4620      	mov	r0, r4
    184e:	bd10      	pop	{r4, pc}
    1850:	04014458 	.word	0x04014458

00001854 <APP_ZCL_cbGeneralCallback>:
    1854:	7803      	ldrb	r3, [r0, #0]
    1856:	3b02      	subs	r3, #2
    1858:	2b08      	cmp	r3, #8
    185a:	d815      	bhi.n	1888 <APP_ZCL_cbGeneralCallback+0x34>
    185c:	e8df f003 	tbb	[pc, r3]
    1860:	0a081405 	.word	0x0a081405
    1864:	10160e0c 	.word	0x10160e0c
    1868:	12          	.byte	0x12
    1869:	00          	.byte	0x00
    186a:	4809      	ldr	r0, [pc, #36]	; (1890 <APP_ZCL_cbGeneralCallback+0x3c>)
    186c:	f000 bfc0 	b.w	27f0 <DbgConsole_Printf>
    1870:	4808      	ldr	r0, [pc, #32]	; (1894 <APP_ZCL_cbGeneralCallback+0x40>)
    1872:	e7fb      	b.n	186c <APP_ZCL_cbGeneralCallback+0x18>
    1874:	4808      	ldr	r0, [pc, #32]	; (1898 <APP_ZCL_cbGeneralCallback+0x44>)
    1876:	e7f9      	b.n	186c <APP_ZCL_cbGeneralCallback+0x18>
    1878:	4808      	ldr	r0, [pc, #32]	; (189c <APP_ZCL_cbGeneralCallback+0x48>)
    187a:	e7f7      	b.n	186c <APP_ZCL_cbGeneralCallback+0x18>
    187c:	4808      	ldr	r0, [pc, #32]	; (18a0 <APP_ZCL_cbGeneralCallback+0x4c>)
    187e:	e7f5      	b.n	186c <APP_ZCL_cbGeneralCallback+0x18>
    1880:	4808      	ldr	r0, [pc, #32]	; (18a4 <APP_ZCL_cbGeneralCallback+0x50>)
    1882:	e7f3      	b.n	186c <APP_ZCL_cbGeneralCallback+0x18>
    1884:	4808      	ldr	r0, [pc, #32]	; (18a8 <APP_ZCL_cbGeneralCallback+0x54>)
    1886:	e7f1      	b.n	186c <APP_ZCL_cbGeneralCallback+0x18>
    1888:	4808      	ldr	r0, [pc, #32]	; (18ac <APP_ZCL_cbGeneralCallback+0x58>)
    188a:	e7ef      	b.n	186c <APP_ZCL_cbGeneralCallback+0x18>
    188c:	4770      	bx	lr
    188e:	bf00      	nop
    1890:	0002b737 	.word	0x0002b737
    1894:	0002b755 	.word	0x0002b755
    1898:	0002b77c 	.word	0x0002b77c
    189c:	0002b797 	.word	0x0002b797
    18a0:	0002b7b6 	.word	0x0002b7b6
    18a4:	0002b7ca 	.word	0x0002b7ca
    18a8:	0002b7df 	.word	0x0002b7df
    18ac:	0002b7f7 	.word	0x0002b7f7

000018b0 <APP_ZCL_cbEndpointCallback>:
    18b0:	b573      	push	{r0, r1, r4, r5, r6, lr}
    18b2:	4604      	mov	r4, r0
    18b4:	7801      	ldrb	r1, [r0, #0]
    18b6:	486e      	ldr	r0, [pc, #440]	; (1a70 <APP_ZCL_cbEndpointCallback+0x1c0>)
    18b8:	f000 ff9a 	bl	27f0 <DbgConsole_Printf>
    18bc:	7823      	ldrb	r3, [r4, #0]
    18be:	2b0a      	cmp	r3, #10
    18c0:	d80a      	bhi.n	18d8 <APP_ZCL_cbEndpointCallback+0x28>
    18c2:	2b01      	cmp	r3, #1
    18c4:	d90d      	bls.n	18e2 <APP_ZCL_cbEndpointCallback+0x32>
    18c6:	3b03      	subs	r3, #3
    18c8:	2b07      	cmp	r3, #7
    18ca:	d856      	bhi.n	197a <APP_ZCL_cbEndpointCallback+0xca>
    18cc:	e8df f003 	tbb	[pc, r3]
    18d0:	55555559 	.word	0x55555559
    18d4:	60555555 	.word	0x60555555
    18d8:	2b15      	cmp	r3, #21
    18da:	d004      	beq.n	18e6 <APP_ZCL_cbEndpointCallback+0x36>
    18dc:	2b1b      	cmp	r3, #27
    18de:	f000 80c1 	beq.w	1a64 <APP_ZCL_cbEndpointCallback+0x1b4>
    18e2:	4864      	ldr	r0, [pc, #400]	; (1a74 <APP_ZCL_cbEndpointCallback+0x1c4>)
    18e4:	e04a      	b.n	197c <APP_ZCL_cbEndpointCallback+0xcc>
    18e6:	6ae3      	ldr	r3, [r4, #44]	; 0x2c
    18e8:	4863      	ldr	r0, [pc, #396]	; (1a78 <APP_ZCL_cbEndpointCallback+0x1c8>)
    18ea:	685b      	ldr	r3, [r3, #4]
    18ec:	8819      	ldrh	r1, [r3, #0]
    18ee:	f000 ff7f 	bl	27f0 <DbgConsole_Printf>
    18f2:	7a61      	ldrb	r1, [r4, #9]
    18f4:	4861      	ldr	r0, [pc, #388]	; (1a7c <APP_ZCL_cbEndpointCallback+0x1cc>)
    18f6:	f000 ff7b 	bl	27f0 <DbgConsole_Printf>
    18fa:	8961      	ldrh	r1, [r4, #10]
    18fc:	4860      	ldr	r0, [pc, #384]	; (1a80 <APP_ZCL_cbEndpointCallback+0x1d0>)
    18fe:	f000 ff77 	bl	27f0 <DbgConsole_Printf>
    1902:	89e1      	ldrh	r1, [r4, #14]
    1904:	485f      	ldr	r0, [pc, #380]	; (1a84 <APP_ZCL_cbEndpointCallback+0x1d4>)
    1906:	f000 ff73 	bl	27f0 <DbgConsole_Printf>
    190a:	89a1      	ldrh	r1, [r4, #12]
    190c:	485e      	ldr	r0, [pc, #376]	; (1a88 <APP_ZCL_cbEndpointCallback+0x1d8>)
    190e:	f000 ff6f 	bl	27f0 <DbgConsole_Printf>
    1912:	8a21      	ldrh	r1, [r4, #16]
    1914:	485d      	ldr	r0, [pc, #372]	; (1a8c <APP_ZCL_cbEndpointCallback+0x1dc>)
    1916:	f000 ff6b 	bl	27f0 <DbgConsole_Printf>
    191a:	f104 0608 	add.w	r6, r4, #8
    191e:	7a21      	ldrb	r1, [r4, #8]
    1920:	485b      	ldr	r0, [pc, #364]	; (1a90 <APP_ZCL_cbEndpointCallback+0x1e0>)
    1922:	f000 ff65 	bl	27f0 <DbgConsole_Printf>
    1926:	e9d6 2304 	ldrd	r2, r3, [r6, #16]
    192a:	485a      	ldr	r0, [pc, #360]	; (1a94 <APP_ZCL_cbEndpointCallback+0x1e4>)
    192c:	f000 ff60 	bl	27f0 <DbgConsole_Printf>
    1930:	6ae3      	ldr	r3, [r4, #44]	; 0x2c
    1932:	685b      	ldr	r3, [r3, #4]
    1934:	881d      	ldrh	r5, [r3, #0]
    1936:	f240 7302 	movw	r3, #1794	; 0x702
    193a:	429d      	cmp	r5, r3
    193c:	d114      	bne.n	1968 <APP_ZCL_cbEndpointCallback+0xb8>
    193e:	78e1      	ldrb	r1, [r4, #3]
    1940:	4855      	ldr	r0, [pc, #340]	; (1a98 <APP_ZCL_cbEndpointCallback+0x1e8>)
    1942:	f000 ff55 	bl	27f0 <DbgConsole_Printf>
    1946:	78e3      	ldrb	r3, [r4, #3]
    1948:	b923      	cbnz	r3, 1954 <APP_ZCL_cbEndpointCallback+0xa4>
    194a:	4631      	mov	r1, r6
    194c:	4628      	mov	r0, r5
    194e:	f7ff f89b 	bl	a88 <vSaveReportableRecord>
    1952:	e007      	b.n	1964 <APP_ZCL_cbEndpointCallback+0xb4>
    1954:	2b37      	cmp	r3, #55	; 0x37
    1956:	d105      	bne.n	1964 <APP_ZCL_cbEndpointCallback+0xb4>
    1958:	f7ff fd02 	bl	1360 <app_u8GetDeviceEndpoint>
    195c:	4632      	mov	r2, r6
    195e:	4629      	mov	r1, r5
    1960:	f7ff f8ba 	bl	ad8 <vRestoreDefaultRecord>
    1964:	b002      	add	sp, #8
    1966:	bd70      	pop	{r4, r5, r6, pc}
    1968:	f640 3304 	movw	r3, #2820	; 0xb04
    196c:	429d      	cmp	r5, r3
    196e:	d1f9      	bne.n	1964 <APP_ZCL_cbEndpointCallback+0xb4>
    1970:	78e1      	ldrb	r1, [r4, #3]
    1972:	4849      	ldr	r0, [pc, #292]	; (1a98 <APP_ZCL_cbEndpointCallback+0x1e8>)
    1974:	f000 ff3c 	bl	27f0 <DbgConsole_Printf>
    1978:	e7e7      	b.n	194a <APP_ZCL_cbEndpointCallback+0x9a>
    197a:	4848      	ldr	r0, [pc, #288]	; (1a9c <APP_ZCL_cbEndpointCallback+0x1ec>)
    197c:	f000 ff38 	bl	27f0 <DbgConsole_Printf>
    1980:	e7f0      	b.n	1964 <APP_ZCL_cbEndpointCallback+0xb4>
    1982:	68e3      	ldr	r3, [r4, #12]
    1984:	7ae1      	ldrb	r1, [r4, #11]
    1986:	781a      	ldrb	r2, [r3, #0]
    1988:	4845      	ldr	r0, [pc, #276]	; (1aa0 <APP_ZCL_cbEndpointCallback+0x1f0>)
    198a:	f000 ff31 	bl	27f0 <DbgConsole_Printf>
    198e:	e7e9      	b.n	1964 <APP_ZCL_cbEndpointCallback+0xb4>
    1990:	8921      	ldrh	r1, [r4, #8]
    1992:	4844      	ldr	r0, [pc, #272]	; (1aa4 <APP_ZCL_cbEndpointCallback+0x1f4>)
    1994:	f000 ff2c 	bl	27f0 <DbgConsole_Printf>
    1998:	8921      	ldrh	r1, [r4, #8]
    199a:	2904      	cmp	r1, #4
    199c:	d060      	beq.n	1a60 <APP_ZCL_cbEndpointCallback+0x1b0>
    199e:	d806      	bhi.n	19ae <APP_ZCL_cbEndpointCallback+0xfe>
    19a0:	b161      	cbz	r1, 19bc <APP_ZCL_cbEndpointCallback+0x10c>
    19a2:	2903      	cmp	r1, #3
    19a4:	d01f      	beq.n	19e6 <APP_ZCL_cbEndpointCallback+0x136>
    19a6:	4840      	ldr	r0, [pc, #256]	; (1aa8 <APP_ZCL_cbEndpointCallback+0x1f8>)
    19a8:	f000 ff22 	bl	27f0 <DbgConsole_Printf>
    19ac:	e7da      	b.n	1964 <APP_ZCL_cbEndpointCallback+0xb4>
    19ae:	2919      	cmp	r1, #25
    19b0:	d043      	beq.n	1a3a <APP_ZCL_cbEndpointCallback+0x18a>
    19b2:	f5b1 5f80 	cmp.w	r1, #4096	; 0x1000
    19b6:	d1f6      	bne.n	19a6 <APP_ZCL_cbEndpointCallback+0xf6>
    19b8:	483c      	ldr	r0, [pc, #240]	; (1aac <APP_ZCL_cbEndpointCallback+0x1fc>)
    19ba:	e7df      	b.n	197c <APP_ZCL_cbEndpointCallback+0xcc>
    19bc:	68e3      	ldr	r3, [r4, #12]
    19be:	781c      	ldrb	r4, [r3, #0]
    19c0:	2c00      	cmp	r4, #0
    19c2:	d1cf      	bne.n	1964 <APP_ZCL_cbEndpointCallback+0xb4>
    19c4:	483a      	ldr	r0, [pc, #232]	; (1ab0 <APP_ZCL_cbEndpointCallback+0x200>)
    19c6:	f000 ff13 	bl	27f0 <DbgConsole_Printf>
    19ca:	f44f 62a6 	mov.w	r2, #1328	; 0x530
    19ce:	4621      	mov	r1, r4
    19d0:	4838      	ldr	r0, [pc, #224]	; (1ab4 <APP_ZCL_cbEndpointCallback+0x204>)
    19d2:	f028 fca9 	bl	2a328 <memset>
    19d6:	f7ff f97f 	bl	cd8 <vAPP_ZCL_DeviceSpecific_Init>
    19da:	f001 f873 	bl	2ac4 <vAppInitOTA>
    19de:	4836      	ldr	r0, [pc, #216]	; (1ab8 <APP_ZCL_cbEndpointCallback+0x208>)
    19e0:	f7ff f972 	bl	cc8 <eApp_ZCL_RegisterEndpoint>
    19e4:	e7be      	b.n	1964 <APP_ZCL_cbEndpointCallback+0xb4>
    19e6:	4835      	ldr	r0, [pc, #212]	; (1abc <APP_ZCL_cbEndpointCallback+0x20c>)
    19e8:	f000 ff02 	bl	27f0 <DbgConsole_Printf>
    19ec:	68e3      	ldr	r3, [r4, #12]
    19ee:	781a      	ldrb	r2, [r3, #0]
    19f0:	b9c2      	cbnz	r2, 1a24 <APP_ZCL_cbEndpointCallback+0x174>
    19f2:	4833      	ldr	r0, [pc, #204]	; (1ac0 <APP_ZCL_cbEndpointCallback+0x210>)
    19f4:	f000 fefc 	bl	27f0 <DbgConsole_Printf>
    19f8:	6ae3      	ldr	r3, [r4, #44]	; 0x2c
    19fa:	781b      	ldrb	r3, [r3, #0]
    19fc:	b953      	cbnz	r3, 1a14 <APP_ZCL_cbEndpointCallback+0x164>
    19fe:	4831      	ldr	r0, [pc, #196]	; (1ac4 <APP_ZCL_cbEndpointCallback+0x214>)
    1a00:	f000 fef6 	bl	27f0 <DbgConsole_Printf>
    1a04:	2308      	movs	r3, #8
    1a06:	4668      	mov	r0, sp
    1a08:	f88d 3000 	strb.w	r3, [sp]
    1a0c:	9401      	str	r4, [sp, #4]
    1a0e:	f00e f9ed 	bl	fdec <BDB_vZclEventHandler>
    1a12:	e7a7      	b.n	1964 <APP_ZCL_cbEndpointCallback+0xb4>
    1a14:	4b27      	ldr	r3, [pc, #156]	; (1ab4 <APP_ZCL_cbEndpointCallback+0x204>)
    1a16:	f8b3 31c8 	ldrh.w	r3, [r3, #456]	; 0x1c8
    1a1a:	2b00      	cmp	r3, #0
    1a1c:	d1a2      	bne.n	1964 <APP_ZCL_cbEndpointCallback+0xb4>
    1a1e:	f000 fe27 	bl	2670 <vStopBlinkTimer>
    1a22:	e79f      	b.n	1964 <APP_ZCL_cbEndpointCallback+0xb4>
    1a24:	2a40      	cmp	r2, #64	; 0x40
    1a26:	d19d      	bne.n	1964 <APP_ZCL_cbEndpointCallback+0xb4>
    1a28:	6ae2      	ldr	r2, [r4, #44]	; 0x2c
    1a2a:	7812      	ldrb	r2, [r2, #0]
    1a2c:	2a00      	cmp	r2, #0
    1a2e:	d099      	beq.n	1964 <APP_ZCL_cbEndpointCallback+0xb4>
    1a30:	685b      	ldr	r3, [r3, #4]
    1a32:	4825      	ldr	r0, [pc, #148]	; (1ac8 <APP_ZCL_cbEndpointCallback+0x218>)
    1a34:	785a      	ldrb	r2, [r3, #1]
    1a36:	7819      	ldrb	r1, [r3, #0]
    1a38:	e7a7      	b.n	198a <APP_ZCL_cbEndpointCallback+0xda>
    1a3a:	68e4      	ldr	r4, [r4, #12]
    1a3c:	4620      	mov	r0, r4
    1a3e:	f001 fceb 	bl	3418 <vHandleAppOtaClient>
    1a42:	4b22      	ldr	r3, [pc, #136]	; (1acc <APP_ZCL_cbEndpointCallback+0x21c>)
    1a44:	781b      	ldrb	r3, [r3, #0]
    1a46:	2b01      	cmp	r3, #1
    1a48:	d08c      	beq.n	1964 <APP_ZCL_cbEndpointCallback+0xb4>
    1a4a:	7823      	ldrb	r3, [r4, #0]
    1a4c:	2b02      	cmp	r3, #2
    1a4e:	d189      	bne.n	1964 <APP_ZCL_cbEndpointCallback+0xb4>
    1a50:	481f      	ldr	r0, [pc, #124]	; (1ad0 <APP_ZCL_cbEndpointCallback+0x220>)
    1a52:	f000 fecd 	bl	27f0 <DbgConsole_Printf>
    1a56:	4b1f      	ldr	r3, [pc, #124]	; (1ad4 <APP_ZCL_cbEndpointCallback+0x224>)
    1a58:	7818      	ldrb	r0, [r3, #0]
    1a5a:	f002 faed 	bl	4038 <ZTIMER_eStop>
    1a5e:	e781      	b.n	1964 <APP_ZCL_cbEndpointCallback+0xb4>
    1a60:	481d      	ldr	r0, [pc, #116]	; (1ad8 <APP_ZCL_cbEndpointCallback+0x228>)
    1a62:	e78b      	b.n	197c <APP_ZCL_cbEndpointCallback+0xcc>
    1a64:	6ae3      	ldr	r3, [r4, #44]	; 0x2c
    1a66:	481d      	ldr	r0, [pc, #116]	; (1adc <APP_ZCL_cbEndpointCallback+0x22c>)
    1a68:	685b      	ldr	r3, [r3, #4]
    1a6a:	8819      	ldrh	r1, [r3, #0]
    1a6c:	e79c      	b.n	19a8 <APP_ZCL_cbEndpointCallback+0xf8>
    1a6e:	bf00      	nop
    1a70:	0002b814 	.word	0x0002b814
    1a74:	0002bafe 	.word	0x0002bafe
    1a78:	0002b82d 	.word	0x0002b82d
    1a7c:	0002b868 	.word	0x0002b868
    1a80:	0002b88b 	.word	0x0002b88b
    1a84:	0002b8ac 	.word	0x0002b8ac
    1a88:	0002b8d8 	.word	0x0002b8d8
    1a8c:	0002b904 	.word	0x0002b904
    1a90:	0002b92a 	.word	0x0002b92a
    1a94:	0002b950 	.word	0x0002b950
    1a98:	0002b97b 	.word	0x0002b97b
    1a9c:	0002b997 	.word	0x0002b997
    1aa0:	0002b9b2 	.word	0x0002b9b2
    1aa4:	0002b9d4 	.word	0x0002b9d4
    1aa8:	0002bac4 	.word	0x0002bac4
    1aac:	0002baad 	.word	0x0002baad
    1ab0:	0002b9f2 	.word	0x0002b9f2
    1ab4:	04014060 	.word	0x04014060
    1ab8:	000018b1 	.word	0x000018b1
    1abc:	0002ba10 	.word	0x0002ba10
    1ac0:	0002ba2f 	.word	0x0002ba2f
    1ac4:	0002ba4f 	.word	0x0002ba4f
    1ac8:	0002ba5c 	.word	0x0002ba5c
    1acc:	04012580 	.word	0x04012580
    1ad0:	0002ba79 	.word	0x0002ba79
    1ad4:	040126fe 	.word	0x040126fe
    1ad8:	0002ba90 	.word	0x0002ba90
    1adc:	0002bae5 	.word	0x0002bae5

00001ae0 <APP_ZCL_vInitialise>:
    1ae0:	4910      	ldr	r1, [pc, #64]	; (1b24 <APP_ZCL_vInitialise+0x44>)
    1ae2:	4811      	ldr	r0, [pc, #68]	; (1b28 <APP_ZCL_vInitialise+0x48>)
    1ae4:	b508      	push	{r3, lr}
    1ae6:	f00b fca7 	bl	d438 <eZCL_Initialise>
    1aea:	4601      	mov	r1, r0
    1aec:	b110      	cbz	r0, 1af4 <APP_ZCL_vInitialise+0x14>
    1aee:	480f      	ldr	r0, [pc, #60]	; (1b2c <APP_ZCL_vInitialise+0x4c>)
    1af0:	f000 fe7e 	bl	27f0 <DbgConsole_Printf>
    1af4:	480e      	ldr	r0, [pc, #56]	; (1b30 <APP_ZCL_vInitialise+0x50>)
    1af6:	f7ff f8e7 	bl	cc8 <eApp_ZCL_RegisterEndpoint>
    1afa:	4601      	mov	r1, r0
    1afc:	b110      	cbz	r0, 1b04 <APP_ZCL_vInitialise+0x24>
    1afe:	480d      	ldr	r0, [pc, #52]	; (1b34 <APP_ZCL_vInitialise+0x54>)
    1b00:	f000 fe76 	bl	27f0 <DbgConsole_Printf>
    1b04:	480c      	ldr	r0, [pc, #48]	; (1b38 <APP_ZCL_vInitialise+0x58>)
    1b06:	f000 fe73 	bl	27f0 <DbgConsole_Printf>
    1b0a:	4b0c      	ldr	r3, [pc, #48]	; (1b3c <APP_ZCL_vInitialise+0x5c>)
    1b0c:	f44f 717a 	mov.w	r1, #1000	; 0x3e8
    1b10:	7818      	ldrb	r0, [r3, #0]
    1b12:	f002 fa67 	bl	3fe4 <ZTIMER_eStart>
    1b16:	f7ff f8df 	bl	cd8 <vAPP_ZCL_DeviceSpecific_Init>
    1b1a:	e8bd 4008 	ldmia.w	sp!, {r3, lr}
    1b1e:	f000 bfd1 	b.w	2ac4 <vAppInitOTA>
    1b22:	bf00      	nop
    1b24:	04011bcc 	.word	0x04011bcc
    1b28:	00001855 	.word	0x00001855
    1b2c:	0002bb22 	.word	0x0002bb22
    1b30:	000018b1 	.word	0x000018b1
    1b34:	0002bb4e 	.word	0x0002bb4e
    1b38:	0002bb7c 	.word	0x0002bb7c
    1b3c:	04012700 	.word	0x04012700

00001b40 <APP_ZCL_vEventHandler>:
    1b40:	b500      	push	{lr}
    1b42:	b08d      	sub	sp, #52	; 0x34
    1b44:	2309      	movs	r3, #9
    1b46:	900a      	str	r0, [sp, #40]	; 0x28
    1b48:	4668      	mov	r0, sp
    1b4a:	f88d 3000 	strb.w	r3, [sp]
    1b4e:	f00b fff7 	bl	db40 <vZCL_EventHandler>
    1b52:	b00d      	add	sp, #52	; 0x34
    1b54:	f85d fb04 	ldr.w	pc, [sp], #4

00001b58 <vAPP_ZCL_Tick>:
    1b58:	b500      	push	{lr}
    1b5a:	b09b      	sub	sp, #108	; 0x6c
    1b5c:	ab0c      	add	r3, sp, #48	; 0x30
    1b5e:	930a      	str	r3, [sp, #40]	; 0x28
    1b60:	f000 fd1c 	bl	259c <vDecrementTickCount>
    1b64:	2308      	movs	r3, #8
    1b66:	4668      	mov	r0, sp
    1b68:	f88d 3000 	strb.w	r3, [sp]
    1b6c:	f00b ffe8 	bl	db40 <vZCL_EventHandler>
    1b70:	b01b      	add	sp, #108	; 0x6c
    1b72:	f85d fb04 	ldr.w	pc, [sp], #4
    1b76:	Address 0x00001b76 is out of bounds.


00001b78 <APP_cbTimerZclTick>:
    1b78:	b508      	push	{r3, lr}
    1b7a:	f7ff ffed 	bl	1b58 <vAPP_ZCL_Tick>
    1b7e:	4b0c      	ldr	r3, [pc, #48]	; (1bb0 <APP_cbTimerZclTick+0x38>)
    1b80:	f44f 717a 	mov.w	r1, #1000	; 0x3e8
    1b84:	7818      	ldrb	r0, [r3, #0]
    1b86:	f002 fa2d 	bl	3fe4 <ZTIMER_eStart>
    1b8a:	f44f 707a 	mov.w	r0, #1000	; 0x3e8
    1b8e:	f001 f8c7 	bl	2d20 <vRunAppOTAStateMachine>
    1b92:	4a08      	ldr	r2, [pc, #32]	; (1bb4 <APP_cbTimerZclTick+0x3c>)
    1b94:	4908      	ldr	r1, [pc, #32]	; (1bb8 <APP_cbTimerZclTick+0x40>)
    1b96:	6813      	ldr	r3, [r2, #0]
    1b98:	3364      	adds	r3, #100	; 0x64
    1b9a:	428b      	cmp	r3, r1
    1b9c:	d801      	bhi.n	1ba2 <APP_cbTimerZclTick+0x2a>
    1b9e:	6013      	str	r3, [r2, #0]
    1ba0:	bd08      	pop	{r3, pc}
    1ba2:	2000      	movs	r0, #0
    1ba4:	e8bd 4008 	ldmia.w	sp!, {r3, lr}
    1ba8:	6010      	str	r0, [r2, #0]
    1baa:	f7fe bd4d 	b.w	648 <APP_vRadioTempUpdate>
    1bae:	bf00      	nop
    1bb0:	04012700 	.word	0x04012700
    1bb4:	040145b4 	.word	0x040145b4
    1bb8:	000493df 	.word	0x000493df

00001bbc <gint_callback>:
    1bbc:	4b0b      	ldr	r3, [pc, #44]	; (1bec <gint_callback+0x30>)
    1bbe:	480c      	ldr	r0, [pc, #48]	; (1bf0 <gint_callback+0x34>)
    1bc0:	b510      	push	{r4, lr}
    1bc2:	681c      	ldr	r4, [r3, #0]
    1bc4:	f004 0401 	and.w	r4, r4, #1
    1bc8:	4621      	mov	r1, r4
    1bca:	f000 fe11 	bl	27f0 <DbgConsole_Printf>
    1bce:	b964      	cbnz	r4, 1bea <gint_callback+0x2e>
    1bd0:	4c08      	ldr	r4, [pc, #32]	; (1bf4 <gint_callback+0x38>)
    1bd2:	4809      	ldr	r0, [pc, #36]	; (1bf8 <gint_callback+0x3c>)
    1bd4:	f000 fe96 	bl	2904 <GINT_DisableCallback>
    1bd8:	7820      	ldrb	r0, [r4, #0]
    1bda:	f002 fa2d 	bl	4038 <ZTIMER_eStop>
    1bde:	7820      	ldrb	r0, [r4, #0]
    1be0:	210a      	movs	r1, #10
    1be2:	e8bd 4010 	ldmia.w	sp!, {r4, lr}
    1be6:	f002 b9fd 	b.w	3fe4 <ZTIMER_eStart>
    1bea:	bd10      	pop	{r4, pc}
    1bec:	40082100 	.word	0x40082100
    1bf0:	0002bb92 	.word	0x0002bb92
    1bf4:	040126fc 	.word	0x040126fc
    1bf8:	40011000 	.word	0x40011000

00001bfc <APP_u32GetSwitchIOState>:
    1bfc:	4b02      	ldr	r3, [pc, #8]	; (1c08 <APP_u32GetSwitchIOState+0xc>)
    1bfe:	6818      	ldr	r0, [r3, #0]
    1c00:	f000 0001 	and.w	r0, r0, #1
    1c04:	4770      	bx	lr
    1c06:	bf00      	nop
    1c08:	40082100 	.word	0x40082100

00001c0c <APP_cbTimerButtonScan>:
    1c0c:	b57f      	push	{r0, r1, r2, r3, r4, r5, r6, lr}
    1c0e:	4b32      	ldr	r3, [pc, #200]	; (1cd8 <APP_cbTimerButtonScan+0xcc>)
    1c10:	4a32      	ldr	r2, [pc, #200]	; (1cdc <APP_cbTimerButtonScan+0xd0>)
    1c12:	681b      	ldr	r3, [r3, #0]
    1c14:	7811      	ldrb	r1, [r2, #0]
    1c16:	4c32      	ldr	r4, [pc, #200]	; (1ce0 <APP_cbTimerButtonScan+0xd4>)
    1c18:	f003 0301 	and.w	r3, r3, #1
    1c1c:	ea43 0341 	orr.w	r3, r3, r1, lsl #1
    1c20:	b2db      	uxtb	r3, r3
    1c22:	7013      	strb	r3, [r2, #0]
    1c24:	bb1b      	cbnz	r3, 1c6e <APP_cbTimerButtonScan+0x62>
    1c26:	4b2f      	ldr	r3, [pc, #188]	; (1ce4 <APP_cbTimerButtonScan+0xd8>)
    1c28:	781d      	ldrb	r5, [r3, #0]
    1c2a:	b9c5      	cbnz	r5, 1c5e <APP_cbTimerButtonScan+0x52>
    1c2c:	2201      	movs	r2, #1
    1c2e:	701a      	strb	r2, [r3, #0]
    1c30:	2302      	movs	r3, #2
    1c32:	f88d 3004 	strb.w	r3, [sp, #4]
    1c36:	f88d 5008 	strb.w	r5, [sp, #8]
    1c3a:	f007 fac7 	bl	91cc <OSA_TimeGetMsec>
    1c3e:	4b2a      	ldr	r3, [pc, #168]	; (1ce8 <APP_cbTimerButtonScan+0xdc>)
    1c40:	4629      	mov	r1, r5
    1c42:	6018      	str	r0, [r3, #0]
    1c44:	4829      	ldr	r0, [pc, #164]	; (1cec <APP_cbTimerButtonScan+0xe0>)
    1c46:	f000 fdd3 	bl	27f0 <DbgConsole_Printf>
    1c4a:	4829      	ldr	r0, [pc, #164]	; (1cf0 <APP_cbTimerButtonScan+0xe4>)
    1c4c:	a901      	add	r1, sp, #4
    1c4e:	f002 f8fc 	bl	3e4a <ZQ_bQueueSend>
    1c52:	b920      	cbnz	r0, 1c5e <APP_cbTimerButtonScan+0x52>
    1c54:	f89d 1004 	ldrb.w	r1, [sp, #4]
    1c58:	4826      	ldr	r0, [pc, #152]	; (1cf4 <APP_cbTimerButtonScan+0xe8>)
    1c5a:	f000 fdc9 	bl	27f0 <DbgConsole_Printf>
    1c5e:	7820      	ldrb	r0, [r4, #0]
    1c60:	f002 f9ea 	bl	4038 <ZTIMER_eStop>
    1c64:	7820      	ldrb	r0, [r4, #0]
    1c66:	210a      	movs	r1, #10
    1c68:	f002 f9bc 	bl	3fe4 <ZTIMER_eStart>
    1c6c:	e032      	b.n	1cd4 <APP_cbTimerButtonScan+0xc8>
    1c6e:	2bff      	cmp	r3, #255	; 0xff
    1c70:	d1f5      	bne.n	1c5e <APP_cbTimerButtonScan+0x52>
    1c72:	4b1c      	ldr	r3, [pc, #112]	; (1ce4 <APP_cbTimerButtonScan+0xd8>)
    1c74:	781a      	ldrb	r2, [r3, #0]
    1c76:	b31a      	cbz	r2, 1cc0 <APP_cbTimerButtonScan+0xb4>
    1c78:	4e1b      	ldr	r6, [pc, #108]	; (1ce8 <APP_cbTimerButtonScan+0xdc>)
    1c7a:	2500      	movs	r5, #0
    1c7c:	701d      	strb	r5, [r3, #0]
    1c7e:	f007 faa5 	bl	91cc <OSA_TimeGetMsec>
    1c82:	6831      	ldr	r1, [r6, #0]
    1c84:	1a41      	subs	r1, r0, r1
    1c86:	481c      	ldr	r0, [pc, #112]	; (1cf8 <APP_cbTimerButtonScan+0xec>)
    1c88:	6031      	str	r1, [r6, #0]
    1c8a:	f000 fdb1 	bl	27f0 <DbgConsole_Printf>
    1c8e:	6832      	ldr	r2, [r6, #0]
    1c90:	481a      	ldr	r0, [pc, #104]	; (1cfc <APP_cbTimerButtonScan+0xf0>)
    1c92:	f88d 5008 	strb.w	r5, [sp, #8]
    1c96:	f241 3387 	movw	r3, #4999	; 0x1387
    1c9a:	429a      	cmp	r2, r3
    1c9c:	bf94      	ite	ls
    1c9e:	2201      	movls	r2, #1
    1ca0:	220b      	movhi	r2, #11
    1ca2:	4629      	mov	r1, r5
    1ca4:	f88d 2004 	strb.w	r2, [sp, #4]
    1ca8:	f000 fda2 	bl	27f0 <DbgConsole_Printf>
    1cac:	4810      	ldr	r0, [pc, #64]	; (1cf0 <APP_cbTimerButtonScan+0xe4>)
    1cae:	a901      	add	r1, sp, #4
    1cb0:	f002 f8cb 	bl	3e4a <ZQ_bQueueSend>
    1cb4:	b920      	cbnz	r0, 1cc0 <APP_cbTimerButtonScan+0xb4>
    1cb6:	f89d 1004 	ldrb.w	r1, [sp, #4]
    1cba:	480e      	ldr	r0, [pc, #56]	; (1cf4 <APP_cbTimerButtonScan+0xe8>)
    1cbc:	f000 fd98 	bl	27f0 <DbgConsole_Printf>
    1cc0:	2101      	movs	r1, #1
    1cc2:	480f      	ldr	r0, [pc, #60]	; (1d00 <APP_cbTimerButtonScan+0xf4>)
    1cc4:	f000 fd94 	bl	27f0 <DbgConsole_Printf>
    1cc8:	480e      	ldr	r0, [pc, #56]	; (1d04 <APP_cbTimerButtonScan+0xf8>)
    1cca:	f000 fe0b 	bl	28e4 <GINT_EnableCallback>
    1cce:	7820      	ldrb	r0, [r4, #0]
    1cd0:	f002 f9b2 	bl	4038 <ZTIMER_eStop>
    1cd4:	b004      	add	sp, #16
    1cd6:	bd70      	pop	{r4, r5, r6, pc}
    1cd8:	40082100 	.word	0x40082100
    1cdc:	04011f68 	.word	0x04011f68
    1ce0:	040126fc 	.word	0x040126fc
    1ce4:	040145b8 	.word	0x040145b8
    1ce8:	040145bc 	.word	0x040145bc
    1cec:	0002bbb9 	.word	0x0002bbb9
    1cf0:	04012584 	.word	0x04012584
    1cf4:	0002bbc8 	.word	0x0002bbc8
    1cf8:	0002bbeb 	.word	0x0002bbeb
    1cfc:	0002bc27 	.word	0x0002bc27
    1d00:	0002bc40 	.word	0x0002bc40
    1d04:	40011000 	.word	0x40011000

00001d08 <APP_bButtonInitialise>:
    1d08:	b573      	push	{r0, r1, r4, r5, r6, lr}
    1d0a:	4b15      	ldr	r3, [pc, #84]	; (1d60 <APP_bButtonInitialise+0x58>)
    1d0c:	4d15      	ldr	r5, [pc, #84]	; (1d64 <APP_bButtonInitialise+0x5c>)
    1d0e:	4e16      	ldr	r6, [pc, #88]	; (1d68 <APP_bButtonInitialise+0x60>)
    1d10:	2400      	movs	r4, #0
    1d12:	2280      	movs	r2, #128	; 0x80
    1d14:	4621      	mov	r1, r4
    1d16:	f8ad 4004 	strh.w	r4, [sp, #4]
    1d1a:	4628      	mov	r0, r5
    1d1c:	601a      	str	r2, [r3, #0]
    1d1e:	ab01      	add	r3, sp, #4
    1d20:	4622      	mov	r2, r4
    1d22:	f000 fd85 	bl	2830 <GPIO_PinInit>
    1d26:	4630      	mov	r0, r6
    1d28:	f000 fdae 	bl	2888 <GINT_Init>
    1d2c:	4622      	mov	r2, r4
    1d2e:	4621      	mov	r1, r4
    1d30:	4630      	mov	r0, r6
    1d32:	4b0e      	ldr	r3, [pc, #56]	; (1d6c <APP_bButtonInitialise+0x64>)
    1d34:	f000 fdba 	bl	28ac <GINT_SetCtrl>
    1d38:	2301      	movs	r3, #1
    1d3a:	4622      	mov	r2, r4
    1d3c:	4621      	mov	r1, r4
    1d3e:	4630      	mov	r0, r6
    1d40:	f000 fdca 	bl	28d8 <GINT_ConfigPins>
    1d44:	f505 5504 	add.w	r5, r5, #8448	; 0x2100
    1d48:	4630      	mov	r0, r6
    1d4a:	f000 fdcb 	bl	28e4 <GINT_EnableCallback>
    1d4e:	4620      	mov	r0, r4
    1d50:	f7ff ff5c 	bl	1c0c <APP_cbTimerButtonScan>
    1d54:	6828      	ldr	r0, [r5, #0]
    1d56:	43c0      	mvns	r0, r0
    1d58:	f000 0001 	and.w	r0, r0, #1
    1d5c:	b002      	add	sp, #8
    1d5e:	bd70      	pop	{r4, r5, r6, pc}
    1d60:	4000f000 	.word	0x4000f000
    1d64:	40080000 	.word	0x40080000
    1d68:	40011000 	.word	0x40011000
    1d6c:	00001bbd 	.word	0x00001bbd

00001d70 <vAppHandleRunning>:
    1d70:	b510      	push	{r4, lr}
    1d72:	4604      	mov	r4, r0
    1d74:	7801      	ldrb	r1, [r0, #0]
    1d76:	4811      	ldr	r0, [pc, #68]	; (1dbc <vAppHandleRunning+0x4c>)
    1d78:	f000 fd3a 	bl	27f0 <DbgConsole_Printf>
    1d7c:	7823      	ldrb	r3, [r4, #0]
    1d7e:	3b06      	subs	r3, #6
    1d80:	2b09      	cmp	r3, #9
    1d82:	d819      	bhi.n	1db8 <vAppHandleRunning+0x48>
    1d84:	e8df f003 	tbb	[pc, r3]
    1d88:	18181805 	.word	0x18181805
    1d8c:	18130918 	.word	0x18130918
    1d90:	0e18      	.short	0x0e18
    1d92:	e8bd 4010 	ldmia.w	sp!, {r4, lr}
    1d96:	f000 ba0f 	b.w	21b8 <vHandleNetworkJoinEndDevice>
    1d9a:	4620      	mov	r0, r4
    1d9c:	e8bd 4010 	ldmia.w	sp!, {r4, lr}
    1da0:	f000 ba2a 	b.w	21f8 <vHandleNetworkLeave>
    1da4:	4620      	mov	r0, r4
    1da6:	e8bd 4010 	ldmia.w	sp!, {r4, lr}
    1daa:	f000 b9d5 	b.w	2158 <vHandlePollResponse>
    1dae:	4620      	mov	r0, r4
    1db0:	e8bd 4010 	ldmia.w	sp!, {r4, lr}
    1db4:	f000 ba48 	b.w	2248 <vHandleNetworkLeaveConfirm>
    1db8:	bd10      	pop	{r4, pc}
    1dba:	bf00      	nop
    1dbc:	0002bc49 	.word	0x0002bc49

00001dc0 <vAppHandleStartup>:
    1dc0:	b508      	push	{r3, lr}
    1dc2:	4804      	ldr	r0, [pc, #16]	; (1dd4 <vAppHandleStartup+0x14>)
    1dc4:	f000 fd14 	bl	27f0 <DbgConsole_Printf>
    1dc8:	f00e f9ac 	bl	10124 <BDB_eNsStartNwkSteering>
    1dcc:	4b02      	ldr	r3, [pc, #8]	; (1dd8 <vAppHandleStartup+0x18>)
    1dce:	2201      	movs	r2, #1
    1dd0:	701a      	strb	r2, [r3, #0]
    1dd2:	bd08      	pop	{r3, pc}
    1dd4:	0002bc72 	.word	0x0002bc72
    1dd8:	04014598 	.word	0x04014598

00001ddc <BOARD_GetClock32MCapacitanceCharacteristics>:
    1ddc:	4800      	ldr	r0, [pc, #0]	; (1de0 <BOARD_GetClock32MCapacitanceCharacteristics+0x4>)
    1dde:	4770      	bx	lr
    1de0:	0002bc90 	.word	0x0002bc90

00001de4 <UARTLINKY_vInit>:
    1de4:	b51f      	push	{r0, r1, r2, r3, r4, lr}
    1de6:	4668      	mov	r0, sp
    1de8:	f003 f97a 	bl	50e0 <USART_GetDefaultConfig>
    1dec:	f44f 6396 	mov.w	r3, #1200	; 0x4b0
    1df0:	9300      	str	r3, [sp, #0]
    1df2:	2301      	movs	r3, #1
    1df4:	f8ad 3008 	strh.w	r3, [sp, #8]
    1df8:	2300      	movs	r3, #0
    1dfa:	f88d 3006 	strb.w	r3, [sp, #6]
    1dfe:	480a      	ldr	r0, [pc, #40]	; (1e28 <UARTLINKY_vInit+0x44>)
    1e00:	4c0a      	ldr	r4, [pc, #40]	; (1e2c <UARTLINKY_vInit+0x48>)
    1e02:	2302      	movs	r3, #2
    1e04:	f88d 3004 	strb.w	r3, [sp, #4]
    1e08:	f002 fe4c 	bl	4aa4 <CLOCK_GetFreq>
    1e0c:	4669      	mov	r1, sp
    1e0e:	4602      	mov	r2, r0
    1e10:	4620      	mov	r0, r4
    1e12:	f003 f9d5 	bl	51c0 <USART_Init>
    1e16:	230a      	movs	r3, #10
    1e18:	f8c4 3e10 	str.w	r3, [r4, #3600]	; 0xe10
    1e1c:	4b04      	ldr	r3, [pc, #16]	; (1e30 <UARTLINKY_vInit+0x4c>)
    1e1e:	f44f 5280 	mov.w	r2, #4096	; 0x1000
    1e22:	601a      	str	r2, [r3, #0]
    1e24:	b004      	add	sp, #16
    1e26:	bd10      	pop	{r4, pc}
    1e28:	00010008 	.word	0x00010008
    1e2c:	4008c000 	.word	0x4008c000
    1e30:	e000e100 	.word	0xe000e100

00001e34 <UARTLINKY_vDeInit>:
    1e34:	b510      	push	{r4, lr}
    1e36:	4c04      	ldr	r4, [pc, #16]	; (1e48 <UARTLINKY_vDeInit+0x14>)
    1e38:	4620      	mov	r0, r4
    1e3a:	f003 f931 	bl	50a0 <USART_Deinit>
    1e3e:	230a      	movs	r3, #10
    1e40:	f8c4 3e14 	str.w	r3, [r4, #3604]	; 0xe14
    1e44:	bd10      	pop	{r4, pc}
    1e46:	bf00      	nop
    1e48:	4008c000 	.word	0x4008c000

00001e4c <UARTLINKY_vSetBaudRate>:
    1e4c:	b510      	push	{r4, lr}
    1e4e:	4604      	mov	r4, r0
    1e50:	4807      	ldr	r0, [pc, #28]	; (1e70 <UARTLINKY_vSetBaudRate+0x24>)
    1e52:	f002 fe27 	bl	4aa4 <CLOCK_GetFreq>
    1e56:	4621      	mov	r1, r4
    1e58:	4602      	mov	r2, r0
    1e5a:	4806      	ldr	r0, [pc, #24]	; (1e74 <UARTLINKY_vSetBaudRate+0x28>)
    1e5c:	f003 f95e 	bl	511c <USART_SetBaudRate>
    1e60:	b120      	cbz	r0, 1e6c <UARTLINKY_vSetBaudRate+0x20>
    1e62:	e8bd 4010 	ldmia.w	sp!, {r4, lr}
    1e66:	4804      	ldr	r0, [pc, #16]	; (1e78 <UARTLINKY_vSetBaudRate+0x2c>)
    1e68:	f000 bcc2 	b.w	27f0 <DbgConsole_Printf>
    1e6c:	bd10      	pop	{r4, pc}
    1e6e:	bf00      	nop
    1e70:	00010008 	.word	0x00010008
    1e74:	4008c000 	.word	0x4008c000
    1e78:	0002bc9c 	.word	0x0002bc9c

00001e7c <FLEXCOMM1_IRQHandler>:
    1e7c:	4b0a      	ldr	r3, [pc, #40]	; (1ea8 <FLEXCOMM1_IRQHandler+0x2c>)
    1e7e:	b507      	push	{r0, r1, r2, lr}
    1e80:	f8d3 2e04 	ldr.w	r2, [r3, #3588]	; 0xe04
    1e84:	f012 0f42 	tst.w	r2, #66	; 0x42
    1e88:	d00b      	beq.n	1ea2 <FLEXCOMM1_IRQHandler+0x26>
    1e8a:	2202      	movs	r2, #2
    1e8c:	f8c3 2e04 	str.w	r2, [r3, #3588]	; 0xe04
    1e90:	f8d3 3e30 	ldr.w	r3, [r3, #3632]	; 0xe30
    1e94:	4805      	ldr	r0, [pc, #20]	; (1eac <FLEXCOMM1_IRQHandler+0x30>)
    1e96:	f88d 3007 	strb.w	r3, [sp, #7]
    1e9a:	f10d 0107 	add.w	r1, sp, #7
    1e9e:	f001 ffd4 	bl	3e4a <ZQ_bQueueSend>
    1ea2:	b003      	add	sp, #12
    1ea4:	f85d fb04 	ldr.w	pc, [sp], #4
    1ea8:	4008c000 	.word	0x4008c000
    1eac:	040125a4 	.word	0x040125a4

00001eb0 <bSL_ReadMessage>:
    1eb0:	2b0d      	cmp	r3, #13
    1eb2:	b5f8      	push	{r3, r4, r5, r6, r7, lr}
    1eb4:	4e36      	ldr	r6, [pc, #216]	; (1f90 <bSL_ReadMessage+0xe0>)
    1eb6:	460f      	mov	r7, r1
    1eb8:	4615      	mov	r5, r2
    1eba:	d018      	beq.n	1eee <bSL_ReadMessage+0x3e>
    1ebc:	2b20      	cmp	r3, #32
    1ebe:	d02c      	beq.n	1f1a <bSL_ReadMessage+0x6a>
    1ec0:	2b0a      	cmp	r3, #10
    1ec2:	d140      	bne.n	1f46 <bSL_ReadMessage+0x96>
    1ec4:	2400      	movs	r4, #0
    1ec6:	4b33      	ldr	r3, [pc, #204]	; (1f94 <bSL_ReadMessage+0xe4>)
    1ec8:	4622      	mov	r2, r4
    1eca:	4621      	mov	r1, r4
    1ecc:	4638      	mov	r0, r7
    1ece:	701c      	strb	r4, [r3, #0]
    1ed0:	f028 fa2a 	bl	2a328 <memset>
    1ed4:	4622      	mov	r2, r4
    1ed6:	4621      	mov	r1, r4
    1ed8:	4628      	mov	r0, r5
    1eda:	f028 fa25 	bl	2a328 <memset>
    1ede:	2301      	movs	r3, #1
    1ee0:	7033      	strb	r3, [r6, #0]
    1ee2:	4b2d      	ldr	r3, [pc, #180]	; (1f98 <bSL_ReadMessage+0xe8>)
    1ee4:	701c      	strb	r4, [r3, #0]
    1ee6:	4b2d      	ldr	r3, [pc, #180]	; (1f9c <bSL_ReadMessage+0xec>)
    1ee8:	801c      	strh	r4, [r3, #0]
    1eea:	2000      	movs	r0, #0
    1eec:	e014      	b.n	1f18 <bSL_ReadMessage+0x68>
    1eee:	7830      	ldrb	r0, [r6, #0]
    1ef0:	b190      	cbz	r0, 1f18 <bSL_ReadMessage+0x68>
    1ef2:	4b29      	ldr	r3, [pc, #164]	; (1f98 <bSL_ReadMessage+0xe8>)
    1ef4:	781b      	ldrb	r3, [r3, #0]
    1ef6:	2b01      	cmp	r3, #1
    1ef8:	d9f7      	bls.n	1eea <bSL_ReadMessage+0x3a>
    1efa:	4b26      	ldr	r3, [pc, #152]	; (1f94 <bSL_ReadMessage+0xe4>)
    1efc:	7819      	ldrb	r1, [r3, #0]
    1efe:	f001 013f 	and.w	r1, r1, #63	; 0x3f
    1f02:	3120      	adds	r1, #32
    1f04:	7019      	strb	r1, [r3, #0]
    1f06:	4b26      	ldr	r3, [pc, #152]	; (1fa0 <bSL_ReadMessage+0xf0>)
    1f08:	781a      	ldrb	r2, [r3, #0]
    1f0a:	4291      	cmp	r1, r2
    1f0c:	d004      	beq.n	1f18 <bSL_ReadMessage+0x68>
    1f0e:	4825      	ldr	r0, [pc, #148]	; (1fa4 <bSL_ReadMessage+0xf4>)
    1f10:	f000 fc6e 	bl	27f0 <DbgConsole_Printf>
    1f14:	2000      	movs	r0, #0
    1f16:	7030      	strb	r0, [r6, #0]
    1f18:	bdf8      	pop	{r3, r4, r5, r6, r7, pc}
    1f1a:	7830      	ldrb	r0, [r6, #0]
    1f1c:	2800      	cmp	r0, #0
    1f1e:	d0fb      	beq.n	1f18 <bSL_ReadMessage+0x68>
    1f20:	491d      	ldr	r1, [pc, #116]	; (1f98 <bSL_ReadMessage+0xe8>)
    1f22:	780a      	ldrb	r2, [r1, #0]
    1f24:	3201      	adds	r2, #1
    1f26:	b2d2      	uxtb	r2, r2
    1f28:	2a01      	cmp	r2, #1
    1f2a:	700a      	strb	r2, [r1, #0]
    1f2c:	bf98      	it	ls
    1f2e:	4a19      	ldrls	r2, [pc, #100]	; (1f94 <bSL_ReadMessage+0xe4>)
    1f30:	491a      	ldr	r1, [pc, #104]	; (1f9c <bSL_ReadMessage+0xec>)
    1f32:	bf94      	ite	ls
    1f34:	7813      	ldrbls	r3, [r2, #0]
    1f36:	4a1a      	ldrhi	r2, [pc, #104]	; (1fa0 <bSL_ReadMessage+0xf0>)
    1f38:	f04f 0000 	mov.w	r0, #0
    1f3c:	bf98      	it	ls
    1f3e:	3320      	addls	r3, #32
    1f40:	8008      	strh	r0, [r1, #0]
    1f42:	7013      	strb	r3, [r2, #0]
    1f44:	e7e8      	b.n	1f18 <bSL_ReadMessage+0x68>
    1f46:	7830      	ldrb	r0, [r6, #0]
    1f48:	2800      	cmp	r0, #0
    1f4a:	d0e5      	beq.n	1f18 <bSL_ReadMessage+0x68>
    1f4c:	4a12      	ldr	r2, [pc, #72]	; (1f98 <bSL_ReadMessage+0xe8>)
    1f4e:	7811      	ldrb	r1, [r2, #0]
    1f50:	b959      	cbnz	r1, 1f6a <bSL_ReadMessage+0xba>
    1f52:	4c12      	ldr	r4, [pc, #72]	; (1f9c <bSL_ReadMessage+0xec>)
    1f54:	8820      	ldrh	r0, [r4, #0]
    1f56:	1c42      	adds	r2, r0, #1
    1f58:	b292      	uxth	r2, r2
    1f5a:	8022      	strh	r2, [r4, #0]
    1f5c:	4c0d      	ldr	r4, [pc, #52]	; (1f94 <bSL_ReadMessage+0xe4>)
    1f5e:	543b      	strb	r3, [r7, r0]
    1f60:	7820      	ldrb	r0, [r4, #0]
    1f62:	54b9      	strb	r1, [r7, r2]
    1f64:	4403      	add	r3, r0
    1f66:	7023      	strb	r3, [r4, #0]
    1f68:	e7bf      	b.n	1eea <bSL_ReadMessage+0x3a>
    1f6a:	2901      	cmp	r1, #1
    1f6c:	d10c      	bne.n	1f88 <bSL_ReadMessage+0xd8>
    1f6e:	480b      	ldr	r0, [pc, #44]	; (1f9c <bSL_ReadMessage+0xec>)
    1f70:	8801      	ldrh	r1, [r0, #0]
    1f72:	1c4a      	adds	r2, r1, #1
    1f74:	b292      	uxth	r2, r2
    1f76:	8002      	strh	r2, [r0, #0]
    1f78:	4806      	ldr	r0, [pc, #24]	; (1f94 <bSL_ReadMessage+0xe4>)
    1f7a:	546b      	strb	r3, [r5, r1]
    1f7c:	7801      	ldrb	r1, [r0, #0]
    1f7e:	440b      	add	r3, r1
    1f80:	7003      	strb	r3, [r0, #0]
    1f82:	2000      	movs	r0, #0
    1f84:	54a8      	strb	r0, [r5, r2]
    1f86:	e7c7      	b.n	1f18 <bSL_ReadMessage+0x68>
    1f88:	4a05      	ldr	r2, [pc, #20]	; (1fa0 <bSL_ReadMessage+0xf0>)
    1f8a:	7013      	strb	r3, [r2, #0]
    1f8c:	e7ad      	b.n	1eea <bSL_ReadMessage+0x3a>
    1f8e:	bf00      	nop
    1f90:	040145c3 	.word	0x040145c3
    1f94:	040145c5 	.word	0x040145c5
    1f98:	040145c2 	.word	0x040145c2
    1f9c:	040145c0 	.word	0x040145c0
    1fa0:	040145c4 	.word	0x040145c4
    1fa4:	0002bcb8 	.word	0x0002bcb8

00001fa8 <eCLD_LixeeCreateLinky>:
    1fa8:	b530      	push	{r4, r5, lr}
    1faa:	b085      	sub	sp, #20
    1fac:	2500      	movs	r5, #0
    1fae:	e9cd 5501 	strd	r5, r5, [sp, #4]
    1fb2:	9d08      	ldr	r5, [sp, #32]
    1fb4:	9500      	str	r5, [sp, #0]
    1fb6:	461c      	mov	r4, r3
    1fb8:	f00a f989 	bl	c2ce <vZCL_InitializeClusterInstance>
    1fbc:	b15c      	cbz	r4, 1fd6 <eCLD_LixeeCreateLinky+0x2e>
    1fbe:	4623      	mov	r3, r4
    1fc0:	f240 4204 	movw	r2, #1028	; 0x404
    1fc4:	f823 2b08 	strh.w	r2, [r3], #8
    1fc8:	6063      	str	r3, [r4, #4]
    1fca:	f104 0314 	add.w	r3, r4, #20
    1fce:	6123      	str	r3, [r4, #16]
    1fd0:	230a      	movs	r3, #10
    1fd2:	81a2      	strh	r2, [r4, #12]
    1fd4:	83e3      	strh	r3, [r4, #30]
    1fd6:	2000      	movs	r0, #0
    1fd8:	b005      	add	sp, #20
    1fda:	bd30      	pop	{r4, r5, pc}

00001fdc <eCLD_MeterIdentificationCreateMeterIdentification>:
    1fdc:	b530      	push	{r4, r5, lr}
    1fde:	b085      	sub	sp, #20
    1fe0:	2400      	movs	r4, #0
    1fe2:	9d08      	ldr	r5, [sp, #32]
    1fe4:	9500      	str	r5, [sp, #0]
    1fe6:	e9cd 4401 	strd	r4, r4, [sp, #4]
    1fea:	f00a f970 	bl	c2ce <vZCL_InitializeClusterInstance>
    1fee:	4620      	mov	r0, r4
    1ff0:	b005      	add	sp, #20
    1ff2:	bd30      	pop	{r4, r5, pc}

00001ff4 <bTSL25721_Init>:
    1ff4:	2001      	movs	r0, #1
    1ff6:	4770      	bx	lr

00001ff8 <vWakeCallBack>:
    1ff8:	b51f      	push	{r0, r1, r2, r3, r4, lr}
    1ffa:	4c0a      	ldr	r4, [pc, #40]	; (2024 <vWakeCallBack+0x2c>)
    1ffc:	7820      	ldrb	r0, [r4, #0]
    1ffe:	f002 f841 	bl	4084 <ZTIMER_eGetState>
    2002:	2802      	cmp	r0, #2
    2004:	d004      	beq.n	2010 <vWakeCallBack+0x18>
    2006:	7820      	ldrb	r0, [r4, #0]
    2008:	f44f 717a 	mov.w	r1, #1000	; 0x3e8
    200c:	f001 ffea 	bl	3fe4 <ZTIMER_eStart>
    2010:	2303      	movs	r3, #3
    2012:	a901      	add	r1, sp, #4
    2014:	4804      	ldr	r0, [pc, #16]	; (2028 <vWakeCallBack+0x30>)
    2016:	f88d 3004 	strb.w	r3, [sp, #4]
    201a:	f001 ff16 	bl	3e4a <ZQ_bQueueSend>
    201e:	b004      	add	sp, #16
    2020:	bd10      	pop	{r4, pc}
    2022:	bf00      	nop
    2024:	04012700 	.word	0x04012700
    2028:	04012584 	.word	0x04012584

0000202c <vScheduleSleep.isra.0>:
    202c:	b508      	push	{r3, lr}
    202e:	f001 fc7b 	bl	3928 <eOTA_GetState>
    2032:	2807      	cmp	r0, #7
    2034:	e8bd 4008 	ldmia.w	sp!, {r3, lr}
    2038:	4a04      	ldr	r2, [pc, #16]	; (204c <vScheduleSleep.isra.0+0x20>)
    203a:	4805      	ldr	r0, [pc, #20]	; (2050 <vScheduleSleep.isra.0+0x24>)
    203c:	bf0c      	ite	eq
    203e:	f44f 717a 	moveq.w	r1, #1000	; 0x3e8
    2042:	f241 7170 	movwne	r1, #6000	; 0x1770
    2046:	f005 bfb7 	b.w	7fb8 <PWR_eScheduleActivity>
    204a:	bf00      	nop
    204c:	00001ff9 	.word	0x00001ff9
    2050:	040145c8 	.word	0x040145c8

00002054 <vAttemptToSleep>:
    2054:	e92d 41f0 	stmdb	sp!, {r4, r5, r6, r7, r8, lr}
    2058:	4b28      	ldr	r3, [pc, #160]	; (20fc <vAttemptToSleep+0xa8>)
    205a:	4e29      	ldr	r6, [pc, #164]	; (2100 <vAttemptToSleep+0xac>)
    205c:	f893 8000 	ldrb.w	r8, [r3]
    2060:	4b28      	ldr	r3, [pc, #160]	; (2104 <vAttemptToSleep+0xb0>)
    2062:	4d29      	ldr	r5, [pc, #164]	; (2108 <vAttemptToSleep+0xb4>)
    2064:	7818      	ldrb	r0, [r3, #0]
    2066:	f002 f80d 	bl	4084 <ZTIMER_eGetState>
    206a:	4b28      	ldr	r3, [pc, #160]	; (210c <vAttemptToSleep+0xb8>)
    206c:	1e82      	subs	r2, r0, #2
    206e:	4254      	negs	r4, r2
    2070:	7818      	ldrb	r0, [r3, #0]
    2072:	4154      	adcs	r4, r2
    2074:	f002 f806 	bl	4084 <ZTIMER_eGetState>
    2078:	4b25      	ldr	r3, [pc, #148]	; (2110 <vAttemptToSleep+0xbc>)
    207a:	2802      	cmp	r0, #2
    207c:	7818      	ldrb	r0, [r3, #0]
    207e:	bf08      	it	eq
    2080:	3401      	addeq	r4, #1
    2082:	f001 ffff 	bl	4084 <ZTIMER_eGetState>
    2086:	4b23      	ldr	r3, [pc, #140]	; (2114 <vAttemptToSleep+0xc0>)
    2088:	2802      	cmp	r0, #2
    208a:	bf08      	it	eq
    208c:	3401      	addeq	r4, #1
    208e:	7818      	ldrb	r0, [r3, #0]
    2090:	bf08      	it	eq
    2092:	b2e4      	uxtbeq	r4, r4
    2094:	f001 fff6 	bl	4084 <ZTIMER_eGetState>
    2098:	2802      	cmp	r0, #2
    209a:	bf08      	it	eq
    209c:	3401      	addeq	r4, #1
    209e:	7830      	ldrb	r0, [r6, #0]
    20a0:	bf08      	it	eq
    20a2:	b2e4      	uxtbeq	r4, r4
    20a4:	f001 ffee 	bl	4084 <ZTIMER_eGetState>
    20a8:	1e83      	subs	r3, r0, #2
    20aa:	425f      	negs	r7, r3
    20ac:	7828      	ldrb	r0, [r5, #0]
    20ae:	415f      	adcs	r7, r3
    20b0:	f001 ffe8 	bl	4084 <ZTIMER_eGetState>
    20b4:	2802      	cmp	r0, #2
    20b6:	bf08      	it	eq
    20b8:	3701      	addeq	r7, #1
    20ba:	45b8      	cmp	r8, r7
    20bc:	d11b      	bne.n	20f6 <vAttemptToSleep+0xa2>
    20be:	b9d4      	cbnz	r4, 20f6 <vAttemptToSleep+0xa2>
    20c0:	4815      	ldr	r0, [pc, #84]	; (2118 <vAttemptToSleep+0xc4>)
    20c2:	f000 fb95 	bl	27f0 <DbgConsole_Printf>
    20c6:	7830      	ldrb	r0, [r6, #0]
    20c8:	f001 ffdc 	bl	4084 <ZTIMER_eGetState>
    20cc:	2801      	cmp	r0, #1
    20ce:	d002      	beq.n	20d6 <vAttemptToSleep+0x82>
    20d0:	7830      	ldrb	r0, [r6, #0]
    20d2:	f001 ffb1 	bl	4038 <ZTIMER_eStop>
    20d6:	7828      	ldrb	r0, [r5, #0]
    20d8:	f001 ffd4 	bl	4084 <ZTIMER_eGetState>
    20dc:	2801      	cmp	r0, #1
    20de:	d002      	beq.n	20e6 <vAttemptToSleep+0x92>
    20e0:	7828      	ldrb	r0, [r5, #0]
    20e2:	f001 ffa9 	bl	4038 <ZTIMER_eStop>
    20e6:	f04f 4380 	mov.w	r3, #1073741824	; 0x40000000
    20ea:	e8bd 41f0 	ldmia.w	sp!, {r4, r5, r6, r7, r8, lr}
    20ee:	f8d3 3a3c 	ldr.w	r3, [r3, #2620]	; 0xa3c
    20f2:	f7ff bf9b 	b.w	202c <vScheduleSleep.isra.0>
    20f6:	e8bd 81f0 	ldmia.w	sp!, {r4, r5, r6, r7, r8, pc}
    20fa:	bf00      	nop
    20fc:	040154a8 	.word	0x040154a8
    2100:	04012700 	.word	0x04012700
    2104:	040126fc 	.word	0x040126fc
    2108:	040126fd 	.word	0x040126fd
    210c:	040126fe 	.word	0x040126fe
    2110:	040126fb 	.word	0x040126fb
    2114:	040126ff 	.word	0x040126ff
    2118:	0002bd20 	.word	0x0002bd20

0000211c <vStartPollTimer>:
    211c:	4b03      	ldr	r3, [pc, #12]	; (212c <vStartPollTimer+0x10>)
    211e:	6018      	str	r0, [r3, #0]
    2120:	4b03      	ldr	r3, [pc, #12]	; (2130 <vStartPollTimer+0x14>)
    2122:	4601      	mov	r1, r0
    2124:	7818      	ldrb	r0, [r3, #0]
    2126:	f001 bf5d 	b.w	3fe4 <ZTIMER_eStart>
    212a:	bf00      	nop
    212c:	040145d8 	.word	0x040145d8
    2130:	040126fe 	.word	0x040126fe

00002134 <APP_cbTimerPoll>:
    2134:	b508      	push	{r3, lr}
    2136:	f7fe fbdf 	bl	8f8 <ZPS_pvAplZdoGetAplHandle>
    213a:	f015 ffa3 	bl	18084 <zps_eAplZdoPoll>
    213e:	4b04      	ldr	r3, [pc, #16]	; (2150 <APP_cbTimerPoll+0x1c>)
    2140:	6819      	ldr	r1, [r3, #0]
    2142:	4b04      	ldr	r3, [pc, #16]	; (2154 <APP_cbTimerPoll+0x20>)
    2144:	7818      	ldrb	r0, [r3, #0]
    2146:	e8bd 4008 	ldmia.w	sp!, {r3, lr}
    214a:	f001 bf4b 	b.w	3fe4 <ZTIMER_eStart>
    214e:	bf00      	nop
    2150:	040145d8 	.word	0x040145d8
    2154:	040126fe 	.word	0x040126fe

00002158 <vHandlePollResponse>:
    2158:	b508      	push	{r3, lr}
    215a:	7a03      	ldrb	r3, [r0, #8]
    215c:	b10b      	cbz	r3, 2162 <vHandlePollResponse+0xa>
    215e:	2be9      	cmp	r3, #233	; 0xe9
    2160:	d105      	bne.n	216e <vHandlePollResponse+0x16>
    2162:	f7fe fbc9 	bl	8f8 <ZPS_pvAplZdoGetAplHandle>
    2166:	e8bd 4008 	ldmia.w	sp!, {r3, lr}
    216a:	f015 bf8b 	b.w	18084 <zps_eAplZdoPoll>
    216e:	bd08      	pop	{r3, pc}

00002170 <vHandleFailedToJoin>:
    2170:	b508      	push	{r3, lr}
    2172:	f000 f877 	bl	2264 <vEventStopFindAndBind>
    2176:	4b05      	ldr	r3, [pc, #20]	; (218c <vHandleFailedToJoin+0x1c>)
    2178:	2200      	movs	r2, #0
    217a:	701a      	strb	r2, [r3, #0]
    217c:	4b04      	ldr	r3, [pc, #16]	; (2190 <vHandleFailedToJoin+0x20>)
    217e:	7818      	ldrb	r0, [r3, #0]
    2180:	f001 ff5a 	bl	4038 <ZTIMER_eStop>
    2184:	4b03      	ldr	r3, [pc, #12]	; (2194 <vHandleFailedToJoin+0x24>)
    2186:	2201      	movs	r2, #1
    2188:	701a      	strb	r2, [r3, #0]
    218a:	bd08      	pop	{r3, pc}
    218c:	04012580 	.word	0x04012580
    2190:	040126fd 	.word	0x040126fd
    2194:	04014594 	.word	0x04014594

00002198 <vHandleFailedRejoin>:
    2198:	b508      	push	{r3, lr}
    219a:	4b06      	ldr	r3, [pc, #24]	; (21b4 <vHandleFailedRejoin+0x1c>)
    219c:	7818      	ldrb	r0, [r3, #0]
    219e:	f001 ff71 	bl	4084 <ZTIMER_eGetState>
    21a2:	2802      	cmp	r0, #2
    21a4:	d005      	beq.n	21b2 <vHandleFailedRejoin+0x1a>
    21a6:	e8bd 4008 	ldmia.w	sp!, {r3, lr}
    21aa:	f44f 707a 	mov.w	r0, #1000	; 0x3e8
    21ae:	f000 ba4f 	b.w	2650 <vStartBlinkTimer>
    21b2:	bd08      	pop	{r3, pc}
    21b4:	040126fb 	.word	0x040126fb

000021b8 <vHandleNetworkJoinEndDevice>:
    21b8:	b538      	push	{r3, r4, r5, lr}
    21ba:	f7fe fb9d 	bl	8f8 <ZPS_pvAplZdoGetAplHandle>
    21be:	f015 feef 	bl	17fa0 <zps_pvAplZdoGetNwkHandle>
    21c2:	f01e f9da 	bl	2057a <ZPS_u64NwkNibGetEpid>
    21c6:	460c      	mov	r4, r1
    21c8:	4605      	mov	r5, r0
    21ca:	f7fe fb95 	bl	8f8 <ZPS_pvAplZdoGetAplHandle>
    21ce:	4623      	mov	r3, r4
    21d0:	462a      	mov	r2, r5
    21d2:	f015 f888 	bl	172e6 <zps_eAplAibSetApsUseExtendedPanId>
    21d6:	4b06      	ldr	r3, [pc, #24]	; (21f0 <vHandleNetworkJoinEndDevice+0x38>)
    21d8:	781b      	ldrb	r3, [r3, #0]
    21da:	2b01      	cmp	r3, #1
    21dc:	d007      	beq.n	21ee <vHandleNetworkJoinEndDevice+0x36>
    21de:	4b05      	ldr	r3, [pc, #20]	; (21f4 <vHandleNetworkJoinEndDevice+0x3c>)
    21e0:	7818      	ldrb	r0, [r3, #0]
    21e2:	f001 ff29 	bl	4038 <ZTIMER_eStop>
    21e6:	e8bd 4038 	ldmia.w	sp!, {r3, r4, r5, lr}
    21ea:	f000 ba41 	b.w	2670 <vStopBlinkTimer>
    21ee:	bd38      	pop	{r3, r4, r5, pc}
    21f0:	04012580 	.word	0x04012580
    21f4:	040126fe 	.word	0x040126fe

000021f8 <vHandleNetworkLeave>:
    21f8:	b508      	push	{r3, lr}
    21fa:	e9d0 2302 	ldrd	r2, r3, [r0, #8]
    21fe:	4313      	orrs	r3, r2
    2200:	d108      	bne.n	2214 <vHandleNetworkLeave+0x1c>
    2202:	7c03      	ldrb	r3, [r0, #16]
    2204:	b933      	cbnz	r3, 2214 <vHandleNetworkLeave+0x1c>
    2206:	f7ff f9d3 	bl	15b0 <APP_vFactoryResetRecords>
    220a:	b672      	cpsid	i
    220c:	e8bd 4008 	ldmia.w	sp!, {r3, lr}
    2210:	f002 bee6 	b.w	4fe0 <RESET_SystemReset>
    2214:	bd08      	pop	{r3, pc}
    2216:	Address 0x00002216 is out of bounds.


00002218 <vHandleNetworkJoinAndRejoin>:
    2218:	b508      	push	{r3, lr}
    221a:	4b09      	ldr	r3, [pc, #36]	; (2240 <vHandleNetworkJoinAndRejoin+0x28>)
    221c:	7818      	ldrb	r0, [r3, #0]
    221e:	f001 ff0b 	bl	4038 <ZTIMER_eStop>
    2222:	f000 fa25 	bl	2670 <vStopBlinkTimer>
    2226:	4907      	ldr	r1, [pc, #28]	; (2244 <vHandleNetworkJoinAndRejoin+0x2c>)
    2228:	2302      	movs	r3, #2
    222a:	2218      	movs	r2, #24
    222c:	2001      	movs	r0, #1
    222e:	700b      	strb	r3, [r1, #0]
    2230:	f011 f840 	bl	132b4 <PDM_eSaveRecordData>
    2234:	f7fe fb60 	bl	8f8 <ZPS_pvAplZdoGetAplHandle>
    2238:	e8bd 4008 	ldmia.w	sp!, {r3, lr}
    223c:	f015 bb8c 	b.w	17958 <zps_vSaveAllZpsRecords>
    2240:	040126fe 	.word	0x040126fe
    2244:	04014598 	.word	0x04014598

00002248 <vHandleNetworkLeaveConfirm>:
    2248:	b508      	push	{r3, lr}
    224a:	e9d0 2302 	ldrd	r2, r3, [r0, #8]
    224e:	4313      	orrs	r3, r2
    2250:	d106      	bne.n	2260 <vHandleNetworkLeaveConfirm+0x18>
    2252:	f7ff f9ad 	bl	15b0 <APP_vFactoryResetRecords>
    2256:	b672      	cpsid	i
    2258:	e8bd 4008 	ldmia.w	sp!, {r3, lr}
    225c:	f002 bec0 	b.w	4fe0 <RESET_SystemReset>
    2260:	bd08      	pop	{r3, pc}
    2262:	Address 0x00002262 is out of bounds.


00002264 <vEventStopFindAndBind>:
    2264:	b508      	push	{r3, lr}
    2266:	4807      	ldr	r0, [pc, #28]	; (2284 <vEventStopFindAndBind+0x20>)
    2268:	f000 fac2 	bl	27f0 <DbgConsole_Printf>
    226c:	f7fe fd7a 	bl	d64 <vAPP_ZCL_DeviceSpecific_IdentifyOff>
    2270:	f00e f9cc 	bl	1060c <BDB_vFbExitAsInitiator>
    2274:	f000 f9fc 	bl	2670 <vStopBlinkTimer>
    2278:	4b03      	ldr	r3, [pc, #12]	; (2288 <vEventStopFindAndBind+0x24>)
    227a:	7818      	ldrb	r0, [r3, #0]
    227c:	e8bd 4008 	ldmia.w	sp!, {r3, lr}
    2280:	f001 beda 	b.w	4038 <ZTIMER_eStop>
    2284:	0002bd2c 	.word	0x0002bd2c
    2288:	040126fe 	.word	0x040126fe

0000228c <vDioEventHandler>:
    228c:	b513      	push	{r0, r1, r4, lr}
    228e:	4604      	mov	r4, r0
    2290:	4601      	mov	r1, r0
    2292:	481a      	ldr	r0, [pc, #104]	; (22fc <vDioEventHandler+0x70>)
    2294:	f000 faac 	bl	27f0 <DbgConsole_Printf>
    2298:	2c01      	cmp	r4, #1
    229a:	d01b      	beq.n	22d4 <vDioEventHandler+0x48>
    229c:	2c80      	cmp	r4, #128	; 0x80
    229e:	d027      	beq.n	22f0 <vDioEventHandler+0x64>
    22a0:	bb24      	cbnz	r4, 22ec <vDioEventHandler+0x60>
    22a2:	4817      	ldr	r0, [pc, #92]	; (2300 <vDioEventHandler+0x74>)
    22a4:	f000 faa4 	bl	27f0 <DbgConsole_Printf>
    22a8:	4b16      	ldr	r3, [pc, #88]	; (2304 <vDioEventHandler+0x78>)
    22aa:	f64f 72ff 	movw	r2, #65535	; 0xffff
    22ae:	20ff      	movs	r0, #255	; 0xff
    22b0:	811a      	strh	r2, [r3, #8]
    22b2:	f7fe fd51 	bl	d58 <vAPP_ZCL_DeviceSpecific_SetIdentifyTime>
    22b6:	4b14      	ldr	r3, [pc, #80]	; (2308 <vDioEventHandler+0x7c>)
    22b8:	7818      	ldrb	r0, [r3, #0]
    22ba:	f00e f91f 	bl	104fc <BDB_eFbTriggerAsInitiator>
    22be:	f44f 707a 	mov.w	r0, #1000	; 0x3e8
    22c2:	f7ff ff2b 	bl	211c <vStartPollTimer>
    22c6:	f44f 70fa 	mov.w	r0, #500	; 0x1f4
    22ca:	b002      	add	sp, #8
    22cc:	e8bd 4010 	ldmia.w	sp!, {r4, lr}
    22d0:	f000 b9be 	b.w	2650 <vStartBlinkTimer>
    22d4:	480d      	ldr	r0, [pc, #52]	; (230c <vDioEventHandler+0x80>)
    22d6:	f000 fa8b 	bl	27f0 <DbgConsole_Printf>
    22da:	f7fe fb0d 	bl	8f8 <ZPS_pvAplZdoGetAplHandle>
    22de:	2300      	movs	r3, #0
    22e0:	e9cd 3300 	strd	r3, r3, [sp]
    22e4:	2200      	movs	r2, #0
    22e6:	2300      	movs	r3, #0
    22e8:	f015 feae 	bl	18048 <zps_eAplZdoLeaveNetwork>
    22ec:	b002      	add	sp, #8
    22ee:	bd10      	pop	{r4, pc}
    22f0:	b002      	add	sp, #8
    22f2:	e8bd 4010 	ldmia.w	sp!, {r4, lr}
    22f6:	f7ff bfb5 	b.w	2264 <vEventStopFindAndBind>
    22fa:	bf00      	nop
    22fc:	0002bd51 	.word	0x0002bd51
    2300:	0002bd98 	.word	0x0002bd98
    2304:	04015b10 	.word	0x04015b10
    2308:	0002af9e 	.word	0x0002af9e
    230c:	0002bdbe 	.word	0x0002bdbe

00002310 <vAppHandleAppEvent>:
    2310:	b57f      	push	{r0, r1, r2, r3, r4, r5, r6, lr}
    2312:	ab04      	add	r3, sp, #16
    2314:	e903 0007 	stmdb	r3, {r0, r1, r2}
    2318:	f89d 4008 	ldrb.w	r4, [sp, #8]
    231c:	9d03      	ldr	r5, [sp, #12]
    231e:	f7fe faeb 	bl	8f8 <ZPS_pvAplZdoGetAplHandle>
    2322:	f015 feaf 	bl	18084 <zps_eAplZdoPoll>
    2326:	f89d 3004 	ldrb.w	r3, [sp, #4]
    232a:	3b01      	subs	r3, #1
    232c:	2b0a      	cmp	r3, #10
    232e:	f200 80b2 	bhi.w	2496 <vAppHandleAppEvent+0x186>
    2332:	e8df f003 	tbb	[pc, r3]
    2336:	0618      	.short	0x0618
    2338:	85b0b029 	.word	0x85b0b029
    233c:	b0b0b09d 	.word	0xb0b0b09d
    2340:	23          	.byte	0x23
    2341:	00          	.byte	0x00
    2342:	4621      	mov	r1, r4
    2344:	4855      	ldr	r0, [pc, #340]	; (249c <vAppHandleAppEvent+0x18c>)
    2346:	f000 fa53 	bl	27f0 <DbgConsole_Printf>
    234a:	4855      	ldr	r0, [pc, #340]	; (24a0 <vAppHandleAppEvent+0x190>)
    234c:	4629      	mov	r1, r5
    234e:	f000 fa4f 	bl	27f0 <DbgConsole_Printf>
    2352:	4854      	ldr	r0, [pc, #336]	; (24a4 <vAppHandleAppEvent+0x194>)
    2354:	4621      	mov	r1, r4
    2356:	f000 fa4b 	bl	27f0 <DbgConsole_Printf>
    235a:	4620      	mov	r0, r4
    235c:	b004      	add	sp, #16
    235e:	e8bd 4070 	ldmia.w	sp!, {r4, r5, r6, lr}
    2362:	f7ff bf93 	b.w	228c <vDioEventHandler>
    2366:	4621      	mov	r1, r4
    2368:	484c      	ldr	r0, [pc, #304]	; (249c <vAppHandleAppEvent+0x18c>)
    236a:	f000 fa41 	bl	27f0 <DbgConsole_Printf>
    236e:	484c      	ldr	r0, [pc, #304]	; (24a0 <vAppHandleAppEvent+0x190>)
    2370:	4629      	mov	r1, r5
    2372:	f000 fa3d 	bl	27f0 <DbgConsole_Printf>
    2376:	f044 0480 	orr.w	r4, r4, #128	; 0x80
    237a:	e7ea      	b.n	2352 <vAppHandleAppEvent+0x42>
    237c:	484a      	ldr	r0, [pc, #296]	; (24a8 <vAppHandleAppEvent+0x198>)
    237e:	2101      	movs	r1, #1
    2380:	f000 fa36 	bl	27f0 <DbgConsole_Printf>
    2384:	2001      	movs	r0, #1
    2386:	e7e9      	b.n	235c <vAppHandleAppEvent+0x4c>
    2388:	4c48      	ldr	r4, [pc, #288]	; (24ac <vAppHandleAppEvent+0x19c>)
    238a:	4d49      	ldr	r5, [pc, #292]	; (24b0 <vAppHandleAppEvent+0x1a0>)
    238c:	7823      	ldrb	r3, [r4, #0]
    238e:	f8b5 652e 	ldrh.w	r6, [r5, #1326]	; 0x52e
    2392:	4848      	ldr	r0, [pc, #288]	; (24b4 <vAppHandleAppEvent+0x1a4>)
    2394:	3301      	adds	r3, #1
    2396:	4631      	mov	r1, r6
    2398:	7023      	strb	r3, [r4, #0]
    239a:	f000 fa29 	bl	27f0 <DbgConsole_Printf>
    239e:	7823      	ldrb	r3, [r4, #0]
    23a0:	429e      	cmp	r6, r3
    23a2:	dc0f      	bgt.n	23c4 <vAppHandleAppEvent+0xb4>
    23a4:	f7fe ff7c 	bl	12a0 <vAPP_LinkySensorSample>
    23a8:	4943      	ldr	r1, [pc, #268]	; (24b8 <vAppHandleAppEvent+0x1a8>)
    23aa:	f8d5 0514 	ldr.w	r0, [r5, #1300]	; 0x514
    23ae:	2204      	movs	r2, #4
    23b0:	f027 fef0 	bl	2a194 <memcmp>
    23b4:	4601      	mov	r1, r0
    23b6:	b950      	cbnz	r0, 23ce <vAppHandleAppEvent+0xbe>
    23b8:	f240 7002 	movw	r0, #1794	; 0x702
    23bc:	f7fe fbc0 	bl	b40 <vSendImmediateReport>
    23c0:	2300      	movs	r3, #0
    23c2:	7023      	strb	r3, [r4, #0]
    23c4:	b004      	add	sp, #16
    23c6:	e8bd 4070 	ldmia.w	sp!, {r4, r5, r6, lr}
    23ca:	f000 b8f1 	b.w	25b0 <vUpdateZCLTickSinceSleep>
    23ce:	493b      	ldr	r1, [pc, #236]	; (24bc <vAppHandleAppEvent+0x1ac>)
    23d0:	f8d5 0514 	ldr.w	r0, [r5, #1300]	; 0x514
    23d4:	2204      	movs	r2, #4
    23d6:	f027 fedd 	bl	2a194 <memcmp>
    23da:	b940      	cbnz	r0, 23ee <vAppHandleAppEvent+0xde>
    23dc:	f44f 7180 	mov.w	r1, #256	; 0x100
    23e0:	f240 7002 	movw	r0, #1794	; 0x702
    23e4:	f7fe fbac 	bl	b40 <vSendImmediateReport>
    23e8:	f44f 7181 	mov.w	r1, #258	; 0x102
    23ec:	e7e4      	b.n	23b8 <vAppHandleAppEvent+0xa8>
    23ee:	4934      	ldr	r1, [pc, #208]	; (24c0 <vAppHandleAppEvent+0x1b0>)
    23f0:	f8d5 0514 	ldr.w	r0, [r5, #1300]	; 0x514
    23f4:	2204      	movs	r2, #4
    23f6:	f027 fecd 	bl	2a194 <memcmp>
    23fa:	2800      	cmp	r0, #0
    23fc:	d1e0      	bne.n	23c0 <vAppHandleAppEvent+0xb0>
    23fe:	f44f 7180 	mov.w	r1, #256	; 0x100
    2402:	f240 7002 	movw	r0, #1794	; 0x702
    2406:	f7fe fb9b 	bl	b40 <vSendImmediateReport>
    240a:	f44f 7181 	mov.w	r1, #258	; 0x102
    240e:	f240 7002 	movw	r0, #1794	; 0x702
    2412:	f7fe fb95 	bl	b40 <vSendImmediateReport>
    2416:	f44f 7182 	mov.w	r1, #260	; 0x104
    241a:	f240 7002 	movw	r0, #1794	; 0x702
    241e:	f7fe fb8f 	bl	b40 <vSendImmediateReport>
    2422:	f44f 7183 	mov.w	r1, #262	; 0x106
    2426:	f240 7002 	movw	r0, #1794	; 0x702
    242a:	f7fe fb89 	bl	b40 <vSendImmediateReport>
    242e:	f44f 7184 	mov.w	r1, #264	; 0x108
    2432:	f240 7002 	movw	r0, #1794	; 0x702
    2436:	f7fe fb83 	bl	b40 <vSendImmediateReport>
    243a:	f44f 7185 	mov.w	r1, #266	; 0x10a
    243e:	e7bb      	b.n	23b8 <vAppHandleAppEvent+0xa8>
    2440:	4820      	ldr	r0, [pc, #128]	; (24c4 <vAppHandleAppEvent+0x1b4>)
    2442:	f000 f9d5 	bl	27f0 <DbgConsole_Printf>
    2446:	4a20      	ldr	r2, [pc, #128]	; (24c8 <vAppHandleAppEvent+0x1b8>)
    2448:	7813      	ldrb	r3, [r2, #0]
    244a:	f043 0301 	orr.w	r3, r3, #1
    244e:	7013      	strb	r3, [r2, #0]
    2450:	4b1e      	ldr	r3, [pc, #120]	; (24cc <vAppHandleAppEvent+0x1bc>)
    2452:	f44f 717a 	mov.w	r1, #1000	; 0x3e8
    2456:	7818      	ldrb	r0, [r3, #0]
    2458:	f001 fdc4 	bl	3fe4 <ZTIMER_eStart>
    245c:	f44f 707a 	mov.w	r0, #1000	; 0x3e8
    2460:	f7ff fe5c 	bl	211c <vStartPollTimer>
    2464:	20fa      	movs	r0, #250	; 0xfa
    2466:	b004      	add	sp, #16
    2468:	e8bd 4070 	ldmia.w	sp!, {r4, r5, r6, lr}
    246c:	f000 b8f0 	b.w	2650 <vStartBlinkTimer>
    2470:	4817      	ldr	r0, [pc, #92]	; (24d0 <vAppHandleAppEvent+0x1c0>)
    2472:	f000 f9bd 	bl	27f0 <DbgConsole_Printf>
    2476:	4b14      	ldr	r3, [pc, #80]	; (24c8 <vAppHandleAppEvent+0x1b8>)
    2478:	2200      	movs	r2, #0
    247a:	701a      	strb	r2, [r3, #0]
    247c:	4b13      	ldr	r3, [pc, #76]	; (24cc <vAppHandleAppEvent+0x1bc>)
    247e:	7818      	ldrb	r0, [r3, #0]
    2480:	f001 fdda 	bl	4038 <ZTIMER_eStop>
    2484:	4b13      	ldr	r3, [pc, #76]	; (24d4 <vAppHandleAppEvent+0x1c4>)
    2486:	7818      	ldrb	r0, [r3, #0]
    2488:	f001 fdd6 	bl	4038 <ZTIMER_eStop>
    248c:	b004      	add	sp, #16
    248e:	e8bd 4070 	ldmia.w	sp!, {r4, r5, r6, lr}
    2492:	f000 b8ed 	b.w	2670 <vStopBlinkTimer>
    2496:	b004      	add	sp, #16
    2498:	bd70      	pop	{r4, r5, r6, pc}
    249a:	bf00      	nop
    249c:	0002bde0 	.word	0x0002bde0
    24a0:	0002be08 	.word	0x0002be08
    24a4:	0002be32 	.word	0x0002be32
    24a8:	0002be5d 	.word	0x0002be5d
    24ac:	040145dc 	.word	0x040145dc
    24b0:	04014060 	.word	0x04014060
    24b4:	0002be8f 	.word	0x0002be8f
    24b8:	0002ad2d 	.word	0x0002ad2d
    24bc:	0002beac 	.word	0x0002beac
    24c0:	0002beb1 	.word	0x0002beb1
    24c4:	0002beb6 	.word	0x0002beb6
    24c8:	04012580 	.word	0x04012580
    24cc:	040126fd 	.word	0x040126fd
    24d0:	0002bee4 	.word	0x0002bee4
    24d4:	040126fe 	.word	0x040126fe

000024d8 <vManagePowerOnCountLoadRecord>:
    24d8:	b507      	push	{r0, r1, r2, lr}
    24da:	4905      	ldr	r1, [pc, #20]	; (24f0 <vManagePowerOnCountLoadRecord+0x18>)
    24dc:	f10d 0306 	add.w	r3, sp, #6
    24e0:	2201      	movs	r2, #1
    24e2:	200a      	movs	r0, #10
    24e4:	f00f fb12 	bl	11b0c <PDM_eReadDataFromRecord>
    24e8:	b003      	add	sp, #12
    24ea:	f85d fb04 	ldr.w	pc, [sp], #4
    24ee:	bf00      	nop
    24f0:	040145de 	.word	0x040145de

000024f4 <vManagePowerOnCountInit>:
    24f4:	b538      	push	{r3, r4, r5, lr}
    24f6:	4a0f      	ldr	r2, [pc, #60]	; (2534 <vManagePowerOnCountInit+0x40>)
    24f8:	4c0f      	ldr	r4, [pc, #60]	; (2538 <vManagePowerOnCountInit+0x44>)
    24fa:	7812      	ldrb	r2, [r2, #0]
    24fc:	7820      	ldrb	r0, [r4, #0]
    24fe:	b922      	cbnz	r2, 250a <vManagePowerOnCountInit+0x16>
    2500:	21fa      	movs	r1, #250	; 0xfa
    2502:	e8bd 4038 	ldmia.w	sp!, {r3, r4, r5, lr}
    2506:	f001 bd6d 	b.w	3fe4 <ZTIMER_eStart>
    250a:	4d0c      	ldr	r5, [pc, #48]	; (253c <vManagePowerOnCountInit+0x48>)
    250c:	f001 fd94 	bl	4038 <ZTIMER_eStop>
    2510:	782b      	ldrb	r3, [r5, #0]
    2512:	2201      	movs	r2, #1
    2514:	3301      	adds	r3, #1
    2516:	4629      	mov	r1, r5
    2518:	200a      	movs	r0, #10
    251a:	702b      	strb	r3, [r5, #0]
    251c:	f010 feca 	bl	132b4 <PDM_eSaveRecordData>
    2520:	782b      	ldrb	r3, [r5, #0]
    2522:	2b03      	cmp	r3, #3
    2524:	d102      	bne.n	252c <vManagePowerOnCountInit+0x38>
    2526:	20fa      	movs	r0, #250	; 0xfa
    2528:	f000 f892 	bl	2650 <vStartBlinkTimer>
    252c:	7820      	ldrb	r0, [r4, #0]
    252e:	f240 61d6 	movw	r1, #1750	; 0x6d6
    2532:	e7e6      	b.n	2502 <vManagePowerOnCountInit+0xe>
    2534:	040145dd 	.word	0x040145dd
    2538:	040126ff 	.word	0x040126ff
    253c:	040145de 	.word	0x040145de

00002540 <vAPP_cbTimerPowerOnCount>:
    2540:	b51f      	push	{r0, r1, r2, r3, r4, lr}
    2542:	4b12      	ldr	r3, [pc, #72]	; (258c <vAPP_cbTimerPowerOnCount+0x4c>)
    2544:	781a      	ldrb	r2, [r3, #0]
    2546:	b92a      	cbnz	r2, 2554 <vAPP_cbTimerPowerOnCount+0x14>
    2548:	2201      	movs	r2, #1
    254a:	701a      	strb	r2, [r3, #0]
    254c:	f7ff ffd2 	bl	24f4 <vManagePowerOnCountInit>
    2550:	b004      	add	sp, #16
    2552:	bd10      	pop	{r4, pc}
    2554:	2300      	movs	r3, #0
    2556:	f88d 3004 	strb.w	r3, [sp, #4]
    255a:	4b0d      	ldr	r3, [pc, #52]	; (2590 <vAPP_cbTimerPowerOnCount+0x50>)
    255c:	4c0d      	ldr	r4, [pc, #52]	; (2594 <vAPP_cbTimerPowerOnCount+0x54>)
    255e:	7818      	ldrb	r0, [r3, #0]
    2560:	f001 fd6a 	bl	4038 <ZTIMER_eStop>
    2564:	7822      	ldrb	r2, [r4, #0]
    2566:	480c      	ldr	r0, [pc, #48]	; (2598 <vAPP_cbTimerPowerOnCount+0x58>)
    2568:	2a03      	cmp	r2, #3
    256a:	bf08      	it	eq
    256c:	2306      	moveq	r3, #6
    256e:	a901      	add	r1, sp, #4
    2570:	bf08      	it	eq
    2572:	f88d 3004 	strbeq.w	r3, [sp, #4]
    2576:	f001 fc68 	bl	3e4a <ZQ_bQueueSend>
    257a:	2300      	movs	r3, #0
    257c:	4905      	ldr	r1, [pc, #20]	; (2594 <vAPP_cbTimerPowerOnCount+0x54>)
    257e:	7023      	strb	r3, [r4, #0]
    2580:	2201      	movs	r2, #1
    2582:	200a      	movs	r0, #10
    2584:	f010 fe96 	bl	132b4 <PDM_eSaveRecordData>
    2588:	e7e2      	b.n	2550 <vAPP_cbTimerPowerOnCount+0x10>
    258a:	bf00      	nop
    258c:	040145dd 	.word	0x040145dd
    2590:	040126ff 	.word	0x040126ff
    2594:	040145de 	.word	0x040145de
    2598:	04012584 	.word	0x04012584

0000259c <vDecrementTickCount>:
    259c:	4a03      	ldr	r2, [pc, #12]	; (25ac <vDecrementTickCount+0x10>)
    259e:	6813      	ldr	r3, [r2, #0]
    25a0:	2b3d      	cmp	r3, #61	; 0x3d
    25a2:	bf14      	ite	ne
    25a4:	3301      	addne	r3, #1
    25a6:	2300      	moveq	r3, #0
    25a8:	6013      	str	r3, [r2, #0]
    25aa:	4770      	bx	lr
    25ac:	040145e0 	.word	0x040145e0

000025b0 <vUpdateZCLTickSinceSleep>:
    25b0:	b5f0      	push	{r4, r5, r6, r7, lr}
    25b2:	b09b      	sub	sp, #108	; 0x6c
    25b4:	ab0c      	add	r3, sp, #48	; 0x30
    25b6:	930a      	str	r3, [sp, #40]	; 0x28
    25b8:	f001 f9b6 	bl	3928 <eOTA_GetState>
    25bc:	4c15      	ldr	r4, [pc, #84]	; (2614 <vUpdateZCLTickSinceSleep+0x64>)
    25be:	2807      	cmp	r0, #7
    25c0:	bf14      	ite	ne
    25c2:	260a      	movne	r6, #10
    25c4:	2601      	moveq	r6, #1
    25c6:	4625      	mov	r5, r4
    25c8:	2708      	movs	r7, #8
    25ca:	6823      	ldr	r3, [r4, #0]
    25cc:	42b3      	cmp	r3, r6
    25ce:	d30f      	bcc.n	25f0 <vUpdateZCLTickSinceSleep+0x40>
    25d0:	f44f 707a 	mov.w	r0, #1000	; 0x3e8
    25d4:	4358      	muls	r0, r3
    25d6:	f000 fba3 	bl	2d20 <vRunAppOTAStateMachine>
    25da:	f001 f9a5 	bl	3928 <eOTA_GetState>
    25de:	2802      	cmp	r0, #2
    25e0:	d10f      	bne.n	2602 <vUpdateZCLTickSinceSleep+0x52>
    25e2:	2064      	movs	r0, #100	; 0x64
    25e4:	f7ff fd9a 	bl	211c <vStartPollTimer>
    25e8:	2300      	movs	r3, #0
    25ea:	602b      	str	r3, [r5, #0]
    25ec:	b01b      	add	sp, #108	; 0x6c
    25ee:	bdf0      	pop	{r4, r5, r6, r7, pc}
    25f0:	4668      	mov	r0, sp
    25f2:	f88d 7000 	strb.w	r7, [sp]
    25f6:	f00b faa3 	bl	db40 <vZCL_EventHandler>
    25fa:	6823      	ldr	r3, [r4, #0]
    25fc:	3301      	adds	r3, #1
    25fe:	6023      	str	r3, [r4, #0]
    2600:	e7e3      	b.n	25ca <vUpdateZCLTickSinceSleep+0x1a>
    2602:	f001 f991 	bl	3928 <eOTA_GetState>
    2606:	2804      	cmp	r0, #4
    2608:	d0eb      	beq.n	25e2 <vUpdateZCLTickSinceSleep+0x32>
    260a:	f001 f98d 	bl	3928 <eOTA_GetState>
    260e:	2806      	cmp	r0, #6
    2610:	d1ea      	bne.n	25e8 <vUpdateZCLTickSinceSleep+0x38>
    2612:	e7e6      	b.n	25e2 <vUpdateZCLTickSinceSleep+0x32>
    2614:	040145e0 	.word	0x040145e0

00002618 <vAPP_cbBlinkLED>:
    2618:	4b09      	ldr	r3, [pc, #36]	; (2640 <vAPP_cbBlinkLED+0x28>)
    261a:	6819      	ldr	r1, [r3, #0]
    261c:	b171      	cbz	r1, 263c <vAPP_cbBlinkLED+0x24>
    261e:	4b09      	ldr	r3, [pc, #36]	; (2644 <vAPP_cbBlinkLED+0x2c>)
    2620:	781a      	ldrb	r2, [r3, #0]
    2622:	2a00      	cmp	r2, #0
    2624:	bf0c      	ite	eq
    2626:	2001      	moveq	r0, #1
    2628:	2000      	movne	r0, #0
    262a:	7018      	strb	r0, [r3, #0]
    262c:	4b06      	ldr	r3, [pc, #24]	; (2648 <vAPP_cbBlinkLED+0x30>)
    262e:	bf18      	it	ne
    2630:	2201      	movne	r2, #1
    2632:	729a      	strb	r2, [r3, #10]
    2634:	4b05      	ldr	r3, [pc, #20]	; (264c <vAPP_cbBlinkLED+0x34>)
    2636:	7818      	ldrb	r0, [r3, #0]
    2638:	f001 bcd4 	b.w	3fe4 <ZTIMER_eStart>
    263c:	4770      	bx	lr
    263e:	bf00      	nop
    2640:	040145e8 	.word	0x040145e8
    2644:	040145e4 	.word	0x040145e4
    2648:	40080000 	.word	0x40080000
    264c:	040126fb 	.word	0x040126fb

00002650 <vStartBlinkTimer>:
    2650:	4b04      	ldr	r3, [pc, #16]	; (2664 <vStartBlinkTimer+0x14>)
    2652:	6018      	str	r0, [r3, #0]
    2654:	4b04      	ldr	r3, [pc, #16]	; (2668 <vStartBlinkTimer+0x18>)
    2656:	2200      	movs	r2, #0
    2658:	729a      	strb	r2, [r3, #10]
    265a:	4b04      	ldr	r3, [pc, #16]	; (266c <vStartBlinkTimer+0x1c>)
    265c:	4601      	mov	r1, r0
    265e:	7818      	ldrb	r0, [r3, #0]
    2660:	f001 bcc0 	b.w	3fe4 <ZTIMER_eStart>
    2664:	040145e8 	.word	0x040145e8
    2668:	40080000 	.word	0x40080000
    266c:	040126fb 	.word	0x040126fb

00002670 <vStopBlinkTimer>:
    2670:	b508      	push	{r3, lr}
    2672:	4b05      	ldr	r3, [pc, #20]	; (2688 <vStopBlinkTimer+0x18>)
    2674:	7818      	ldrb	r0, [r3, #0]
    2676:	f001 fcdf 	bl	4038 <ZTIMER_eStop>
    267a:	4b04      	ldr	r3, [pc, #16]	; (268c <vStopBlinkTimer+0x1c>)
    267c:	2200      	movs	r2, #0
    267e:	601a      	str	r2, [r3, #0]
    2680:	4b03      	ldr	r3, [pc, #12]	; (2690 <vStopBlinkTimer+0x20>)
    2682:	2201      	movs	r2, #1
    2684:	729a      	strb	r2, [r3, #10]
    2686:	bd08      	pop	{r3, pc}
    2688:	040126fb 	.word	0x040126fb
    268c:	040145e8 	.word	0x040145e8
    2690:	40080000 	.word	0x40080000

00002694 <DbgConsole_SendDataReliable>:
    2694:	b510      	push	{r4, lr}
    2696:	460c      	mov	r4, r1
    2698:	4601      	mov	r1, r0
    269a:	b930      	cbnz	r0, 26aa <DbgConsole_SendDataReliable+0x16>
    269c:	4b0b      	ldr	r3, [pc, #44]	; (26cc <DbgConsole_SendDataReliable+0x38>)
    269e:	4a0c      	ldr	r2, [pc, #48]	; (26d0 <DbgConsole_SendDataReliable+0x3c>)
    26a0:	f240 11d1 	movw	r1, #465	; 0x1d1
    26a4:	480b      	ldr	r0, [pc, #44]	; (26d4 <DbgConsole_SendDataReliable+0x40>)
    26a6:	f006 fbe5 	bl	8e74 <__assert_func>
    26aa:	b924      	cbnz	r4, 26b6 <DbgConsole_SendDataReliable+0x22>
    26ac:	4b0a      	ldr	r3, [pc, #40]	; (26d8 <DbgConsole_SendDataReliable+0x44>)
    26ae:	4a08      	ldr	r2, [pc, #32]	; (26d0 <DbgConsole_SendDataReliable+0x3c>)
    26b0:	f44f 71e9 	mov.w	r1, #466	; 0x1d2
    26b4:	e7f6      	b.n	26a4 <DbgConsole_SendDataReliable+0x10>
    26b6:	4622      	mov	r2, r4
    26b8:	4808      	ldr	r0, [pc, #32]	; (26dc <DbgConsole_SendDataReliable+0x48>)
    26ba:	f006 fa9d 	bl	8bf8 <SerialManager_WriteBlocking>
    26be:	2800      	cmp	r0, #0
    26c0:	bf0c      	ite	eq
    26c2:	4620      	moveq	r0, r4
    26c4:	f04f 30ff 	movne.w	r0, #4294967295
    26c8:	bd10      	pop	{r4, pc}
    26ca:	bf00      	nop
    26cc:	0002bf11 	.word	0x0002bf11
    26d0:	0002bfac 	.word	0x0002bfac
    26d4:	0002bf1c 	.word	0x0002bf1c
    26d8:	0002bf7a 	.word	0x0002bf7a
    26dc:	04014604 	.word	0x04014604

000026e0 <DbgConsole_PrintCallback>:
    26e0:	e92d 43f8 	stmdb	sp!, {r3, r4, r5, r6, r7, r8, r9, lr}
    26e4:	2500      	movs	r5, #0
    26e6:	4606      	mov	r6, r0
    26e8:	460c      	mov	r4, r1
    26ea:	4690      	mov	r8, r2
    26ec:	461f      	mov	r7, r3
    26ee:	46a9      	mov	r9, r5
    26f0:	42bd      	cmp	r5, r7
    26f2:	db01      	blt.n	26f8 <DbgConsole_PrintCallback+0x18>
    26f4:	e8bd 83f8 	ldmia.w	sp!, {r3, r4, r5, r6, r7, r8, r9, pc}
    26f8:	6821      	ldr	r1, [r4, #0]
    26fa:	1c4b      	adds	r3, r1, #1
    26fc:	2b7f      	cmp	r3, #127	; 0x7f
    26fe:	d904      	bls.n	270a <DbgConsole_PrintCallback+0x2a>
    2700:	4630      	mov	r0, r6
    2702:	f7ff ffc7 	bl	2694 <DbgConsole_SendDataReliable>
    2706:	f8c4 9000 	str.w	r9, [r4]
    270a:	6823      	ldr	r3, [r4, #0]
    270c:	f806 8003 	strb.w	r8, [r6, r3]
    2710:	6823      	ldr	r3, [r4, #0]
    2712:	3301      	adds	r3, #1
    2714:	6023      	str	r3, [r4, #0]
    2716:	3501      	adds	r5, #1
    2718:	e7ea      	b.n	26f0 <DbgConsole_PrintCallback+0x10>
    271a:	Address 0x0000271a is out of bounds.


0000271c <DbgConsole_Init>:
    271c:	b510      	push	{r4, lr}
    271e:	b088      	sub	sp, #32
    2720:	e9cd 3104 	strd	r3, r1, [sp, #16]
    2724:	2301      	movs	r3, #1
    2726:	2100      	movs	r1, #0
    2728:	429a      	cmp	r2, r3
    272a:	f8ad 1018 	strh.w	r1, [sp, #24]
    272e:	f88d 001a 	strb.w	r0, [sp, #26]
    2732:	f88d 301b 	strb.w	r3, [sp, #27]
    2736:	f88d 301c 	strb.w	r3, [sp, #28]
    273a:	f88d 2008 	strb.w	r2, [sp, #8]
    273e:	d12e      	bne.n	279e <DbgConsole_Init+0x82>
    2740:	4c18      	ldr	r4, [pc, #96]	; (27a4 <DbgConsole_Init+0x88>)
    2742:	ab04      	add	r3, sp, #16
    2744:	221c      	movs	r2, #28
    2746:	4620      	mov	r0, r4
    2748:	9303      	str	r3, [sp, #12]
    274a:	f027 fded 	bl	2a328 <memset>
    274e:	4669      	mov	r1, sp
    2750:	4620      	mov	r0, r4
    2752:	6124      	str	r4, [r4, #16]
    2754:	f006 f956 	bl	8a04 <SerialManager_Init>
    2758:	b130      	cbz	r0, 2768 <DbgConsole_Init+0x4c>
    275a:	4b13      	ldr	r3, [pc, #76]	; (27a8 <DbgConsole_Init+0x8c>)
    275c:	4a13      	ldr	r2, [pc, #76]	; (27ac <DbgConsole_Init+0x90>)
    275e:	f44f 7133 	mov.w	r1, #716	; 0x2cc
    2762:	4813      	ldr	r0, [pc, #76]	; (27b0 <DbgConsole_Init+0x94>)
    2764:	f006 fb86 	bl	8e74 <__assert_func>
    2768:	6920      	ldr	r0, [r4, #16]
    276a:	f104 0114 	add.w	r1, r4, #20
    276e:	f006 f99b 	bl	8aa8 <SerialManager_OpenWriteHandle>
    2772:	b120      	cbz	r0, 277e <DbgConsole_Init+0x62>
    2774:	4b0c      	ldr	r3, [pc, #48]	; (27a8 <DbgConsole_Init+0x8c>)
    2776:	4a0d      	ldr	r2, [pc, #52]	; (27ac <DbgConsole_Init+0x90>)
    2778:	f240 21d6 	movw	r1, #726	; 0x2d6
    277c:	e7f1      	b.n	2762 <DbgConsole_Init+0x46>
    277e:	6920      	ldr	r0, [r4, #16]
    2780:	f104 0118 	add.w	r1, r4, #24
    2784:	f006 f9e2 	bl	8b4c <SerialManager_OpenReadHandle>
    2788:	b120      	cbz	r0, 2794 <DbgConsole_Init+0x78>
    278a:	4b07      	ldr	r3, [pc, #28]	; (27a8 <DbgConsole_Init+0x8c>)
    278c:	4a07      	ldr	r2, [pc, #28]	; (27ac <DbgConsole_Init+0x90>)
    278e:	f240 21e1 	movw	r1, #737	; 0x2e1
    2792:	e7e6      	b.n	2762 <DbgConsole_Init+0x46>
    2794:	4b07      	ldr	r3, [pc, #28]	; (27b4 <DbgConsole_Init+0x98>)
    2796:	6922      	ldr	r2, [r4, #16]
    2798:	601a      	str	r2, [r3, #0]
    279a:	b008      	add	sp, #32
    279c:	bd10      	pop	{r4, pc}
    279e:	f243 5021 	movw	r0, #13601	; 0x3521
    27a2:	e7fa      	b.n	279a <DbgConsole_Init+0x7e>
    27a4:	040145f0 	.word	0x040145f0
    27a8:	0002bf84 	.word	0x0002bf84
    27ac:	0002bfc8 	.word	0x0002bfc8
    27b0:	0002bf1c 	.word	0x0002bf1c
    27b4:	040145ec 	.word	0x040145ec

000027b8 <DbgConsole_Deinit>:
    27b8:	b510      	push	{r4, lr}
    27ba:	4c0b      	ldr	r4, [pc, #44]	; (27e8 <DbgConsole_Deinit+0x30>)
    27bc:	6923      	ldr	r3, [r4, #16]
    27be:	b14b      	cbz	r3, 27d4 <DbgConsole_Deinit+0x1c>
    27c0:	f104 0014 	add.w	r0, r4, #20
    27c4:	f006 f99a 	bl	8afc <SerialManager_CloseWriteHandle>
    27c8:	6923      	ldr	r3, [r4, #16]
    27ca:	b11b      	cbz	r3, 27d4 <DbgConsole_Deinit+0x1c>
    27cc:	f104 0018 	add.w	r0, r4, #24
    27d0:	f006 f9ea 	bl	8ba8 <SerialManager_CloseReadHandle>
    27d4:	6920      	ldr	r0, [r4, #16]
    27d6:	b128      	cbz	r0, 27e4 <DbgConsole_Deinit+0x2c>
    27d8:	f006 f940 	bl	8a5c <SerialManager_Deinit>
    27dc:	b910      	cbnz	r0, 27e4 <DbgConsole_Deinit+0x2c>
    27de:	4b03      	ldr	r3, [pc, #12]	; (27ec <DbgConsole_Deinit+0x34>)
    27e0:	6120      	str	r0, [r4, #16]
    27e2:	6018      	str	r0, [r3, #0]
    27e4:	2000      	movs	r0, #0
    27e6:	bd10      	pop	{r4, pc}
    27e8:	040145f0 	.word	0x040145f0
    27ec:	040145ec 	.word	0x040145ec

000027f0 <DbgConsole_Printf>:
    27f0:	b40f      	push	{r0, r1, r2, r3}
    27f2:	b500      	push	{lr}
    27f4:	b0a3      	sub	sp, #140	; 0x8c
    27f6:	2100      	movs	r1, #0
    27f8:	227c      	movs	r2, #124	; 0x7c
    27fa:	a803      	add	r0, sp, #12
    27fc:	9102      	str	r1, [sp, #8]
    27fe:	f027 fd93 	bl	2a328 <memset>
    2802:	4b09      	ldr	r3, [pc, #36]	; (2828 <DbgConsole_Printf+0x38>)
    2804:	6818      	ldr	r0, [r3, #0]
    2806:	b150      	cbz	r0, 281e <DbgConsole_Printf+0x2e>
    2808:	a925      	add	r1, sp, #148	; 0x94
    280a:	4b08      	ldr	r3, [pc, #32]	; (282c <DbgConsole_Printf+0x3c>)
    280c:	9824      	ldr	r0, [sp, #144]	; 0x90
    280e:	9101      	str	r1, [sp, #4]
    2810:	aa02      	add	r2, sp, #8
    2812:	f005 fe39 	bl	8488 <StrFormatPrintf>
    2816:	4601      	mov	r1, r0
    2818:	a802      	add	r0, sp, #8
    281a:	f7ff ff3b 	bl	2694 <DbgConsole_SendDataReliable>
    281e:	b023      	add	sp, #140	; 0x8c
    2820:	f85d eb04 	ldr.w	lr, [sp], #4
    2824:	b004      	add	sp, #16
    2826:	4770      	bx	lr
    2828:	040145ec 	.word	0x040145ec
    282c:	000026e1 	.word	0x000026e1

00002830 <GPIO_PinInit>:
    2830:	b510      	push	{r4, lr}
    2832:	2401      	movs	r4, #1
    2834:	fa04 f202 	lsl.w	r2, r4, r2
    2838:	781c      	ldrb	r4, [r3, #0]
    283a:	b924      	cbnz	r4, 2846 <GPIO_PinInit+0x16>
    283c:	f501 6110 	add.w	r1, r1, #2304	; 0x900
    2840:	f840 2021 	str.w	r2, [r0, r1, lsl #2]
    2844:	bd10      	pop	{r4, pc}
    2846:	785b      	ldrb	r3, [r3, #1]
    2848:	b933      	cbnz	r3, 2858 <GPIO_PinInit+0x28>
    284a:	f501 630a 	add.w	r3, r1, #2208	; 0x8a0
    284e:	f840 2023 	str.w	r2, [r0, r3, lsl #2]
    2852:	f501 610e 	add.w	r1, r1, #2272	; 0x8e0
    2856:	e7f3      	b.n	2840 <GPIO_PinInit+0x10>
    2858:	f501 6308 	add.w	r3, r1, #2176	; 0x880
    285c:	e7f7      	b.n	284e <GPIO_PinInit+0x1e>
    285e:	Address 0x0000285e is out of bounds.


00002860 <GINT_GetInstance>:
    2860:	b508      	push	{r3, lr}
    2862:	4b05      	ldr	r3, [pc, #20]	; (2878 <GINT_GetInstance+0x18>)
    2864:	4298      	cmp	r0, r3
    2866:	d005      	beq.n	2874 <GINT_GetInstance+0x14>
    2868:	4b04      	ldr	r3, [pc, #16]	; (287c <GINT_GetInstance+0x1c>)
    286a:	4a05      	ldr	r2, [pc, #20]	; (2880 <GINT_GetInstance+0x20>)
    286c:	4805      	ldr	r0, [pc, #20]	; (2884 <GINT_GetInstance+0x24>)
    286e:	2137      	movs	r1, #55	; 0x37
    2870:	f006 fb00 	bl	8e74 <__assert_func>
    2874:	2000      	movs	r0, #0
    2876:	bd08      	pop	{r3, pc}
    2878:	40011000 	.word	0x40011000
    287c:	0002bfd8 	.word	0x0002bfd8
    2880:	0002c040 	.word	0x0002c040
    2884:	0002bffb 	.word	0x0002bffb

00002888 <GINT_Init>:
    2888:	b508      	push	{r3, lr}
    288a:	f7ff ffe9 	bl	2860 <GINT_GetInstance>
    288e:	4b06      	ldr	r3, [pc, #24]	; (28a8 <GINT_Init+0x20>)
    2890:	2200      	movs	r2, #0
    2892:	f843 2020 	str.w	r2, [r3, r0, lsl #2]
    2896:	2013      	movs	r0, #19
    2898:	f002 fad2 	bl	4e40 <CLOCK_EnableClock>
    289c:	e8bd 4008 	ldmia.w	sp!, {r3, lr}
    28a0:	2013      	movs	r0, #19
    28a2:	f002 bb93 	b.w	4fcc <RESET_PeripheralReset>
    28a6:	bf00      	nop
    28a8:	0401460c 	.word	0x0401460c

000028ac <GINT_SetCtrl>:
    28ac:	b5f8      	push	{r3, r4, r5, r6, r7, lr}
    28ae:	460c      	mov	r4, r1
    28b0:	4615      	mov	r5, r2
    28b2:	461f      	mov	r7, r3
    28b4:	4606      	mov	r6, r0
    28b6:	0064      	lsls	r4, r4, #1
    28b8:	f7ff ffd2 	bl	2860 <GINT_GetInstance>
    28bc:	00ad      	lsls	r5, r5, #2
    28be:	4b05      	ldr	r3, [pc, #20]	; (28d4 <GINT_SetCtrl+0x28>)
    28c0:	f004 0402 	and.w	r4, r4, #2
    28c4:	f005 0504 	and.w	r5, r5, #4
    28c8:	432c      	orrs	r4, r5
    28ca:	6034      	str	r4, [r6, #0]
    28cc:	f843 7020 	str.w	r7, [r3, r0, lsl #2]
    28d0:	bdf8      	pop	{r3, r4, r5, r6, r7, pc}
    28d2:	bf00      	nop
    28d4:	0401460c 	.word	0x0401460c

000028d8 <GINT_ConfigPins>:
    28d8:	eb00 0181 	add.w	r1, r0, r1, lsl #2
    28dc:	620a      	str	r2, [r1, #32]
    28de:	640b      	str	r3, [r1, #64]	; 0x40
    28e0:	4770      	bx	lr
    28e2:	Address 0x000028e2 is out of bounds.


000028e4 <GINT_EnableCallback>:
    28e4:	b510      	push	{r4, lr}
    28e6:	4604      	mov	r4, r0
    28e8:	f7ff ffba 	bl	2860 <GINT_GetInstance>
    28ec:	6823      	ldr	r3, [r4, #0]
    28ee:	f043 0301 	orr.w	r3, r3, #1
    28f2:	6023      	str	r3, [r4, #0]
    28f4:	4b02      	ldr	r3, [pc, #8]	; (2900 <GINT_EnableCallback+0x1c>)
    28f6:	2204      	movs	r2, #4
    28f8:	f8c3 2180 	str.w	r2, [r3, #384]	; 0x180
    28fc:	601a      	str	r2, [r3, #0]
    28fe:	bd10      	pop	{r4, pc}
    2900:	e000e100 	.word	0xe000e100

00002904 <GINT_DisableCallback>:
    2904:	b510      	push	{r4, lr}
    2906:	4604      	mov	r4, r0
    2908:	f7ff ffaa 	bl	2860 <GINT_GetInstance>
    290c:	4a07      	ldr	r2, [pc, #28]	; (292c <GINT_DisableCallback+0x28>)
    290e:	2104      	movs	r1, #4
    2910:	f8c2 1080 	str.w	r1, [r2, #128]	; 0x80
    2914:	f3bf 8f4f 	dsb	sy
    2918:	f3bf 8f6f 	isb	sy
    291c:	6823      	ldr	r3, [r4, #0]
    291e:	f043 0301 	orr.w	r3, r3, #1
    2922:	6023      	str	r3, [r4, #0]
    2924:	f8c2 1180 	str.w	r1, [r2, #384]	; 0x180
    2928:	bd10      	pop	{r4, pc}
    292a:	bf00      	nop
    292c:	e000e100 	.word	0xe000e100

00002930 <GINT0_DriverIRQHandler>:
    2930:	4a06      	ldr	r2, [pc, #24]	; (294c <GINT0_DriverIRQHandler+0x1c>)
    2932:	b508      	push	{r3, lr}
    2934:	6813      	ldr	r3, [r2, #0]
    2936:	f043 0301 	orr.w	r3, r3, #1
    293a:	6013      	str	r3, [r2, #0]
    293c:	4b04      	ldr	r3, [pc, #16]	; (2950 <GINT0_DriverIRQHandler+0x20>)
    293e:	681b      	ldr	r3, [r3, #0]
    2940:	b103      	cbz	r3, 2944 <GINT0_DriverIRQHandler+0x14>
    2942:	4798      	blx	r3
    2944:	f3bf 8f4f 	dsb	sy
    2948:	bd08      	pop	{r3, pc}
    294a:	bf00      	nop
    294c:	40011000 	.word	0x40011000
    2950:	0401460c 	.word	0x0401460c

00002954 <BOARD_InitClocks>:
    2954:	b510      	push	{r4, lr}
    2956:	f002 f98a 	bl	4c6e <CLOCK_EnableAPBBridge>
    295a:	4824      	ldr	r0, [pc, #144]	; (29ec <BOARD_InitClocks+0x98>)
    295c:	4c24      	ldr	r4, [pc, #144]	; (29f0 <BOARD_InitClocks+0x9c>)
    295e:	f002 fa6f 	bl	4e40 <CLOCK_EnableClock>
    2962:	4824      	ldr	r0, [pc, #144]	; (29f4 <BOARD_InitClocks+0xa0>)
    2964:	f002 fa6c 	bl	4e40 <CLOCK_EnableClock>
    2968:	4823      	ldr	r0, [pc, #140]	; (29f8 <BOARD_InitClocks+0xa4>)
    296a:	f002 fa69 	bl	4e40 <CLOCK_EnableClock>
    296e:	200d      	movs	r0, #13
    2970:	f002 fa66 	bl	4e40 <CLOCK_EnableClock>
    2974:	200b      	movs	r0, #11
    2976:	f002 fa63 	bl	4e40 <CLOCK_EnableClock>
    297a:	200e      	movs	r0, #14
    297c:	f002 fa60 	bl	4e40 <CLOCK_EnableClock>
    2980:	201b      	movs	r0, #27
    2982:	f002 fa5d 	bl	4e40 <CLOCK_EnableClock>
    2986:	f8d4 30b8 	ldr.w	r3, [r4, #184]	; 0xb8
    298a:	f443 0380 	orr.w	r3, r3, #4194304	; 0x400000
    298e:	f8c4 30b8 	str.w	r3, [r4, #184]	; 0xb8
    2992:	f241 00ac 	movw	r0, #4268	; 0x10ac
    2996:	f001 fe8b 	bl	46b0 <CLOCK_AttachClk>
    299a:	f240 100d 	movw	r0, #269	; 0x10d
    299e:	f002 fa4f 	bl	4e40 <CLOCK_EnableClock>
    29a2:	f44f 708a 	mov.w	r0, #276	; 0x114
    29a6:	f002 fa4b 	bl	4e40 <CLOCK_EnableClock>
    29aa:	f241 00ad 	movw	r0, #4269	; 0x10ad
    29ae:	f001 fe7f 	bl	46b0 <CLOCK_AttachClk>
    29b2:	f44f 708c 	mov.w	r0, #280	; 0x118
    29b6:	f002 fa43 	bl	4e40 <CLOCK_EnableClock>
    29ba:	f241 00ad 	movw	r0, #4269	; 0x10ad
    29be:	f001 fe77 	bl	46b0 <CLOCK_AttachClk>
    29c2:	f241 00a9 	movw	r0, #4265	; 0x10a9
    29c6:	f001 fe73 	bl	46b0 <CLOCK_AttachClk>
    29ca:	f8d4 30b8 	ldr.w	r3, [r4, #184]	; 0xb8
    29ce:	f443 0380 	orr.w	r3, r3, #4194304	; 0x400000
    29d2:	f8c4 30b8 	str.w	r3, [r4, #184]	; 0xb8
    29d6:	f242 00b1 	movw	r0, #8369	; 0x20b1
    29da:	f001 fe69 	bl	46b0 <CLOCK_AttachClk>
    29de:	2201      	movs	r2, #1
    29e0:	e8bd 4010 	ldmia.w	sp!, {r4, lr}
    29e4:	4611      	mov	r1, r2
    29e6:	20db      	movs	r0, #219	; 0xdb
    29e8:	f001 bee6 	b.w	47b8 <CLOCK_SetClkDiv>
    29ec:	00010008 	.word	0x00010008
    29f0:	40012000 	.word	0x40012000
    29f4:	00010004 	.word	0x00010004
    29f8:	00010005 	.word	0x00010005

000029fc <BOARD_InitHardware>:
    29fc:	b508      	push	{r3, lr}
    29fe:	f04f 4380 	mov.w	r3, #1073741824	; 0x40000000
    2a02:	4a0f      	ldr	r2, [pc, #60]	; (2a40 <BOARD_InitHardware+0x44>)
    2a04:	f8c3 2ff0 	str.w	r2, [r3, #4080]	; 0xff0
    2a08:	f002 ffce 	bl	59a8 <POWER_Init>
    2a0c:	480d      	ldr	r0, [pc, #52]	; (2a44 <BOARD_InitHardware+0x48>)
    2a0e:	f002 fadd 	bl	4fcc <RESET_PeripheralReset>
    2a12:	200e      	movs	r0, #14
    2a14:	f002 fada 	bl	4fcc <RESET_PeripheralReset>
    2a18:	480b      	ldr	r0, [pc, #44]	; (2a48 <BOARD_InitHardware+0x4c>)
    2a1a:	f002 fad7 	bl	4fcc <RESET_PeripheralReset>
    2a1e:	480b      	ldr	r0, [pc, #44]	; (2a4c <BOARD_InitHardware+0x50>)
    2a20:	f002 fad4 	bl	4fcc <RESET_PeripheralReset>
    2a24:	4a0a      	ldr	r2, [pc, #40]	; (2a50 <BOARD_InitHardware+0x54>)
    2a26:	6813      	ldr	r3, [r2, #0]
    2a28:	f043 0308 	orr.w	r3, r3, #8
    2a2c:	6013      	str	r3, [r2, #0]
    2a2e:	f7ff ff91 	bl	2954 <BOARD_InitClocks>
    2a32:	f001 fca5 	bl	4380 <BOARD_InitDebugConsole>
    2a36:	e8bd 4008 	ldmia.w	sp!, {r3, lr}
    2a3a:	f000 b80b 	b.w	2a54 <BOARD_InitPins>
    2a3e:	bf00      	nop
    2a40:	87654320 	.word	0x87654320
    2a44:	0001000b 	.word	0x0001000b
    2a48:	0001000d 	.word	0x0001000d
    2a4c:	00010014 	.word	0x00010014
    2a50:	40012000 	.word	0x40012000

00002a54 <BOARD_InitPins>:
    2a54:	4b04      	ldr	r3, [pc, #16]	; (2a68 <BOARD_InitPins+0x14>)
    2a56:	2292      	movs	r2, #146	; 0x92
    2a58:	621a      	str	r2, [r3, #32]
    2a5a:	625a      	str	r2, [r3, #36]	; 0x24
    2a5c:	605a      	str	r2, [r3, #4]
    2a5e:	631a      	str	r2, [r3, #48]	; 0x30
    2a60:	2298      	movs	r2, #152	; 0x98
    2a62:	629a      	str	r2, [r3, #40]	; 0x28
    2a64:	4770      	bx	lr
    2a66:	bf00      	nop
    2a68:	4000f000 	.word	0x4000f000

00002a6c <BOARD_SetPinsForPowerMode>:
    2a6c:	b5f7      	push	{r0, r1, r2, r4, r5, r6, r7, lr}
    2a6e:	4e0b      	ldr	r6, [pc, #44]	; (2a9c <BOARD_SetPinsForPowerMode+0x30>)
    2a70:	4f0b      	ldr	r7, [pc, #44]	; (2aa0 <BOARD_SetPinsForPowerMode+0x34>)
    2a72:	2400      	movs	r4, #0
    2a74:	f44f 7580 	mov.w	r5, #256	; 0x100
    2a78:	2c0a      	cmp	r4, #10
    2a7a:	d00a      	beq.n	2a92 <BOARD_SetPinsForPowerMode+0x26>
    2a7c:	ab01      	add	r3, sp, #4
    2a7e:	4622      	mov	r2, r4
    2a80:	2100      	movs	r1, #0
    2a82:	4630      	mov	r0, r6
    2a84:	f8ad 5004 	strh.w	r5, [sp, #4]
    2a88:	f7ff fed2 	bl	2830 <GPIO_PinInit>
    2a8c:	2380      	movs	r3, #128	; 0x80
    2a8e:	f847 3024 	str.w	r3, [r7, r4, lsl #2]
    2a92:	3401      	adds	r4, #1
    2a94:	2c16      	cmp	r4, #22
    2a96:	d1ef      	bne.n	2a78 <BOARD_SetPinsForPowerMode+0xc>
    2a98:	b003      	add	sp, #12
    2a9a:	bdf0      	pop	{r4, r5, r6, r7, pc}
    2a9c:	40080000 	.word	0x40080000
    2aa0:	4000f000 	.word	0x4000f000

00002aa4 <vResetOTADiscovery>:
    2aa4:	4906      	ldr	r1, [pc, #24]	; (2ac0 <vResetOTADiscovery+0x1c>)
    2aa6:	2200      	movs	r2, #0
    2aa8:	2300      	movs	r3, #0
    2aaa:	e9c1 2302 	strd	r2, r3, [r1, #8]
    2aae:	f64f 73ff 	movw	r3, #65535	; 0xffff
    2ab2:	820b      	strh	r3, [r1, #16]
    2ab4:	2218      	movs	r2, #24
    2ab6:	2300      	movs	r3, #0
    2ab8:	2001      	movs	r0, #1
    2aba:	708b      	strb	r3, [r1, #2]
    2abc:	f010 bbfa 	b.w	132b4 <PDM_eSaveRecordData>
    2ac0:	04014598 	.word	0x04014598

00002ac4 <vAppInitOTA>:
    2ac4:	e92d 41f0 	stmdb	sp!, {r4, r5, r6, r7, r8, lr}
    2ac8:	4b65      	ldr	r3, [pc, #404]	; (2c60 <vAppInitOTA+0x19c>)
    2aca:	b0a8      	sub	sp, #160	; 0xa0
    2acc:	aa04      	add	r2, sp, #16
    2ace:	f103 0510 	add.w	r5, r3, #16
    2ad2:	4617      	mov	r7, r2
    2ad4:	6818      	ldr	r0, [r3, #0]
    2ad6:	6859      	ldr	r1, [r3, #4]
    2ad8:	4614      	mov	r4, r2
    2ada:	c403      	stmia	r4!, {r0, r1}
    2adc:	3308      	adds	r3, #8
    2ade:	42ab      	cmp	r3, r5
    2ae0:	4622      	mov	r2, r4
    2ae2:	d1f7      	bne.n	2ad4 <vAppInitOTA+0x10>
    2ae4:	f7fe fc3c 	bl	1360 <app_u8GetDeviceEndpoint>
    2ae8:	4605      	mov	r5, r0
    2aea:	485e      	ldr	r0, [pc, #376]	; (2c64 <vAppInitOTA+0x1a0>)
    2aec:	4e5e      	ldr	r6, [pc, #376]	; (2c68 <vAppInitOTA+0x1a4>)
    2aee:	f8df 81ec 	ldr.w	r8, [pc, #492]	; 2cdc <vAppInitOTA+0x218>
    2af2:	f7ff fe7d 	bl	27f0 <DbgConsole_Printf>
    2af6:	2410      	movs	r4, #16
    2af8:	f816 1b01 	ldrb.w	r1, [r6], #1
    2afc:	4640      	mov	r0, r8
    2afe:	3c01      	subs	r4, #1
    2b00:	f7ff fe76 	bl	27f0 <DbgConsole_Printf>
    2b04:	f014 04ff 	ands.w	r4, r4, #255	; 0xff
    2b08:	d1f6      	bne.n	2af8 <vAppInitOTA+0x34>
    2b0a:	4858      	ldr	r0, [pc, #352]	; (2c6c <vAppInitOTA+0x1a8>)
    2b0c:	f7ff fe70 	bl	27f0 <DbgConsole_Printf>
    2b10:	2309      	movs	r3, #9
    2b12:	f88d 300c 	strb.w	r3, [sp, #12]
    2b16:	4956      	ldr	r1, [pc, #344]	; (2c70 <vAppInitOTA+0x1ac>)
    2b18:	f88d 404c 	strb.w	r4, [sp, #76]	; 0x4c
    2b1c:	f44f 7300 	mov.w	r3, #512	; 0x200
    2b20:	2210      	movs	r2, #16
    2b22:	4638      	mov	r0, r7
    2b24:	9312      	str	r3, [sp, #72]	; 0x48
    2b26:	f027 fb35 	bl	2a194 <memcmp>
    2b2a:	b910      	cbnz	r0, 2b32 <vAppInitOTA+0x6e>
    2b2c:	4851      	ldr	r0, [pc, #324]	; (2c74 <vAppInitOTA+0x1b0>)
    2b2e:	f7ff fe5f 	bl	27f0 <DbgConsole_Printf>
    2b32:	2100      	movs	r1, #0
    2b34:	4628      	mov	r0, r5
    2b36:	f007 fa23 	bl	9f80 <eOTA_UpdateClientAttributes>
    2b3a:	4601      	mov	r1, r0
    2b3c:	b110      	cbz	r0, 2b44 <vAppInitOTA+0x80>
    2b3e:	484e      	ldr	r0, [pc, #312]	; (2c78 <vAppInitOTA+0x1b4>)
    2b40:	f7ff fe56 	bl	27f0 <DbgConsole_Printf>
    2b44:	a90e      	add	r1, sp, #56	; 0x38
    2b46:	2000      	movs	r0, #0
    2b48:	f007 f900 	bl	9d4c <vOTA_FlashInit>
    2b4c:	ab08      	add	r3, sp, #32
    2b4e:	9301      	str	r3, [sp, #4]
    2b50:	2300      	movs	r3, #0
    2b52:	9300      	str	r3, [sp, #0]
    2b54:	2201      	movs	r2, #1
    2b56:	2309      	movs	r3, #9
    2b58:	a903      	add	r1, sp, #12
    2b5a:	4628      	mov	r0, r5
    2b5c:	f007 fa50 	bl	a000 <eOTA_AllocateEndpointOTASpace>
    2b60:	4604      	mov	r4, r0
    2b62:	b148      	cbz	r0, 2b78 <vAppInitOTA+0xb4>
    2b64:	4601      	mov	r1, r0
    2b66:	4845      	ldr	r0, [pc, #276]	; (2c7c <vAppInitOTA+0x1b8>)
    2b68:	f7ff fe42 	bl	27f0 <DbgConsole_Printf>
    2b6c:	4b44      	ldr	r3, [pc, #272]	; (2c80 <vAppInitOTA+0x1bc>)
    2b6e:	2200      	movs	r2, #0
    2b70:	701a      	strb	r2, [r3, #0]
    2b72:	b028      	add	sp, #160	; 0xa0
    2b74:	e8bd 81f0 	ldmia.w	sp!, {r4, r5, r6, r7, r8, pc}
    2b78:	aa14      	add	r2, sp, #80	; 0x50
    2b7a:	4601      	mov	r1, r0
    2b7c:	4628      	mov	r0, r5
    2b7e:	f007 fb11 	bl	a1a4 <eOTA_GetCurrentOtaHeader>
    2b82:	4840      	ldr	r0, [pc, #256]	; (2c84 <vAppInitOTA+0x1c0>)
    2b84:	4e40      	ldr	r6, [pc, #256]	; (2c88 <vAppInitOTA+0x1c4>)
    2b86:	f7ff fe33 	bl	27f0 <DbgConsole_Printf>
    2b8a:	9914      	ldr	r1, [sp, #80]	; 0x50
    2b8c:	483f      	ldr	r0, [pc, #252]	; (2c8c <vAppInitOTA+0x1c8>)
    2b8e:	f7ff fe2f 	bl	27f0 <DbgConsole_Printf>
    2b92:	f8bd 1054 	ldrh.w	r1, [sp, #84]	; 0x54
    2b96:	483e      	ldr	r0, [pc, #248]	; (2c90 <vAppInitOTA+0x1cc>)
    2b98:	f7ff fe2a 	bl	27f0 <DbgConsole_Printf>
    2b9c:	f8bd 1056 	ldrh.w	r1, [sp, #86]	; 0x56
    2ba0:	483c      	ldr	r0, [pc, #240]	; (2c94 <vAppInitOTA+0x1d0>)
    2ba2:	f7ff fe25 	bl	27f0 <DbgConsole_Printf>
    2ba6:	f8bd 1058 	ldrh.w	r1, [sp, #88]	; 0x58
    2baa:	483b      	ldr	r0, [pc, #236]	; (2c98 <vAppInitOTA+0x1d4>)
    2bac:	f7ff fe20 	bl	27f0 <DbgConsole_Printf>
    2bb0:	f8bd 105a 	ldrh.w	r1, [sp, #90]	; 0x5a
    2bb4:	4839      	ldr	r0, [pc, #228]	; (2c9c <vAppInitOTA+0x1d8>)
    2bb6:	f7ff fe1b 	bl	27f0 <DbgConsole_Printf>
    2bba:	f8bd 105c 	ldrh.w	r1, [sp, #92]	; 0x5c
    2bbe:	4838      	ldr	r0, [pc, #224]	; (2ca0 <vAppInitOTA+0x1dc>)
    2bc0:	f7ff fe16 	bl	27f0 <DbgConsole_Printf>
    2bc4:	9918      	ldr	r1, [sp, #96]	; 0x60
    2bc6:	4837      	ldr	r0, [pc, #220]	; (2ca4 <vAppInitOTA+0x1e0>)
    2bc8:	f7ff fe12 	bl	27f0 <DbgConsole_Printf>
    2bcc:	f8bd 1064 	ldrh.w	r1, [sp, #100]	; 0x64
    2bd0:	4835      	ldr	r0, [pc, #212]	; (2ca8 <vAppInitOTA+0x1e4>)
    2bd2:	f7ff fe0d 	bl	27f0 <DbgConsole_Printf>
    2bd6:	9922      	ldr	r1, [sp, #136]	; 0x88
    2bd8:	4834      	ldr	r0, [pc, #208]	; (2cac <vAppInitOTA+0x1e8>)
    2bda:	f7ff fe09 	bl	27f0 <DbgConsole_Printf>
    2bde:	2201      	movs	r2, #1
    2be0:	4631      	mov	r1, r6
    2be2:	4628      	mov	r0, r5
    2be4:	f007 f964 	bl	9eb0 <eOTA_RestoreClientData>
    2be8:	4d31      	ldr	r5, [pc, #196]	; (2cb0 <vAppInitOTA+0x1ec>)
    2bea:	4601      	mov	r1, r0
    2bec:	4831      	ldr	r0, [pc, #196]	; (2cb4 <vAppInitOTA+0x1f0>)
    2bee:	f7ff fdff 	bl	27f0 <DbgConsole_Printf>
    2bf2:	e9d5 2302 	ldrd	r2, r3, [r5, #8]
    2bf6:	e9cd 2300 	strd	r2, r3, [sp]
    2bfa:	482f      	ldr	r0, [pc, #188]	; (2cb8 <vAppInitOTA+0x1f4>)
    2bfc:	8a2a      	ldrh	r2, [r5, #16]
    2bfe:	78a9      	ldrb	r1, [r5, #2]
    2c00:	f7ff fdf6 	bl	27f0 <DbgConsole_Printf>
    2c04:	78aa      	ldrb	r2, [r5, #2]
    2c06:	492d      	ldr	r1, [pc, #180]	; (2cbc <vAppInitOTA+0x1f8>)
    2c08:	4b2d      	ldr	r3, [pc, #180]	; (2cc0 <vAppInitOTA+0x1fc>)
    2c0a:	4d2e      	ldr	r5, [pc, #184]	; (2cc4 <vAppInitOTA+0x200>)
    2c0c:	b1c2      	cbz	r2, 2c40 <vAppInitOTA+0x17c>
    2c0e:	7eb2      	ldrb	r2, [r6, #26]
    2c10:	601c      	str	r4, [r3, #0]
    2c12:	2a01      	cmp	r2, #1
    2c14:	bf0c      	ite	eq
    2c16:	2207      	moveq	r2, #7
    2c18:	2205      	movne	r2, #5
    2c1a:	700a      	strb	r2, [r1, #0]
    2c1c:	f44f 60fa 	mov.w	r0, #2000	; 0x7d0
    2c20:	f641 3158 	movw	r1, #7000	; 0x1b58
    2c24:	f004 fa8e 	bl	7144 <RND_u32GetRand>
    2c28:	4601      	mov	r1, r0
    2c2a:	6028      	str	r0, [r5, #0]
    2c2c:	4826      	ldr	r0, [pc, #152]	; (2cc8 <vAppInitOTA+0x204>)
    2c2e:	f7ff fddf 	bl	27f0 <DbgConsole_Printf>
    2c32:	4826      	ldr	r0, [pc, #152]	; (2ccc <vAppInitOTA+0x208>)
    2c34:	f7ff fddc 	bl	27f0 <DbgConsole_Printf>
    2c38:	4b25      	ldr	r3, [pc, #148]	; (2cd0 <vAppInitOTA+0x20c>)
    2c3a:	2200      	movs	r2, #0
    2c3c:	601a      	str	r2, [r3, #0]
    2c3e:	e795      	b.n	2b6c <vAppInitOTA+0xa8>
    2c40:	2001      	movs	r0, #1
    2c42:	7008      	strb	r0, [r1, #0]
    2c44:	f641 3158 	movw	r1, #7000	; 0x1b58
    2c48:	f44f 60fa 	mov.w	r0, #2000	; 0x7d0
    2c4c:	601a      	str	r2, [r3, #0]
    2c4e:	f004 fa79 	bl	7144 <RND_u32GetRand>
    2c52:	4601      	mov	r1, r0
    2c54:	6028      	str	r0, [r5, #0]
    2c56:	481f      	ldr	r0, [pc, #124]	; (2cd4 <vAppInitOTA+0x210>)
    2c58:	f7ff fdca 	bl	27f0 <DbgConsole_Printf>
    2c5c:	481e      	ldr	r0, [pc, #120]	; (2cd8 <vAppInitOTA+0x214>)
    2c5e:	e7e9      	b.n	2c34 <vAppInitOTA+0x170>
    2c60:	0002ce6b 	.word	0x0002ce6b
    2c64:	0002c051 	.word	0x0002c051
    2c68:	000001b0 	.word	0x000001b0
    2c6c:	0002cb86 	.word	0x0002cb86
    2c70:	00000150 	.word	0x00000150
    2c74:	0002c05f 	.word	0x0002c05f
    2c78:	0002c07d 	.word	0x0002c07d
    2c7c:	0002c0ae 	.word	0x0002c0ae
    2c80:	04014611 	.word	0x04014611
    2c84:	0002c0dc 	.word	0x0002c0dc
    2c88:	04014618 	.word	0x04014618
    2c8c:	0002c545 	.word	0x0002c545
    2c90:	0002c0f6 	.word	0x0002c0f6
    2c94:	0002c10e 	.word	0x0002c10e
    2c98:	0002c129 	.word	0x0002c129
    2c9c:	0002c148 	.word	0x0002c148
    2ca0:	0002c15f 	.word	0x0002c15f
    2ca4:	0002c174 	.word	0x0002c174
    2ca8:	0002c187 	.word	0x0002c187
    2cac:	0002c19b 	.word	0x0002c19b
    2cb0:	04014598 	.word	0x04014598
    2cb4:	0002c1b1 	.word	0x0002c1b1
    2cb8:	0002c1c7 	.word	0x0002c1c7
    2cbc:	04011f8c 	.word	0x04011f8c
    2cc0:	040146c8 	.word	0x040146c8
    2cc4:	040146c4 	.word	0x040146c4
    2cc8:	0002c1ec 	.word	0x0002c1ec
    2ccc:	0002c217 	.word	0x0002c217
    2cd0:	040146c0 	.word	0x040146c0
    2cd4:	0002c22a 	.word	0x0002c22a
    2cd8:	0002c256 	.word	0x0002c256
    2cdc:	0002c836 	.word	0x0002c836

00002ce0 <vLoadOTAPersistedData>:
    2ce0:	b513      	push	{r0, r1, r4, lr}
    2ce2:	4c0c      	ldr	r4, [pc, #48]	; (2d14 <vLoadOTAPersistedData+0x34>)
    2ce4:	f10d 0306 	add.w	r3, sp, #6
    2ce8:	22a8      	movs	r2, #168	; 0xa8
    2cea:	4621      	mov	r1, r4
    2cec:	2032      	movs	r0, #50	; 0x32
    2cee:	f00e ff0d 	bl	11b0c <PDM_eReadDataFromRecord>
    2cf2:	22a8      	movs	r2, #168	; 0xa8
    2cf4:	4601      	mov	r1, r0
    2cf6:	4808      	ldr	r0, [pc, #32]	; (2d18 <vLoadOTAPersistedData+0x38>)
    2cf8:	f7ff fd7a 	bl	27f0 <DbgConsole_Printf>
    2cfc:	6b63      	ldr	r3, [r4, #52]	; 0x34
    2cfe:	b123      	cbz	r3, 2d0a <vLoadOTAPersistedData+0x2a>
    2d00:	230a      	movs	r3, #10
    2d02:	4806      	ldr	r0, [pc, #24]	; (2d1c <vLoadOTAPersistedData+0x3c>)
    2d04:	6363      	str	r3, [r4, #52]	; 0x34
    2d06:	f7ff fd73 	bl	27f0 <DbgConsole_Printf>
    2d0a:	2300      	movs	r3, #0
    2d0c:	f884 3097 	strb.w	r3, [r4, #151]	; 0x97
    2d10:	b002      	add	sp, #8
    2d12:	bd10      	pop	{r4, pc}
    2d14:	04014618 	.word	0x04014618
    2d18:	0002c267 	.word	0x0002c267
    2d1c:	0002c284 	.word	0x0002c284

00002d20 <vRunAppOTAStateMachine>:
    2d20:	e92d 47f0 	stmdb	sp!, {r4, r5, r6, r7, r8, r9, sl, lr}
    2d24:	4e92      	ldr	r6, [pc, #584]	; (2f70 <vRunAppOTAStateMachine+0x250>)
    2d26:	7833      	ldrb	r3, [r6, #0]
    2d28:	2b02      	cmp	r3, #2
    2d2a:	b0a0      	sub	sp, #128	; 0x80
    2d2c:	f040 80a7 	bne.w	2e7e <vRunAppOTAStateMachine+0x15e>
    2d30:	4c90      	ldr	r4, [pc, #576]	; (2f74 <vRunAppOTAStateMachine+0x254>)
    2d32:	4d91      	ldr	r5, [pc, #580]	; (2f78 <vRunAppOTAStateMachine+0x258>)
    2d34:	6823      	ldr	r3, [r4, #0]
    2d36:	4403      	add	r3, r0
    2d38:	6023      	str	r3, [r4, #0]
    2d3a:	f7fe fb11 	bl	1360 <app_u8GetDeviceEndpoint>
    2d3e:	782f      	ldrb	r7, [r5, #0]
    2d40:	4680      	mov	r8, r0
    2d42:	2f07      	cmp	r7, #7
    2d44:	f200 809b 	bhi.w	2e7e <vRunAppOTAStateMachine+0x15e>
    2d48:	e8df f017 	tbh	[pc, r7, lsl #1]
    2d4c:	00330008 	.word	0x00330008
    2d50:	00b00085 	.word	0x00b00085
    2d54:	014400ee 	.word	0x014400ee
    2d58:	020801ce 	.word	0x020801ce
    2d5c:	4f87      	ldr	r7, [pc, #540]	; (2f7c <vRunAppOTAStateMachine+0x25c>)
    2d5e:	6822      	ldr	r2, [r4, #0]
    2d60:	683b      	ldr	r3, [r7, #0]
    2d62:	429a      	cmp	r2, r3
    2d64:	f0c0 808b 	bcc.w	2e7e <vRunAppOTAStateMachine+0x15e>
    2d68:	78b3      	ldrb	r3, [r6, #2]
    2d6a:	b193      	cbz	r3, 2d92 <vRunAppOTAStateMachine+0x72>
    2d6c:	2305      	movs	r3, #5
    2d6e:	702b      	strb	r3, [r5, #0]
    2d70:	f640 31b8 	movw	r1, #3000	; 0xbb8
    2d74:	2300      	movs	r3, #0
    2d76:	f44f 60fa 	mov.w	r0, #2000	; 0x7d0
    2d7a:	6023      	str	r3, [r4, #0]
    2d7c:	f004 f9e2 	bl	7144 <RND_u32GetRand>
    2d80:	4601      	mov	r1, r0
    2d82:	6038      	str	r0, [r7, #0]
    2d84:	487e      	ldr	r0, [pc, #504]	; (2f80 <vRunAppOTAStateMachine+0x260>)
    2d86:	f7ff fd33 	bl	27f0 <DbgConsole_Printf>
    2d8a:	487e      	ldr	r0, [pc, #504]	; (2f84 <vRunAppOTAStateMachine+0x264>)
    2d8c:	f7ff fd30 	bl	27f0 <DbgConsole_Printf>
    2d90:	e075      	b.n	2e7e <vRunAppOTAStateMachine+0x15e>
    2d92:	2201      	movs	r2, #1
    2d94:	f641 3158 	movw	r1, #7000	; 0x1b58
    2d98:	f44f 60fa 	mov.w	r0, #2000	; 0x7d0
    2d9c:	702a      	strb	r2, [r5, #0]
    2d9e:	6023      	str	r3, [r4, #0]
    2da0:	f004 f9d0 	bl	7144 <RND_u32GetRand>
    2da4:	4601      	mov	r1, r0
    2da6:	6038      	str	r0, [r7, #0]
    2da8:	4877      	ldr	r0, [pc, #476]	; (2f88 <vRunAppOTAStateMachine+0x268>)
    2daa:	f7ff fd21 	bl	27f0 <DbgConsole_Printf>
    2dae:	4877      	ldr	r0, [pc, #476]	; (2f8c <vRunAppOTAStateMachine+0x26c>)
    2db0:	e7ec      	b.n	2d8c <vRunAppOTAStateMachine+0x6c>
    2db2:	f8df 81c8 	ldr.w	r8, [pc, #456]	; 2f7c <vRunAppOTAStateMachine+0x25c>
    2db6:	6822      	ldr	r2, [r4, #0]
    2db8:	f8d8 3000 	ldr.w	r3, [r8]
    2dbc:	429a      	cmp	r2, r3
    2dbe:	46c1      	mov	r9, r8
    2dc0:	d35d      	bcc.n	2e7e <vRunAppOTAStateMachine+0x15e>
    2dc2:	2319      	movs	r3, #25
    2dc4:	f8ad 3020 	strh.w	r3, [sp, #32]
    2dc8:	ab08      	add	r3, sp, #32
    2dca:	930e      	str	r3, [sp, #56]	; 0x38
    2dcc:	4b70      	ldr	r3, [pc, #448]	; (2f90 <vRunAppOTAStateMachine+0x270>)
    2dce:	930c      	str	r3, [sp, #48]	; 0x30
    2dd0:	f04f 0a00 	mov.w	sl, #0
    2dd4:	2301      	movs	r3, #1
    2dd6:	486f      	ldr	r0, [pc, #444]	; (2f94 <vRunAppOTAStateMachine+0x274>)
    2dd8:	f8cd a040 	str.w	sl, [sp, #64]	; 0x40
    2ddc:	f88d a03c 	strb.w	sl, [sp, #60]	; 0x3c
    2de0:	f88d 3034 	strb.w	r3, [sp, #52]	; 0x34
    2de4:	f00e f9ac 	bl	11140 <PDUM_hAPduAllocateAPduInstance>
    2de8:	4606      	mov	r6, r0
    2dea:	b9b8      	cbnz	r0, 2e1c <vRunAppOTAStateMachine+0xfc>
    2dec:	486a      	ldr	r0, [pc, #424]	; (2f98 <vRunAppOTAStateMachine+0x278>)
    2dee:	f7ff fcff 	bl	27f0 <DbgConsole_Printf>
    2df2:	2300      	movs	r3, #0
    2df4:	4969      	ldr	r1, [pc, #420]	; (2f9c <vRunAppOTAStateMachine+0x27c>)
    2df6:	702b      	strb	r3, [r5, #0]
    2df8:	f64a 70c8 	movw	r0, #45000	; 0xafc8
    2dfc:	6023      	str	r3, [r4, #0]
    2dfe:	f004 f9a1 	bl	7144 <RND_u32GetRand>
    2e02:	4601      	mov	r1, r0
    2e04:	f8c9 0000 	str.w	r0, [r9]
    2e08:	4865      	ldr	r0, [pc, #404]	; (2fa0 <vRunAppOTAStateMachine+0x280>)
    2e0a:	f7ff fcf1 	bl	27f0 <DbgConsole_Printf>
    2e0e:	f7ff fe49 	bl	2aa4 <vResetOTADiscovery>
    2e12:	4864      	ldr	r0, [pc, #400]	; (2fa4 <vRunAppOTAStateMachine+0x284>)
    2e14:	4639      	mov	r1, r7
    2e16:	f7ff fceb 	bl	27f0 <DbgConsole_Printf>
    2e1a:	e030      	b.n	2e7e <vRunAppOTAStateMachine+0x15e>
    2e1c:	f06f 0302 	mvn.w	r3, #2
    2e20:	2700      	movs	r7, #0
    2e22:	f363 070f 	bfi	r7, r3, #0, #16
    2e26:	f7fd fd67 	bl	8f8 <ZPS_pvAplZdoGetAplHandle>
    2e2a:	ab0c      	add	r3, sp, #48	; 0x30
    2e2c:	9302      	str	r3, [sp, #8]
    2e2e:	ab05      	add	r3, sp, #20
    2e30:	e9cd a300 	strd	sl, r3, [sp]
    2e34:	463a      	mov	r2, r7
    2e36:	2300      	movs	r3, #0
    2e38:	4631      	mov	r1, r6
    2e3a:	f019 fcf1 	bl	1c820 <zps_eAplZdpMatchDescRequest>
    2e3e:	4607      	mov	r7, r0
    2e40:	2800      	cmp	r0, #0
    2e42:	f000 81ac 	beq.w	319e <vRunAppOTAStateMachine+0x47e>
    2e46:	4630      	mov	r0, r6
    2e48:	f00e f992 	bl	11170 <PDUM_eAPduFreeAPduInstance>
    2e4c:	4639      	mov	r1, r7
    2e4e:	4856      	ldr	r0, [pc, #344]	; (2fa8 <vRunAppOTAStateMachine+0x288>)
    2e50:	f7ff fcce 	bl	27f0 <DbgConsole_Printf>
    2e54:	e7cd      	b.n	2df2 <vRunAppOTAStateMachine+0xd2>
    2e56:	78b3      	ldrb	r3, [r6, #2]
    2e58:	4e48      	ldr	r6, [pc, #288]	; (2f7c <vRunAppOTAStateMachine+0x25c>)
    2e5a:	b19b      	cbz	r3, 2e84 <vRunAppOTAStateMachine+0x164>
    2e5c:	2305      	movs	r3, #5
    2e5e:	702b      	strb	r3, [r5, #0]
    2e60:	f640 31b8 	movw	r1, #3000	; 0xbb8
    2e64:	2500      	movs	r5, #0
    2e66:	f44f 60fa 	mov.w	r0, #2000	; 0x7d0
    2e6a:	6025      	str	r5, [r4, #0]
    2e6c:	f004 f96a 	bl	7144 <RND_u32GetRand>
    2e70:	4601      	mov	r1, r0
    2e72:	6030      	str	r0, [r6, #0]
    2e74:	484d      	ldr	r0, [pc, #308]	; (2fac <vRunAppOTAStateMachine+0x28c>)
    2e76:	f7ff fcbb 	bl	27f0 <DbgConsole_Printf>
    2e7a:	4b4d      	ldr	r3, [pc, #308]	; (2fb0 <vRunAppOTAStateMachine+0x290>)
    2e7c:	601d      	str	r5, [r3, #0]
    2e7e:	b020      	add	sp, #128	; 0x80
    2e80:	e8bd 87f0 	ldmia.w	sp!, {r4, r5, r6, r7, r8, r9, sl, pc}
    2e84:	6821      	ldr	r1, [r4, #0]
    2e86:	6832      	ldr	r2, [r6, #0]
    2e88:	4291      	cmp	r1, r2
    2e8a:	d3f8      	bcc.n	2e7e <vRunAppOTAStateMachine+0x15e>
    2e8c:	4a48      	ldr	r2, [pc, #288]	; (2fb0 <vRunAppOTAStateMachine+0x290>)
    2e8e:	4943      	ldr	r1, [pc, #268]	; (2f9c <vRunAppOTAStateMachine+0x27c>)
    2e90:	6013      	str	r3, [r2, #0]
    2e92:	f64a 70c8 	movw	r0, #45000	; 0xafc8
    2e96:	702b      	strb	r3, [r5, #0]
    2e98:	6023      	str	r3, [r4, #0]
    2e9a:	f004 f953 	bl	7144 <RND_u32GetRand>
    2e9e:	4601      	mov	r1, r0
    2ea0:	6030      	str	r0, [r6, #0]
    2ea2:	4844      	ldr	r0, [pc, #272]	; (2fb4 <vRunAppOTAStateMachine+0x294>)
    2ea4:	f7ff fca4 	bl	27f0 <DbgConsole_Printf>
    2ea8:	4843      	ldr	r0, [pc, #268]	; (2fb8 <vRunAppOTAStateMachine+0x298>)
    2eaa:	e76f      	b.n	2d8c <vRunAppOTAStateMachine+0x6c>
    2eac:	4b33      	ldr	r3, [pc, #204]	; (2f7c <vRunAppOTAStateMachine+0x25c>)
    2eae:	6821      	ldr	r1, [r4, #0]
    2eb0:	681a      	ldr	r2, [r3, #0]
    2eb2:	4291      	cmp	r1, r2
    2eb4:	4698      	mov	r8, r3
    2eb6:	d3e2      	bcc.n	2e7e <vRunAppOTAStateMachine+0x15e>
    2eb8:	4836      	ldr	r0, [pc, #216]	; (2f94 <vRunAppOTAStateMachine+0x274>)
    2eba:	f00e f941 	bl	11140 <PDUM_hAPduAllocateAPduInstance>
    2ebe:	4607      	mov	r7, r0
    2ec0:	b988      	cbnz	r0, 2ee6 <vRunAppOTAStateMachine+0x1c6>
    2ec2:	483e      	ldr	r0, [pc, #248]	; (2fbc <vRunAppOTAStateMachine+0x29c>)
    2ec4:	f7ff fc94 	bl	27f0 <DbgConsole_Printf>
    2ec8:	2304      	movs	r3, #4
    2eca:	702b      	strb	r3, [r5, #0]
    2ecc:	f640 31b8 	movw	r1, #3000	; 0xbb8
    2ed0:	2300      	movs	r3, #0
    2ed2:	f44f 60fa 	mov.w	r0, #2000	; 0x7d0
    2ed6:	6023      	str	r3, [r4, #0]
    2ed8:	f004 f934 	bl	7144 <RND_u32GetRand>
    2edc:	4601      	mov	r1, r0
    2ede:	f8c8 0000 	str.w	r0, [r8]
    2ee2:	4837      	ldr	r0, [pc, #220]	; (2fc0 <vRunAppOTAStateMachine+0x2a0>)
    2ee4:	e797      	b.n	2e16 <vRunAppOTAStateMachine+0xf6>
    2ee6:	8a33      	ldrh	r3, [r6, #16]
    2ee8:	f8ad 3030 	strh.w	r3, [sp, #48]	; 0x30
    2eec:	f04f 0900 	mov.w	r9, #0
    2ef0:	464e      	mov	r6, r9
    2ef2:	f363 060f 	bfi	r6, r3, #0, #16
    2ef6:	f8ad 9032 	strh.w	r9, [sp, #50]	; 0x32
    2efa:	f7fd fcfd 	bl	8f8 <ZPS_pvAplZdoGetAplHandle>
    2efe:	ab0c      	add	r3, sp, #48	; 0x30
    2f00:	9302      	str	r3, [sp, #8]
    2f02:	ab08      	add	r3, sp, #32
    2f04:	e9cd 9300 	strd	r9, r3, [sp]
    2f08:	4632      	mov	r2, r6
    2f0a:	464b      	mov	r3, r9
    2f0c:	4639      	mov	r1, r7
    2f0e:	f019 fc53 	bl	1c7b8 <zps_eAplZdpIeeeAddrRequest>
    2f12:	4606      	mov	r6, r0
    2f14:	2800      	cmp	r0, #0
    2f16:	d0d7      	beq.n	2ec8 <vRunAppOTAStateMachine+0x1a8>
    2f18:	4638      	mov	r0, r7
    2f1a:	f00e f929 	bl	11170 <PDUM_eAPduFreeAPduInstance>
    2f1e:	4631      	mov	r1, r6
    2f20:	4828      	ldr	r0, [pc, #160]	; (2fc4 <vRunAppOTAStateMachine+0x2a4>)
    2f22:	f7ff fc65 	bl	27f0 <DbgConsole_Printf>
    2f26:	e7cf      	b.n	2ec8 <vRunAppOTAStateMachine+0x1a8>
    2f28:	78b3      	ldrb	r3, [r6, #2]
    2f2a:	4e14      	ldr	r6, [pc, #80]	; (2f7c <vRunAppOTAStateMachine+0x25c>)
    2f2c:	b16b      	cbz	r3, 2f4a <vRunAppOTAStateMachine+0x22a>
    2f2e:	2305      	movs	r3, #5
    2f30:	702b      	strb	r3, [r5, #0]
    2f32:	f640 31b8 	movw	r1, #3000	; 0xbb8
    2f36:	2500      	movs	r5, #0
    2f38:	f44f 60fa 	mov.w	r0, #2000	; 0x7d0
    2f3c:	6025      	str	r5, [r4, #0]
    2f3e:	f004 f901 	bl	7144 <RND_u32GetRand>
    2f42:	4601      	mov	r1, r0
    2f44:	6030      	str	r0, [r6, #0]
    2f46:	4820      	ldr	r0, [pc, #128]	; (2fc8 <vRunAppOTAStateMachine+0x2a8>)
    2f48:	e795      	b.n	2e76 <vRunAppOTAStateMachine+0x156>
    2f4a:	6821      	ldr	r1, [r4, #0]
    2f4c:	6832      	ldr	r2, [r6, #0]
    2f4e:	4291      	cmp	r1, r2
    2f50:	d395      	bcc.n	2e7e <vRunAppOTAStateMachine+0x15e>
    2f52:	4912      	ldr	r1, [pc, #72]	; (2f9c <vRunAppOTAStateMachine+0x27c>)
    2f54:	702b      	strb	r3, [r5, #0]
    2f56:	f64a 70c8 	movw	r0, #45000	; 0xafc8
    2f5a:	6023      	str	r3, [r4, #0]
    2f5c:	f004 f8f2 	bl	7144 <RND_u32GetRand>
    2f60:	4601      	mov	r1, r0
    2f62:	6030      	str	r0, [r6, #0]
    2f64:	4819      	ldr	r0, [pc, #100]	; (2fcc <vRunAppOTAStateMachine+0x2ac>)
    2f66:	f7ff fc43 	bl	27f0 <DbgConsole_Printf>
    2f6a:	4819      	ldr	r0, [pc, #100]	; (2fd0 <vRunAppOTAStateMachine+0x2b0>)
    2f6c:	e70e      	b.n	2d8c <vRunAppOTAStateMachine+0x6c>
    2f6e:	bf00      	nop
    2f70:	04014598 	.word	0x04014598
    2f74:	040146c8 	.word	0x040146c8
    2f78:	04011f8c 	.word	0x04011f8c
    2f7c:	040146c4 	.word	0x040146c4
    2f80:	0002c29a 	.word	0x0002c29a
    2f84:	0002c2d0 	.word	0x0002c2d0
    2f88:	0002c2e8 	.word	0x0002c2e8
    2f8c:	0002c31f 	.word	0x0002c31f
    2f90:	0104fffd 	.word	0x0104fffd
    2f94:	04011bc0 	.word	0x04011bc0
    2f98:	0002c33a 	.word	0x0002c33a
    2f9c:	000124f8 	.word	0x000124f8
    2fa0:	0002c35d 	.word	0x0002c35d
    2fa4:	0002c394 	.word	0x0002c394
    2fa8:	0002c34d 	.word	0x0002c34d
    2fac:	0002c3ad 	.word	0x0002c3ad
    2fb0:	040146c0 	.word	0x040146c0
    2fb4:	0002c3ef 	.word	0x0002c3ef
    2fb8:	0002c42b 	.word	0x0002c42b
    2fbc:	0002c43b 	.word	0x0002c43b
    2fc0:	0002c487 	.word	0x0002c487
    2fc4:	0002c467 	.word	0x0002c467
    2fc8:	0002c4c4 	.word	0x0002c4c4
    2fcc:	0002c4ff 	.word	0x0002c4ff
    2fd0:	0002c534 	.word	0x0002c534
    2fd4:	f8df 923c 	ldr.w	r9, [pc, #572]	; 3214 <vRunAppOTAStateMachine+0x4f4>
    2fd8:	6822      	ldr	r2, [r4, #0]
    2fda:	f8d9 3000 	ldr.w	r3, [r9]
    2fde:	429a      	cmp	r2, r3
    2fe0:	f4ff af4d 	bcc.w	2e7e <vRunAppOTAStateMachine+0x15e>
    2fe4:	78b7      	ldrb	r7, [r6, #2]
    2fe6:	2f00      	cmp	r7, #0
    2fe8:	d075      	beq.n	30d6 <vRunAppOTAStateMachine+0x3b6>
    2fea:	aa0c      	add	r2, sp, #48	; 0x30
    2fec:	2100      	movs	r1, #0
    2fee:	f007 f8d9 	bl	a1a4 <eOTA_GetCurrentOtaHeader>
    2ff2:	4607      	mov	r7, r0
    2ff4:	2800      	cmp	r0, #0
    2ff6:	d15c      	bne.n	30b2 <vRunAppOTAStateMachine+0x392>
    2ff8:	990c      	ldr	r1, [sp, #48]	; 0x30
    2ffa:	4870      	ldr	r0, [pc, #448]	; (31bc <vRunAppOTAStateMachine+0x49c>)
    2ffc:	f7ff fbf8 	bl	27f0 <DbgConsole_Printf>
    3000:	f8bd 1034 	ldrh.w	r1, [sp, #52]	; 0x34
    3004:	486e      	ldr	r0, [pc, #440]	; (31c0 <vRunAppOTAStateMachine+0x4a0>)
    3006:	f7ff fbf3 	bl	27f0 <DbgConsole_Printf>
    300a:	f8bd 1036 	ldrh.w	r1, [sp, #54]	; 0x36
    300e:	486d      	ldr	r0, [pc, #436]	; (31c4 <vRunAppOTAStateMachine+0x4a4>)
    3010:	f7ff fbee 	bl	27f0 <DbgConsole_Printf>
    3014:	f8bd 1038 	ldrh.w	r1, [sp, #56]	; 0x38
    3018:	486b      	ldr	r0, [pc, #428]	; (31c8 <vRunAppOTAStateMachine+0x4a8>)
    301a:	f7ff fbe9 	bl	27f0 <DbgConsole_Printf>
    301e:	f8bd 103a 	ldrh.w	r1, [sp, #58]	; 0x3a
    3022:	486a      	ldr	r0, [pc, #424]	; (31cc <vRunAppOTAStateMachine+0x4ac>)
    3024:	f7ff fbe4 	bl	27f0 <DbgConsole_Printf>
    3028:	f8bd 103c 	ldrh.w	r1, [sp, #60]	; 0x3c
    302c:	4868      	ldr	r0, [pc, #416]	; (31d0 <vRunAppOTAStateMachine+0x4b0>)
    302e:	f7ff fbdf 	bl	27f0 <DbgConsole_Printf>
    3032:	9910      	ldr	r1, [sp, #64]	; 0x40
    3034:	4867      	ldr	r0, [pc, #412]	; (31d4 <vRunAppOTAStateMachine+0x4b4>)
    3036:	f7ff fbdb 	bl	27f0 <DbgConsole_Printf>
    303a:	f8bd 1044 	ldrh.w	r1, [sp, #68]	; 0x44
    303e:	4866      	ldr	r0, [pc, #408]	; (31d8 <vRunAppOTAStateMachine+0x4b8>)
    3040:	f7ff fbd6 	bl	27f0 <DbgConsole_Printf>
    3044:	991a      	ldr	r1, [sp, #104]	; 0x68
    3046:	4865      	ldr	r0, [pc, #404]	; (31dc <vRunAppOTAStateMachine+0x4bc>)
    3048:	f7ff fbd2 	bl	27f0 <DbgConsole_Printf>
    304c:	8a33      	ldrh	r3, [r6, #16]
    304e:	9300      	str	r3, [sp, #0]
    3050:	e9d6 2302 	ldrd	r2, r3, [r6, #8]
    3054:	4640      	mov	r0, r8
    3056:	f006 fe57 	bl	9d08 <eOTA_SetServerAddress>
    305a:	8a31      	ldrh	r1, [r6, #16]
    305c:	f8bd 203c 	ldrh.w	r2, [sp, #60]	; 0x3c
    3060:	f8bd 303a 	ldrh.w	r3, [sp, #58]	; 0x3a
    3064:	f8ad 1028 	strh.w	r1, [sp, #40]	; 0x28
    3068:	2002      	movs	r0, #2
    306a:	9910      	ldr	r1, [sp, #64]	; 0x40
    306c:	f88d 0020 	strb.w	r0, [sp, #32]
    3070:	9105      	str	r1, [sp, #20]
    3072:	f8ad 201a 	strh.w	r2, [sp, #26]
    3076:	7cb1      	ldrb	r1, [r6, #18]
    3078:	f8ad 301c 	strh.w	r3, [sp, #28]
    307c:	aa08      	add	r2, sp, #32
    307e:	ab05      	add	r3, sp, #20
    3080:	4640      	mov	r0, r8
    3082:	f8ad 7018 	strh.w	r7, [sp, #24]
    3086:	f88d 701e 	strb.w	r7, [sp, #30]
    308a:	f008 fc23 	bl	b8d4 <eOTA_ClientQueryNextImageRequest>
    308e:	4601      	mov	r1, r0
    3090:	4853      	ldr	r0, [pc, #332]	; (31e0 <vRunAppOTAStateMachine+0x4c0>)
    3092:	f7ff fbad 	bl	27f0 <DbgConsole_Printf>
    3096:	2306      	movs	r3, #6
    3098:	f640 31b8 	movw	r1, #3000	; 0xbb8
    309c:	f44f 60fa 	mov.w	r0, #2000	; 0x7d0
    30a0:	702b      	strb	r3, [r5, #0]
    30a2:	6027      	str	r7, [r4, #0]
    30a4:	f004 f84e 	bl	7144 <RND_u32GetRand>
    30a8:	4601      	mov	r1, r0
    30aa:	f8c9 0000 	str.w	r0, [r9]
    30ae:	484d      	ldr	r0, [pc, #308]	; (31e4 <vRunAppOTAStateMachine+0x4c4>)
    30b0:	e6b1      	b.n	2e16 <vRunAppOTAStateMachine+0xf6>
    30b2:	484d      	ldr	r0, [pc, #308]	; (31e8 <vRunAppOTAStateMachine+0x4c8>)
    30b4:	f7ff fb9c 	bl	27f0 <DbgConsole_Printf>
    30b8:	4a4c      	ldr	r2, [pc, #304]	; (31ec <vRunAppOTAStateMachine+0x4cc>)
    30ba:	2300      	movs	r3, #0
    30bc:	6013      	str	r3, [r2, #0]
    30be:	702b      	strb	r3, [r5, #0]
    30c0:	6023      	str	r3, [r4, #0]
    30c2:	494b      	ldr	r1, [pc, #300]	; (31f0 <vRunAppOTAStateMachine+0x4d0>)
    30c4:	f64a 70c8 	movw	r0, #45000	; 0xafc8
    30c8:	f004 f83c 	bl	7144 <RND_u32GetRand>
    30cc:	4601      	mov	r1, r0
    30ce:	f8c9 0000 	str.w	r0, [r9]
    30d2:	4848      	ldr	r0, [pc, #288]	; (31f4 <vRunAppOTAStateMachine+0x4d4>)
    30d4:	e69f      	b.n	2e16 <vRunAppOTAStateMachine+0xf6>
    30d6:	4848      	ldr	r0, [pc, #288]	; (31f8 <vRunAppOTAStateMachine+0x4d8>)
    30d8:	4639      	mov	r1, r7
    30da:	f7ff fb89 	bl	27f0 <DbgConsole_Printf>
    30de:	4b43      	ldr	r3, [pc, #268]	; (31ec <vRunAppOTAStateMachine+0x4cc>)
    30e0:	702f      	strb	r7, [r5, #0]
    30e2:	601f      	str	r7, [r3, #0]
    30e4:	6027      	str	r7, [r4, #0]
    30e6:	e7ec      	b.n	30c2 <vRunAppOTAStateMachine+0x3a2>
    30e8:	f8df 8128 	ldr.w	r8, [pc, #296]	; 3214 <vRunAppOTAStateMachine+0x4f4>
    30ec:	6822      	ldr	r2, [r4, #0]
    30ee:	f8d8 3000 	ldr.w	r3, [r8]
    30f2:	429a      	cmp	r2, r3
    30f4:	f4ff aec3 	bcc.w	2e7e <vRunAppOTAStateMachine+0x15e>
    30f8:	4f3c      	ldr	r7, [pc, #240]	; (31ec <vRunAppOTAStateMachine+0x4cc>)
    30fa:	4840      	ldr	r0, [pc, #256]	; (31fc <vRunAppOTAStateMachine+0x4dc>)
    30fc:	f7ff fb78 	bl	27f0 <DbgConsole_Printf>
    3100:	6839      	ldr	r1, [r7, #0]
    3102:	483f      	ldr	r0, [pc, #252]	; (3200 <vRunAppOTAStateMachine+0x4e0>)
    3104:	3101      	adds	r1, #1
    3106:	6039      	str	r1, [r7, #0]
    3108:	f7ff fb72 	bl	27f0 <DbgConsole_Printf>
    310c:	683b      	ldr	r3, [r7, #0]
    310e:	2b02      	cmp	r3, #2
    3110:	f04f 0600 	mov.w	r6, #0
    3114:	d911      	bls.n	313a <vRunAppOTAStateMachine+0x41a>
    3116:	4936      	ldr	r1, [pc, #216]	; (31f0 <vRunAppOTAStateMachine+0x4d0>)
    3118:	702e      	strb	r6, [r5, #0]
    311a:	f64a 70c8 	movw	r0, #45000	; 0xafc8
    311e:	6026      	str	r6, [r4, #0]
    3120:	f004 f810 	bl	7144 <RND_u32GetRand>
    3124:	4601      	mov	r1, r0
    3126:	f8c8 0000 	str.w	r0, [r8]
    312a:	4836      	ldr	r0, [pc, #216]	; (3204 <vRunAppOTAStateMachine+0x4e4>)
    312c:	f7ff fb60 	bl	27f0 <DbgConsole_Printf>
    3130:	603e      	str	r6, [r7, #0]
    3132:	f7ff fcb7 	bl	2aa4 <vResetOTADiscovery>
    3136:	4834      	ldr	r0, [pc, #208]	; (3208 <vRunAppOTAStateMachine+0x4e8>)
    3138:	e628      	b.n	2d8c <vRunAppOTAStateMachine+0x6c>
    313a:	2305      	movs	r3, #5
    313c:	f640 31b8 	movw	r1, #3000	; 0xbb8
    3140:	f44f 60fa 	mov.w	r0, #2000	; 0x7d0
    3144:	702b      	strb	r3, [r5, #0]
    3146:	6026      	str	r6, [r4, #0]
    3148:	f003 fffc 	bl	7144 <RND_u32GetRand>
    314c:	4601      	mov	r1, r0
    314e:	f8c8 0000 	str.w	r0, [r8]
    3152:	482e      	ldr	r0, [pc, #184]	; (320c <vRunAppOTAStateMachine+0x4ec>)
    3154:	f7ff fb4c 	bl	27f0 <DbgConsole_Printf>
    3158:	482d      	ldr	r0, [pc, #180]	; (3210 <vRunAppOTAStateMachine+0x4f0>)
    315a:	e617      	b.n	2d8c <vRunAppOTAStateMachine+0x6c>
    315c:	4e2d      	ldr	r6, [pc, #180]	; (3214 <vRunAppOTAStateMachine+0x4f4>)
    315e:	6821      	ldr	r1, [r4, #0]
    3160:	482d      	ldr	r0, [pc, #180]	; (3218 <vRunAppOTAStateMachine+0x4f8>)
    3162:	f7ff fb45 	bl	27f0 <DbgConsole_Printf>
    3166:	6821      	ldr	r1, [r4, #0]
    3168:	6832      	ldr	r2, [r6, #0]
    316a:	4291      	cmp	r1, r2
    316c:	d204      	bcs.n	3178 <vRunAppOTAStateMachine+0x458>
    316e:	4b2b      	ldr	r3, [pc, #172]	; (321c <vRunAppOTAStateMachine+0x4fc>)
    3170:	7e9b      	ldrb	r3, [r3, #26]
    3172:	2b00      	cmp	r3, #0
    3174:	f47f ae83 	bne.w	2e7e <vRunAppOTAStateMachine+0x15e>
    3178:	4b29      	ldr	r3, [pc, #164]	; (3220 <vRunAppOTAStateMachine+0x500>)
    317a:	781b      	ldrb	r3, [r3, #0]
    317c:	2b00      	cmp	r3, #0
    317e:	f47f ae7e 	bne.w	2e7e <vRunAppOTAStateMachine+0x15e>
    3182:	491b      	ldr	r1, [pc, #108]	; (31f0 <vRunAppOTAStateMachine+0x4d0>)
    3184:	702b      	strb	r3, [r5, #0]
    3186:	f64a 70c8 	movw	r0, #45000	; 0xafc8
    318a:	6023      	str	r3, [r4, #0]
    318c:	f003 ffda 	bl	7144 <RND_u32GetRand>
    3190:	4601      	mov	r1, r0
    3192:	6030      	str	r0, [r6, #0]
    3194:	4823      	ldr	r0, [pc, #140]	; (3224 <vRunAppOTAStateMachine+0x504>)
    3196:	f7ff fb2b 	bl	27f0 <DbgConsole_Printf>
    319a:	4823      	ldr	r0, [pc, #140]	; (3228 <vRunAppOTAStateMachine+0x508>)
    319c:	e5f6      	b.n	2d8c <vRunAppOTAStateMachine+0x6c>
    319e:	2302      	movs	r3, #2
    31a0:	6020      	str	r0, [r4, #0]
    31a2:	f640 31b8 	movw	r1, #3000	; 0xbb8
    31a6:	f44f 60fa 	mov.w	r0, #2000	; 0x7d0
    31aa:	702b      	strb	r3, [r5, #0]
    31ac:	f003 ffca 	bl	7144 <RND_u32GetRand>
    31b0:	4601      	mov	r1, r0
    31b2:	f8c8 0000 	str.w	r0, [r8]
    31b6:	481d      	ldr	r0, [pc, #116]	; (322c <vRunAppOTAStateMachine+0x50c>)
    31b8:	e62d      	b.n	2e16 <vRunAppOTAStateMachine+0xf6>
    31ba:	bf00      	nop
    31bc:	0002c543 	.word	0x0002c543
    31c0:	0002c0f6 	.word	0x0002c0f6
    31c4:	0002c10e 	.word	0x0002c10e
    31c8:	0002c557 	.word	0x0002c557
    31cc:	0002c148 	.word	0x0002c148
    31d0:	0002c15f 	.word	0x0002c15f
    31d4:	0002c174 	.word	0x0002c174
    31d8:	0002c187 	.word	0x0002c187
    31dc:	0002c576 	.word	0x0002c576
    31e0:	0002c58b 	.word	0x0002c58b
    31e4:	0002c5a0 	.word	0x0002c5a0
    31e8:	0002c5e1 	.word	0x0002c5e1
    31ec:	040146c0 	.word	0x040146c0
    31f0:	000124f8 	.word	0x000124f8
    31f4:	0002c606 	.word	0x0002c606
    31f8:	0002c63c 	.word	0x0002c63c
    31fc:	0002c655 	.word	0x0002c655
    3200:	0002c672 	.word	0x0002c672
    3204:	0002c67c 	.word	0x0002c67c
    3208:	0002c759 	.word	0x0002c759
    320c:	0002c6b7 	.word	0x0002c6b7
    3210:	0002c6f8 	.word	0x0002c6f8
    3214:	040146c4 	.word	0x040146c4
    3218:	0002c703 	.word	0x0002c703
    321c:	04014618 	.word	0x04014618
    3220:	04014611 	.word	0x04014611
    3224:	0002c717 	.word	0x0002c717
    3228:	0002c749 	.word	0x0002c749
    322c:	0002c764 	.word	0x0002c764

00003230 <vHandleMatchDescriptor>:
    3230:	b5f8      	push	{r3, r4, r5, r6, r7, lr}
    3232:	6986      	ldr	r6, [r0, #24]
    3234:	4605      	mov	r5, r0
    3236:	6830      	ldr	r0, [r6, #0]
    3238:	7843      	ldrb	r3, [r0, #1]
    323a:	2b00      	cmp	r3, #0
    323c:	d13e      	bne.n	32bc <vHandleMatchDescriptor+0x8c>
    323e:	3002      	adds	r0, #2
    3240:	f010 fd43 	bl	13cca <u16Read16Nbo>
    3244:	6833      	ldr	r3, [r6, #0]
    3246:	791f      	ldrb	r7, [r3, #4]
    3248:	f895 3026 	ldrb.w	r3, [r5, #38]	; 0x26
    324c:	2b02      	cmp	r3, #2
    324e:	4604      	mov	r4, r0
    3250:	d12b      	bne.n	32aa <vHandleMatchDescriptor+0x7a>
    3252:	8a28      	ldrh	r0, [r5, #16]
    3254:	f64f 73fd 	movw	r3, #65533	; 0xfffd
    3258:	429c      	cmp	r4, r3
    325a:	bf08      	it	eq
    325c:	4604      	moveq	r4, r0
    325e:	4639      	mov	r1, r7
    3260:	4817      	ldr	r0, [pc, #92]	; (32c0 <vHandleMatchDescriptor+0x90>)
    3262:	f7ff fac5 	bl	27f0 <DbgConsole_Printf>
    3266:	b34f      	cbz	r7, 32bc <vHandleMatchDescriptor+0x8c>
    3268:	6833      	ldr	r3, [r6, #0]
    326a:	4d16      	ldr	r5, [pc, #88]	; (32c4 <vHandleMatchDescriptor+0x94>)
    326c:	795b      	ldrb	r3, [r3, #5]
    326e:	4816      	ldr	r0, [pc, #88]	; (32c8 <vHandleMatchDescriptor+0x98>)
    3270:	74ab      	strb	r3, [r5, #18]
    3272:	4621      	mov	r1, r4
    3274:	822c      	strh	r4, [r5, #16]
    3276:	f7ff fabb 	bl	27f0 <DbgConsole_Printf>
    327a:	7ca9      	ldrb	r1, [r5, #18]
    327c:	4813      	ldr	r0, [pc, #76]	; (32cc <vHandleMatchDescriptor+0x9c>)
    327e:	f7ff fab7 	bl	27f0 <DbgConsole_Printf>
    3282:	4b13      	ldr	r3, [pc, #76]	; (32d0 <vHandleMatchDescriptor+0xa0>)
    3284:	2203      	movs	r2, #3
    3286:	701a      	strb	r2, [r3, #0]
    3288:	4b12      	ldr	r3, [pc, #72]	; (32d4 <vHandleMatchDescriptor+0xa4>)
    328a:	2200      	movs	r2, #0
    328c:	f640 31b8 	movw	r1, #3000	; 0xbb8
    3290:	f44f 60fa 	mov.w	r0, #2000	; 0x7d0
    3294:	601a      	str	r2, [r3, #0]
    3296:	f003 ff55 	bl	7144 <RND_u32GetRand>
    329a:	4b0f      	ldr	r3, [pc, #60]	; (32d8 <vHandleMatchDescriptor+0xa8>)
    329c:	4601      	mov	r1, r0
    329e:	6018      	str	r0, [r3, #0]
    32a0:	e8bd 40f8 	ldmia.w	sp!, {r3, r4, r5, r6, r7, lr}
    32a4:	480d      	ldr	r0, [pc, #52]	; (32dc <vHandleMatchDescriptor+0xac>)
    32a6:	f7ff baa3 	b.w	27f0 <DbgConsole_Printf>
    32aa:	f7fd fb25 	bl	8f8 <ZPS_pvAplZdoGetAplHandle>
    32ae:	f014 fe77 	bl	17fa0 <zps_pvAplZdoGetNwkHandle>
    32b2:	e9d5 2304 	ldrd	r2, r3, [r5, #16]
    32b6:	f01d fb73 	bl	209a0 <ZPS_u16NwkNibFindNwkAddr>
    32ba:	e7cb      	b.n	3254 <vHandleMatchDescriptor+0x24>
    32bc:	bdf8      	pop	{r3, r4, r5, r6, r7, pc}
    32be:	bf00      	nop
    32c0:	0002c7a7 	.word	0x0002c7a7
    32c4:	04014598 	.word	0x04014598
    32c8:	0002c7ba 	.word	0x0002c7ba
    32cc:	0002c7da 	.word	0x0002c7da
    32d0:	04011f8c 	.word	0x04011f8c
    32d4:	040146c8 	.word	0x040146c8
    32d8:	040146c4 	.word	0x040146c4
    32dc:	0002c7ef 	.word	0x0002c7ef

000032e0 <vHandleIeeeAddressRsp>:
    32e0:	e92d 4370 	stmdb	sp!, {r4, r5, r6, r8, r9, lr}
    32e4:	6984      	ldr	r4, [r0, #24]
    32e6:	4831      	ldr	r0, [pc, #196]	; (33ac <vHandleIeeeAddressRsp+0xcc>)
    32e8:	6823      	ldr	r3, [r4, #0]
    32ea:	b088      	sub	sp, #32
    32ec:	7859      	ldrb	r1, [r3, #1]
    32ee:	f88d 1008 	strb.w	r1, [sp, #8]
    32f2:	f7ff fa7d 	bl	27f0 <DbgConsole_Printf>
    32f6:	f89d 5008 	ldrb.w	r5, [sp, #8]
    32fa:	2d00      	cmp	r5, #0
    32fc:	d154      	bne.n	33a8 <vHandleIeeeAddressRsp+0xc8>
    32fe:	4a2c      	ldr	r2, [pc, #176]	; (33b0 <vHandleIeeeAddressRsp+0xd0>)
    3300:	2102      	movs	r1, #2
    3302:	ab04      	add	r3, sp, #16
    3304:	4620      	mov	r0, r4
    3306:	f00d fe9f 	bl	11048 <PDUM_u16APduInstanceReadNBO>
    330a:	6823      	ldr	r3, [r4, #0]
    330c:	4c29      	ldr	r4, [pc, #164]	; (33b4 <vHandleIeeeAddressRsp+0xd4>)
    330e:	3002      	adds	r0, #2
    3310:	4418      	add	r0, r3
    3312:	f010 fcda 	bl	13cca <u16Read16Nbo>
    3316:	8a21      	ldrh	r1, [r4, #16]
    3318:	f8ad 0018 	strh.w	r0, [sp, #24]
    331c:	4602      	mov	r2, r0
    331e:	4826      	ldr	r0, [pc, #152]	; (33b8 <vHandleIeeeAddressRsp+0xd8>)
    3320:	f7ff fa66 	bl	27f0 <DbgConsole_Printf>
    3324:	8a23      	ldrh	r3, [r4, #16]
    3326:	f8bd 1018 	ldrh.w	r1, [sp, #24]
    332a:	4299      	cmp	r1, r3
    332c:	d13a      	bne.n	33a4 <vHandleIeeeAddressRsp+0xc4>
    332e:	e9dd 2304 	ldrd	r2, r3, [sp, #16]
    3332:	4822      	ldr	r0, [pc, #136]	; (33bc <vHandleIeeeAddressRsp+0xdc>)
    3334:	e9c4 2302 	strd	r2, r3, [r4, #8]
    3338:	f7ff fa5a 	bl	27f0 <DbgConsole_Printf>
    333c:	e9d4 8902 	ldrd	r8, r9, [r4, #8]
    3340:	8a26      	ldrh	r6, [r4, #16]
    3342:	f7fd fad9 	bl	8f8 <ZPS_pvAplZdoGetAplHandle>
    3346:	f014 fe2b 	bl	17fa0 <zps_pvAplZdoGetNwkHandle>
    334a:	464b      	mov	r3, r9
    334c:	4642      	mov	r2, r8
    334e:	4631      	mov	r1, r6
    3350:	9500      	str	r5, [sp, #0]
    3352:	f01d fc67 	bl	20c24 <ZPS_bNwkNibAddrMapAddEntry>
    3356:	4621      	mov	r1, r4
    3358:	2218      	movs	r2, #24
    335a:	2001      	movs	r0, #1
    335c:	70a0      	strb	r0, [r4, #2]
    335e:	f00f ffa9 	bl	132b4 <PDM_eSaveRecordData>
    3362:	f7fd fffd 	bl	1360 <app_u8GetDeviceEndpoint>
    3366:	8a23      	ldrh	r3, [r4, #16]
    3368:	9300      	str	r3, [sp, #0]
    336a:	e9d4 2302 	ldrd	r2, r3, [r4, #8]
    336e:	f006 fccb 	bl	9d08 <eOTA_SetServerAddress>
    3372:	4b13      	ldr	r3, [pc, #76]	; (33c0 <vHandleIeeeAddressRsp+0xe0>)
    3374:	2205      	movs	r2, #5
    3376:	701a      	strb	r2, [r3, #0]
    3378:	4b12      	ldr	r3, [pc, #72]	; (33c4 <vHandleIeeeAddressRsp+0xe4>)
    337a:	f640 31b8 	movw	r1, #3000	; 0xbb8
    337e:	f44f 60fa 	mov.w	r0, #2000	; 0x7d0
    3382:	601d      	str	r5, [r3, #0]
    3384:	f003 fede 	bl	7144 <RND_u32GetRand>
    3388:	4b0f      	ldr	r3, [pc, #60]	; (33c8 <vHandleIeeeAddressRsp+0xe8>)
    338a:	4601      	mov	r1, r0
    338c:	6018      	str	r0, [r3, #0]
    338e:	480f      	ldr	r0, [pc, #60]	; (33cc <vHandleIeeeAddressRsp+0xec>)
    3390:	f7ff fa2e 	bl	27f0 <DbgConsole_Printf>
    3394:	4b0e      	ldr	r3, [pc, #56]	; (33d0 <vHandleIeeeAddressRsp+0xf0>)
    3396:	480f      	ldr	r0, [pc, #60]	; (33d4 <vHandleIeeeAddressRsp+0xf4>)
    3398:	601d      	str	r5, [r3, #0]
    339a:	f7ff fa29 	bl	27f0 <DbgConsole_Printf>
    339e:	b008      	add	sp, #32
    33a0:	e8bd 8370 	ldmia.w	sp!, {r4, r5, r6, r8, r9, pc}
    33a4:	480c      	ldr	r0, [pc, #48]	; (33d8 <vHandleIeeeAddressRsp+0xf8>)
    33a6:	e7f8      	b.n	339a <vHandleIeeeAddressRsp+0xba>
    33a8:	480c      	ldr	r0, [pc, #48]	; (33dc <vHandleIeeeAddressRsp+0xfc>)
    33aa:	e7f6      	b.n	339a <vHandleIeeeAddressRsp+0xba>
    33ac:	0002c826 	.word	0x0002c826
    33b0:	0002e5f5 	.word	0x0002e5f5
    33b4:	04014598 	.word	0x04014598
    33b8:	0002c83c 	.word	0x0002c83c
    33bc:	0002c863 	.word	0x0002c863
    33c0:	04011f8c 	.word	0x04011f8c
    33c4:	040146c8 	.word	0x040146c8
    33c8:	040146c4 	.word	0x040146c4
    33cc:	0002c893 	.word	0x0002c893
    33d0:	040146c0 	.word	0x040146c0
    33d4:	0002c8c8 	.word	0x0002c8c8
    33d8:	0002c8db 	.word	0x0002c8db
    33dc:	0002c8e6 	.word	0x0002c8e6

000033e0 <vOTAResetPersist>:
    33e0:	b530      	push	{r4, r5, lr}
    33e2:	4c0c      	ldr	r4, [pc, #48]	; (3414 <vOTAResetPersist+0x34>)
    33e4:	b0ab      	sub	sp, #172	; 0xac
    33e6:	25a8      	movs	r5, #168	; 0xa8
    33e8:	4668      	mov	r0, sp
    33ea:	f7fe fa29 	bl	1840 <sGetOTACallBackPersistdata>
    33ee:	462a      	mov	r2, r5
    33f0:	4669      	mov	r1, sp
    33f2:	4620      	mov	r0, r4
    33f4:	f026 fefe 	bl	2a1f4 <memcpy>
    33f8:	462a      	mov	r2, r5
    33fa:	2100      	movs	r1, #0
    33fc:	4620      	mov	r0, r4
    33fe:	f026 ff93 	bl	2a328 <memset>
    3402:	462a      	mov	r2, r5
    3404:	4621      	mov	r1, r4
    3406:	2032      	movs	r0, #50	; 0x32
    3408:	b02b      	add	sp, #172	; 0xac
    340a:	e8bd 4030 	ldmia.w	sp!, {r4, r5, lr}
    340e:	f00f bf51 	b.w	132b4 <PDM_eSaveRecordData>
    3412:	bf00      	nop
    3414:	04014618 	.word	0x04014618

00003418 <vHandleAppOtaClient>:
    3418:	e92d 43f0 	stmdb	sp!, {r4, r5, r6, r7, r8, r9, lr}
    341c:	7803      	ldrb	r3, [r0, #0]
    341e:	2b02      	cmp	r3, #2
    3420:	b0b7      	sub	sp, #220	; 0xdc
    3422:	4604      	mov	r4, r0
    3424:	d129      	bne.n	347a <vHandleAppOtaClient+0x62>
    3426:	48bb      	ldr	r0, [pc, #748]	; (3714 <vHandleAppOtaClient+0x2fc>)
    3428:	4fbb      	ldr	r7, [pc, #748]	; (3718 <vHandleAppOtaClient+0x300>)
    342a:	4ebc      	ldr	r6, [pc, #752]	; (371c <vHandleAppOtaClient+0x304>)
    342c:	4dbc      	ldr	r5, [pc, #752]	; (3720 <vHandleAppOtaClient+0x308>)
    342e:	f7ff f9df 	bl	27f0 <DbgConsole_Printf>
    3432:	4bbc      	ldr	r3, [pc, #752]	; (3724 <vHandleAppOtaClient+0x30c>)
    3434:	f04f 0900 	mov.w	r9, #0
    3438:	f8c3 9000 	str.w	r9, [r3]
    343c:	4bba      	ldr	r3, [pc, #744]	; (3728 <vHandleAppOtaClient+0x310>)
    343e:	789b      	ldrb	r3, [r3, #2]
    3440:	2b00      	cmp	r3, #0
    3442:	f000 81e3 	beq.w	380c <vHandleAppOtaClient+0x3f4>
    3446:	f894 810c 	ldrb.w	r8, [r4, #268]	; 0x10c
    344a:	f1b8 0f00 	cmp.w	r8, #0
    344e:	f000 81b9 	beq.w	37c4 <vHandleAppOtaClient+0x3ac>
    3452:	4641      	mov	r1, r8
    3454:	48b5      	ldr	r0, [pc, #724]	; (372c <vHandleAppOtaClient+0x314>)
    3456:	f7ff f9cb 	bl	27f0 <DbgConsole_Printf>
    345a:	49b5      	ldr	r1, [pc, #724]	; (3730 <vHandleAppOtaClient+0x318>)
    345c:	f887 9000 	strb.w	r9, [r7]
    3460:	f64a 70c8 	movw	r0, #45000	; 0xafc8
    3464:	f8c6 9000 	str.w	r9, [r6]
    3468:	f003 fe6c 	bl	7144 <RND_u32GetRand>
    346c:	f894 210c 	ldrb.w	r2, [r4, #268]	; 0x10c
    3470:	6028      	str	r0, [r5, #0]
    3472:	4601      	mov	r1, r0
    3474:	48af      	ldr	r0, [pc, #700]	; (3734 <vHandleAppOtaClient+0x31c>)
    3476:	f7ff f9bb 	bl	27f0 <DbgConsole_Printf>
    347a:	7823      	ldrb	r3, [r4, #0]
    347c:	2b1f      	cmp	r3, #31
    347e:	d127      	bne.n	34d0 <vHandleAppOtaClient+0xb8>
    3480:	48ad      	ldr	r0, [pc, #692]	; (3738 <vHandleAppOtaClient+0x320>)
    3482:	4fa5      	ldr	r7, [pc, #660]	; (3718 <vHandleAppOtaClient+0x300>)
    3484:	4ea5      	ldr	r6, [pc, #660]	; (371c <vHandleAppOtaClient+0x304>)
    3486:	4da6      	ldr	r5, [pc, #664]	; (3720 <vHandleAppOtaClient+0x308>)
    3488:	f7ff f9b2 	bl	27f0 <DbgConsole_Printf>
    348c:	f8d4 1104 	ldr.w	r1, [r4, #260]	; 0x104
    3490:	48aa      	ldr	r0, [pc, #680]	; (373c <vHandleAppOtaClient+0x324>)
    3492:	f7ff f9ad 	bl	27f0 <DbgConsole_Printf>
    3496:	f8d4 1100 	ldr.w	r1, [r4, #256]	; 0x100
    349a:	48a9      	ldr	r0, [pc, #676]	; (3740 <vHandleAppOtaClient+0x328>)
    349c:	f7ff f9a8 	bl	27f0 <DbgConsole_Printf>
    34a0:	e9d4 3240 	ldrd	r3, r2, [r4, #256]	; 0x100
    34a4:	429a      	cmp	r2, r3
    34a6:	f040 81c3 	bne.w	3830 <vHandleAppOtaClient+0x418>
    34aa:	2301      	movs	r3, #1
    34ac:	f884 3108 	strb.w	r3, [r4, #264]	; 0x108
    34b0:	48a4      	ldr	r0, [pc, #656]	; (3744 <vHandleAppOtaClient+0x32c>)
    34b2:	f7ff f99d 	bl	27f0 <DbgConsole_Printf>
    34b6:	2300      	movs	r3, #0
    34b8:	499d      	ldr	r1, [pc, #628]	; (3730 <vHandleAppOtaClient+0x318>)
    34ba:	703b      	strb	r3, [r7, #0]
    34bc:	f64a 70c8 	movw	r0, #45000	; 0xafc8
    34c0:	6033      	str	r3, [r6, #0]
    34c2:	f003 fe3f 	bl	7144 <RND_u32GetRand>
    34c6:	4601      	mov	r1, r0
    34c8:	6028      	str	r0, [r5, #0]
    34ca:	489f      	ldr	r0, [pc, #636]	; (3748 <vHandleAppOtaClient+0x330>)
    34cc:	f7ff f990 	bl	27f0 <DbgConsole_Printf>
    34d0:	7823      	ldrb	r3, [r4, #0]
    34d2:	2b25      	cmp	r3, #37	; 0x25
    34d4:	d137      	bne.n	3546 <vHandleAppOtaClient+0x12e>
    34d6:	f894 1100 	ldrb.w	r1, [r4, #256]	; 0x100
    34da:	489c      	ldr	r0, [pc, #624]	; (374c <vHandleAppOtaClient+0x334>)
    34dc:	4e9c      	ldr	r6, [pc, #624]	; (3750 <vHandleAppOtaClient+0x338>)
    34de:	f7ff f987 	bl	27f0 <DbgConsole_Printf>
    34e2:	489c      	ldr	r0, [pc, #624]	; (3754 <vHandleAppOtaClient+0x33c>)
    34e4:	f7ff f984 	bl	27f0 <DbgConsole_Printf>
    34e8:	2500      	movs	r5, #0
    34ea:	f8d4 3104 	ldr.w	r3, [r4, #260]	; 0x104
    34ee:	4630      	mov	r0, r6
    34f0:	5d59      	ldrb	r1, [r3, r5]
    34f2:	3501      	adds	r5, #1
    34f4:	f7ff f97c 	bl	27f0 <DbgConsole_Printf>
    34f8:	2d20      	cmp	r5, #32
    34fa:	d1f6      	bne.n	34ea <vHandleAppOtaClient+0xd2>
    34fc:	4896      	ldr	r0, [pc, #600]	; (3758 <vHandleAppOtaClient+0x340>)
    34fe:	4e94      	ldr	r6, [pc, #592]	; (3750 <vHandleAppOtaClient+0x338>)
    3500:	f7ff f976 	bl	27f0 <DbgConsole_Printf>
    3504:	2500      	movs	r5, #0
    3506:	f8d4 3108 	ldr.w	r3, [r4, #264]	; 0x108
    350a:	4630      	mov	r0, r6
    350c:	5d59      	ldrb	r1, [r3, r5]
    350e:	3501      	adds	r5, #1
    3510:	f7ff f96e 	bl	27f0 <DbgConsole_Printf>
    3514:	2d20      	cmp	r5, #32
    3516:	d1f6      	bne.n	3506 <vHandleAppOtaClient+0xee>
    3518:	f894 3100 	ldrb.w	r3, [r4, #256]	; 0x100
    351c:	2b01      	cmp	r3, #1
    351e:	d112      	bne.n	3546 <vHandleAppOtaClient+0x12e>
    3520:	488e      	ldr	r0, [pc, #568]	; (375c <vHandleAppOtaClient+0x344>)
    3522:	f7ff f965 	bl	27f0 <DbgConsole_Printf>
    3526:	4a7c      	ldr	r2, [pc, #496]	; (3718 <vHandleAppOtaClient+0x300>)
    3528:	4981      	ldr	r1, [pc, #516]	; (3730 <vHandleAppOtaClient+0x318>)
    352a:	2300      	movs	r3, #0
    352c:	7013      	strb	r3, [r2, #0]
    352e:	4a7b      	ldr	r2, [pc, #492]	; (371c <vHandleAppOtaClient+0x304>)
    3530:	f64a 70c8 	movw	r0, #45000	; 0xafc8
    3534:	6013      	str	r3, [r2, #0]
    3536:	f003 fe05 	bl	7144 <RND_u32GetRand>
    353a:	4b79      	ldr	r3, [pc, #484]	; (3720 <vHandleAppOtaClient+0x308>)
    353c:	4601      	mov	r1, r0
    353e:	6018      	str	r0, [r3, #0]
    3540:	4887      	ldr	r0, [pc, #540]	; (3760 <vHandleAppOtaClient+0x348>)
    3542:	f7ff f955 	bl	27f0 <DbgConsole_Printf>
    3546:	7823      	ldrb	r3, [r4, #0]
    3548:	2b07      	cmp	r3, #7
    354a:	d152      	bne.n	35f2 <vHandleAppOtaClient+0x1da>
    354c:	4885      	ldr	r0, [pc, #532]	; (3764 <vHandleAppOtaClient+0x34c>)
    354e:	f7ff f94f 	bl	27f0 <DbgConsole_Printf>
    3552:	f8d4 1100 	ldr.w	r1, [r4, #256]	; 0x100
    3556:	4884      	ldr	r0, [pc, #528]	; (3768 <vHandleAppOtaClient+0x350>)
    3558:	f7ff f94a 	bl	27f0 <DbgConsole_Printf>
    355c:	f8d4 1104 	ldr.w	r1, [r4, #260]	; 0x104
    3560:	4882      	ldr	r0, [pc, #520]	; (376c <vHandleAppOtaClient+0x354>)
    3562:	f7ff f945 	bl	27f0 <DbgConsole_Printf>
    3566:	f8d4 1108 	ldr.w	r1, [r4, #264]	; 0x108
    356a:	4881      	ldr	r0, [pc, #516]	; (3770 <vHandleAppOtaClient+0x358>)
    356c:	f7ff f940 	bl	27f0 <DbgConsole_Printf>
    3570:	f8b4 110c 	ldrh.w	r1, [r4, #268]	; 0x10c
    3574:	487f      	ldr	r0, [pc, #508]	; (3774 <vHandleAppOtaClient+0x35c>)
    3576:	f7ff f93b 	bl	27f0 <DbgConsole_Printf>
    357a:	f8b4 110e 	ldrh.w	r1, [r4, #270]	; 0x10e
    357e:	487e      	ldr	r0, [pc, #504]	; (3778 <vHandleAppOtaClient+0x360>)
    3580:	f7ff f936 	bl	27f0 <DbgConsole_Printf>
    3584:	f8d4 3100 	ldr.w	r3, [r4, #256]	; 0x100
    3588:	1c5a      	adds	r2, r3, #1
    358a:	d00a      	beq.n	35a2 <vHandleAppOtaClient+0x18a>
    358c:	f8d4 2104 	ldr.w	r2, [r4, #260]	; 0x104
    3590:	4293      	cmp	r3, r2
    3592:	bf8c      	ite	hi
    3594:	1a9b      	subhi	r3, r3, r2
    3596:	2305      	movls	r3, #5
    3598:	f8c4 3100 	str.w	r3, [r4, #256]	; 0x100
    359c:	2300      	movs	r3, #0
    359e:	f8c4 3104 	str.w	r3, [r4, #260]	; 0x104
    35a2:	4b76      	ldr	r3, [pc, #472]	; (377c <vHandleAppOtaClient+0x364>)
    35a4:	2201      	movs	r2, #1
    35a6:	701a      	strb	r2, [r3, #0]
    35a8:	4b5b      	ldr	r3, [pc, #364]	; (3718 <vHandleAppOtaClient+0x300>)
    35aa:	2207      	movs	r2, #7
    35ac:	701a      	strb	r2, [r3, #0]
    35ae:	4b5b      	ldr	r3, [pc, #364]	; (371c <vHandleAppOtaClient+0x304>)
    35b0:	2200      	movs	r2, #0
    35b2:	601a      	str	r2, [r3, #0]
    35b4:	f8d4 3100 	ldr.w	r3, [r4, #256]	; 0x100
    35b8:	f44f 757a 	mov.w	r5, #1000	; 0x3e8
    35bc:	f640 31b8 	movw	r1, #3000	; 0xbb8
    35c0:	f44f 60fa 	mov.w	r0, #2000	; 0x7d0
    35c4:	fb05 f603 	mul.w	r6, r5, r3
    35c8:	f003 fdbc 	bl	7144 <RND_u32GetRand>
    35cc:	4286      	cmp	r6, r0
    35ce:	4e54      	ldr	r6, [pc, #336]	; (3720 <vHandleAppOtaClient+0x308>)
    35d0:	f240 813c 	bls.w	384c <vHandleAppOtaClient+0x434>
    35d4:	f8d4 0100 	ldr.w	r0, [r4, #256]	; 0x100
    35d8:	f640 31b8 	movw	r1, #3000	; 0xbb8
    35dc:	4345      	muls	r5, r0
    35de:	f44f 60fa 	mov.w	r0, #2000	; 0x7d0
    35e2:	f003 fdaf 	bl	7144 <RND_u32GetRand>
    35e6:	4405      	add	r5, r0
    35e8:	6035      	str	r5, [r6, #0]
    35ea:	6831      	ldr	r1, [r6, #0]
    35ec:	4864      	ldr	r0, [pc, #400]	; (3780 <vHandleAppOtaClient+0x368>)
    35ee:	f7ff f8ff 	bl	27f0 <DbgConsole_Printf>
    35f2:	7823      	ldrb	r3, [r4, #0]
    35f4:	2b0b      	cmp	r3, #11
    35f6:	d10f      	bne.n	3618 <vHandleAppOtaClient+0x200>
    35f8:	4862      	ldr	r0, [pc, #392]	; (3784 <vHandleAppOtaClient+0x36c>)
    35fa:	f7ff f8f9 	bl	27f0 <DbgConsole_Printf>
    35fe:	a802      	add	r0, sp, #8
    3600:	f7fe f91e 	bl	1840 <sGetOTACallBackPersistdata>
    3604:	22a8      	movs	r2, #168	; 0xa8
    3606:	a902      	add	r1, sp, #8
    3608:	485f      	ldr	r0, [pc, #380]	; (3788 <vHandleAppOtaClient+0x370>)
    360a:	f026 fdf3 	bl	2a1f4 <memcpy>
    360e:	495e      	ldr	r1, [pc, #376]	; (3788 <vHandleAppOtaClient+0x370>)
    3610:	22a8      	movs	r2, #168	; 0xa8
    3612:	2032      	movs	r0, #50	; 0x32
    3614:	f00f fe4e 	bl	132b4 <PDM_eSaveRecordData>
    3618:	7823      	ldrb	r3, [r4, #0]
    361a:	2b20      	cmp	r3, #32
    361c:	d102      	bne.n	3624 <vHandleAppOtaClient+0x20c>
    361e:	485b      	ldr	r0, [pc, #364]	; (378c <vHandleAppOtaClient+0x374>)
    3620:	f7ff f8e6 	bl	27f0 <DbgConsole_Printf>
    3624:	7823      	ldrb	r3, [r4, #0]
    3626:	2b0c      	cmp	r3, #12
    3628:	d116      	bne.n	3658 <vHandleAppOtaClient+0x240>
    362a:	4859      	ldr	r0, [pc, #356]	; (3790 <vHandleAppOtaClient+0x378>)
    362c:	4d3c      	ldr	r5, [pc, #240]	; (3720 <vHandleAppOtaClient+0x308>)
    362e:	f7ff f8df 	bl	27f0 <DbgConsole_Printf>
    3632:	4a39      	ldr	r2, [pc, #228]	; (3718 <vHandleAppOtaClient+0x300>)
    3634:	493e      	ldr	r1, [pc, #248]	; (3730 <vHandleAppOtaClient+0x318>)
    3636:	2300      	movs	r3, #0
    3638:	7013      	strb	r3, [r2, #0]
    363a:	4a38      	ldr	r2, [pc, #224]	; (371c <vHandleAppOtaClient+0x304>)
    363c:	f64a 70c8 	movw	r0, #45000	; 0xafc8
    3640:	6013      	str	r3, [r2, #0]
    3642:	f003 fd7f 	bl	7144 <RND_u32GetRand>
    3646:	6028      	str	r0, [r5, #0]
    3648:	f7ff feca 	bl	33e0 <vOTAResetPersist>
    364c:	f005 fc82 	bl	8f54 <EEPROM_Init>
    3650:	6829      	ldr	r1, [r5, #0]
    3652:	4850      	ldr	r0, [pc, #320]	; (3794 <vHandleAppOtaClient+0x37c>)
    3654:	f7ff f8cc 	bl	27f0 <DbgConsole_Printf>
    3658:	7823      	ldrb	r3, [r4, #0]
    365a:	2b0e      	cmp	r3, #14
    365c:	d102      	bne.n	3664 <vHandleAppOtaClient+0x24c>
    365e:	484e      	ldr	r0, [pc, #312]	; (3798 <vHandleAppOtaClient+0x380>)
    3660:	f7ff f8c6 	bl	27f0 <DbgConsole_Printf>
    3664:	7823      	ldrb	r3, [r4, #0]
    3666:	2b07      	cmp	r3, #7
    3668:	d102      	bne.n	3670 <vHandleAppOtaClient+0x258>
    366a:	484c      	ldr	r0, [pc, #304]	; (379c <vHandleAppOtaClient+0x384>)
    366c:	f7ff f8c0 	bl	27f0 <DbgConsole_Printf>
    3670:	7823      	ldrb	r3, [r4, #0]
    3672:	2b05      	cmp	r3, #5
    3674:	f040 8136 	bne.w	38e4 <vHandleAppOtaClient+0x4cc>
    3678:	4b27      	ldr	r3, [pc, #156]	; (3718 <vHandleAppOtaClient+0x300>)
    367a:	4d49      	ldr	r5, [pc, #292]	; (37a0 <vHandleAppOtaClient+0x388>)
    367c:	2207      	movs	r2, #7
    367e:	701a      	strb	r2, [r3, #0]
    3680:	4b26      	ldr	r3, [pc, #152]	; (371c <vHandleAppOtaClient+0x304>)
    3682:	2200      	movs	r2, #0
    3684:	f640 31b8 	movw	r1, #3000	; 0xbb8
    3688:	f44f 60fa 	mov.w	r0, #2000	; 0x7d0
    368c:	601a      	str	r2, [r3, #0]
    368e:	f003 fd59 	bl	7144 <RND_u32GetRand>
    3692:	4b23      	ldr	r3, [pc, #140]	; (3720 <vHandleAppOtaClient+0x308>)
    3694:	4601      	mov	r1, r0
    3696:	6018      	str	r0, [r3, #0]
    3698:	4842      	ldr	r0, [pc, #264]	; (37a4 <vHandleAppOtaClient+0x38c>)
    369a:	f7ff f8a9 	bl	27f0 <DbgConsole_Printf>
    369e:	f8d4 2108 	ldr.w	r2, [r4, #264]	; 0x108
    36a2:	f894 1100 	ldrb.w	r1, [r4, #256]	; 0x100
    36a6:	4840      	ldr	r0, [pc, #256]	; (37a8 <vHandleAppOtaClient+0x390>)
    36a8:	f7ff f8a2 	bl	27f0 <DbgConsole_Printf>
    36ac:	f894 2100 	ldrb.w	r2, [r4, #256]	; 0x100
    36b0:	782b      	ldrb	r3, [r5, #0]
    36b2:	ea52 0603 	orrs.w	r6, r2, r3
    36b6:	f040 8115 	bne.w	38e4 <vHandleAppOtaClient+0x4cc>
    36ba:	f8d4 2108 	ldr.w	r2, [r4, #264]	; 0x108
    36be:	f240 434c 	movw	r3, #1100	; 0x44c
    36c2:	429a      	cmp	r2, r3
    36c4:	f240 810e 	bls.w	38e4 <vHandleAppOtaClient+0x4cc>
    36c8:	4a38      	ldr	r2, [pc, #224]	; (37ac <vHandleAppOtaClient+0x394>)
    36ca:	4839      	ldr	r0, [pc, #228]	; (37b0 <vHandleAppOtaClient+0x398>)
    36cc:	6911      	ldr	r1, [r2, #16]
    36ce:	4a39      	ldr	r2, [pc, #228]	; (37b4 <vHandleAppOtaClient+0x39c>)
    36d0:	2301      	movs	r3, #1
    36d2:	702b      	strb	r3, [r5, #0]
    36d4:	f894 30e1 	ldrb.w	r3, [r4, #225]	; 0xe1
    36d8:	434b      	muls	r3, r1
    36da:	4937      	ldr	r1, [pc, #220]	; (37b8 <vHandleAppOtaClient+0x3a0>)
    36dc:	1a89      	subs	r1, r1, r2
    36de:	eb01 1183 	add.w	r1, r1, r3, lsl #6
    36e2:	912d      	str	r1, [sp, #180]	; 0xb4
    36e4:	f7ff f884 	bl	27f0 <DbgConsole_Printf>
    36e8:	aa2d      	add	r2, sp, #180	; 0xb4
    36ea:	2110      	movs	r1, #16
    36ec:	a82e      	add	r0, sp, #184	; 0xb8
    36ee:	f003 fa9f 	bl	6c30 <OTA_PullImageChunk>
    36f2:	4a32      	ldr	r2, [pc, #200]	; (37bc <vHandleAppOtaClient+0x3a4>)
    36f4:	962c      	str	r6, [sp, #176]	; 0xb0
    36f6:	9b2c      	ldr	r3, [sp, #176]	; 0xb0
    36f8:	2b0f      	cmp	r3, #15
    36fa:	f340 80af 	ble.w	385c <vHandleAppOtaClient+0x444>
    36fe:	2300      	movs	r3, #0
    3700:	4e2f      	ldr	r6, [pc, #188]	; (37c0 <vHandleAppOtaClient+0x3a8>)
    3702:	932c      	str	r3, [sp, #176]	; 0xb0
    3704:	9b2c      	ldr	r3, [sp, #176]	; 0xb0
    3706:	2b0f      	cmp	r3, #15
    3708:	f340 80b3 	ble.w	3872 <vHandleAppOtaClient+0x45a>
    370c:	2300      	movs	r3, #0
    370e:	f884 3100 	strb.w	r3, [r4, #256]	; 0x100
    3712:	e0e7      	b.n	38e4 <vHandleAppOtaClient+0x4cc>
    3714:	0002c8f7 	.word	0x0002c8f7
    3718:	04011f8c 	.word	0x04011f8c
    371c:	040146c8 	.word	0x040146c8
    3720:	040146c4 	.word	0x040146c4
    3724:	040146c0 	.word	0x040146c0
    3728:	04014598 	.word	0x04014598
    372c:	0002c916 	.word	0x0002c916
    3730:	000124f8 	.word	0x000124f8
    3734:	0002c92b 	.word	0x0002c92b
    3738:	0002ca69 	.word	0x0002ca69
    373c:	0002ca80 	.word	0x0002ca80
    3740:	0002ca96 	.word	0x0002ca96
    3744:	0002caad 	.word	0x0002caad
    3748:	0002cabd 	.word	0x0002cabd
    374c:	0002cb3a 	.word	0x0002cb3a
    3750:	0002cb5f 	.word	0x0002cb5f
    3754:	0002cb47 	.word	0x0002cb47
    3758:	0002cb63 	.word	0x0002cb63
    375c:	0002cb7e 	.word	0x0002cb7e
    3760:	0002cb8a 	.word	0x0002cb8a
    3764:	0002cbc6 	.word	0x0002cbc6
    3768:	0002cbe0 	.word	0x0002cbe0
    376c:	0002cbf7 	.word	0x0002cbf7
    3770:	0002cc0e 	.word	0x0002cc0e
    3774:	0002cc25 	.word	0x0002cc25
    3778:	0002cc3c 	.word	0x0002cc3c
    377c:	04014611 	.word	0x04014611
    3780:	0002cc53 	.word	0x0002cc53
    3784:	0002cc8d 	.word	0x0002cc8d
    3788:	04014618 	.word	0x04014618
    378c:	0002cc9c 	.word	0x0002cc9c
    3790:	0002ccb5 	.word	0x0002ccb5
    3794:	0002ccd1 	.word	0x0002ccd1
    3798:	0002cd05 	.word	0x0002cd05
    379c:	0002cd33 	.word	0x0002cd33
    37a0:	04014610 	.word	0x04014610
    37a4:	0002cd5c 	.word	0x0002cd5c
    37a8:	0002cd96 	.word	0x0002cd96
    37ac:	040157e0 	.word	0x040157e0
    37b0:	0002cdbf 	.word	0x0002cdbf
    37b4:	00000000 	.word	0x00000000
    37b8:	000001b0 	.word	0x000001b0
    37bc:	000001b0 	.word	0x000001b0
    37c0:	0002cdeb 	.word	0x0002cdeb
    37c4:	f8d4 1100 	ldr.w	r1, [r4, #256]	; 0x100
    37c8:	484d      	ldr	r0, [pc, #308]	; (3900 <vHandleAppOtaClient+0x4e8>)
    37ca:	f7ff f811 	bl	27f0 <DbgConsole_Printf>
    37ce:	f8d4 1104 	ldr.w	r1, [r4, #260]	; 0x104
    37d2:	484c      	ldr	r0, [pc, #304]	; (3904 <vHandleAppOtaClient+0x4ec>)
    37d4:	f7ff f80c 	bl	27f0 <DbgConsole_Printf>
    37d8:	f8b4 1108 	ldrh.w	r1, [r4, #264]	; 0x108
    37dc:	484a      	ldr	r0, [pc, #296]	; (3908 <vHandleAppOtaClient+0x4f0>)
    37de:	f7ff f807 	bl	27f0 <DbgConsole_Printf>
    37e2:	f8b4 110a 	ldrh.w	r1, [r4, #266]	; 0x10a
    37e6:	4849      	ldr	r0, [pc, #292]	; (390c <vHandleAppOtaClient+0x4f4>)
    37e8:	f7ff f802 	bl	27f0 <DbgConsole_Printf>
    37ec:	2305      	movs	r3, #5
    37ee:	f640 31b8 	movw	r1, #3000	; 0xbb8
    37f2:	f44f 60fa 	mov.w	r0, #2000	; 0x7d0
    37f6:	703b      	strb	r3, [r7, #0]
    37f8:	f8c6 8000 	str.w	r8, [r6]
    37fc:	f003 fca2 	bl	7144 <RND_u32GetRand>
    3800:	f894 210c 	ldrb.w	r2, [r4, #268]	; 0x10c
    3804:	6028      	str	r0, [r5, #0]
    3806:	4601      	mov	r1, r0
    3808:	4841      	ldr	r0, [pc, #260]	; (3910 <vHandleAppOtaClient+0x4f8>)
    380a:	e634      	b.n	3476 <vHandleAppOtaClient+0x5e>
    380c:	2201      	movs	r2, #1
    380e:	f640 31b8 	movw	r1, #3000	; 0xbb8
    3812:	f44f 60fa 	mov.w	r0, #2000	; 0x7d0
    3816:	703a      	strb	r2, [r7, #0]
    3818:	6033      	str	r3, [r6, #0]
    381a:	f003 fc93 	bl	7144 <RND_u32GetRand>
    381e:	6028      	str	r0, [r5, #0]
    3820:	483c      	ldr	r0, [pc, #240]	; (3914 <vHandleAppOtaClient+0x4fc>)
    3822:	f7fe ffe5 	bl	27f0 <DbgConsole_Printf>
    3826:	6829      	ldr	r1, [r5, #0]
    3828:	483b      	ldr	r0, [pc, #236]	; (3918 <vHandleAppOtaClient+0x500>)
    382a:	f7fe ffe1 	bl	27f0 <DbgConsole_Printf>
    382e:	e624      	b.n	347a <vHandleAppOtaClient+0x62>
    3830:	2307      	movs	r3, #7
    3832:	703b      	strb	r3, [r7, #0]
    3834:	f640 31b8 	movw	r1, #3000	; 0xbb8
    3838:	2300      	movs	r3, #0
    383a:	f44f 60fa 	mov.w	r0, #2000	; 0x7d0
    383e:	6033      	str	r3, [r6, #0]
    3840:	f003 fc80 	bl	7144 <RND_u32GetRand>
    3844:	4601      	mov	r1, r0
    3846:	6028      	str	r0, [r5, #0]
    3848:	4834      	ldr	r0, [pc, #208]	; (391c <vHandleAppOtaClient+0x504>)
    384a:	e63f      	b.n	34cc <vHandleAppOtaClient+0xb4>
    384c:	f640 31b8 	movw	r1, #3000	; 0xbb8
    3850:	f44f 60fa 	mov.w	r0, #2000	; 0x7d0
    3854:	f003 fc76 	bl	7144 <RND_u32GetRand>
    3858:	6030      	str	r0, [r6, #0]
    385a:	e6c6      	b.n	35ea <vHandleAppOtaClient+0x1d2>
    385c:	992c      	ldr	r1, [sp, #176]	; 0xb0
    385e:	9b2c      	ldr	r3, [sp, #176]	; 0xb0
    3860:	5c51      	ldrb	r1, [r2, r1]
    3862:	a836      	add	r0, sp, #216	; 0xd8
    3864:	4403      	add	r3, r0
    3866:	f803 1c10 	strb.w	r1, [r3, #-16]
    386a:	9b2c      	ldr	r3, [sp, #176]	; 0xb0
    386c:	3301      	adds	r3, #1
    386e:	932c      	str	r3, [sp, #176]	; 0xb0
    3870:	e741      	b.n	36f6 <vHandleAppOtaClient+0x2de>
    3872:	992c      	ldr	r1, [sp, #176]	; 0xb0
    3874:	9a2c      	ldr	r2, [sp, #176]	; 0xb0
    3876:	9b2c      	ldr	r3, [sp, #176]	; 0xb0
    3878:	982c      	ldr	r0, [sp, #176]	; 0xb0
    387a:	af36      	add	r7, sp, #216	; 0xd8
    387c:	4438      	add	r0, r7
    387e:	443a      	add	r2, r7
    3880:	f810 0c20 	ldrb.w	r0, [r0, #-32]
    3884:	9000      	str	r0, [sp, #0]
    3886:	f812 2c10 	ldrb.w	r2, [r2, #-16]
    388a:	4630      	mov	r0, r6
    388c:	f7fe ffb0 	bl	27f0 <DbgConsole_Printf>
    3890:	9a2c      	ldr	r2, [sp, #176]	; 0xb0
    3892:	9b2c      	ldr	r3, [sp, #176]	; 0xb0
    3894:	a936      	add	r1, sp, #216	; 0xd8
    3896:	440a      	add	r2, r1
    3898:	440b      	add	r3, r1
    389a:	f812 2c10 	ldrb.w	r2, [r2, #-16]
    389e:	f813 3c20 	ldrb.w	r3, [r3, #-32]
    38a2:	429a      	cmp	r2, r3
    38a4:	d027      	beq.n	38f6 <vHandleAppOtaClient+0x4de>
    38a6:	481e      	ldr	r0, [pc, #120]	; (3920 <vHandleAppOtaClient+0x508>)
    38a8:	f7fe ffa2 	bl	27f0 <DbgConsole_Printf>
    38ac:	2300      	movs	r3, #0
    38ae:	702b      	strb	r3, [r5, #0]
    38b0:	2395      	movs	r3, #149	; 0x95
    38b2:	f8d4 210c 	ldr.w	r2, [r4, #268]	; 0x10c
    38b6:	f884 3100 	strb.w	r3, [r4, #256]	; 0x100
    38ba:	f88d 30c0 	strb.w	r3, [sp, #192]	; 0xc0
    38be:	2307      	movs	r3, #7
    38c0:	922e      	str	r2, [sp, #184]	; 0xb8
    38c2:	f88d 30c8 	strb.w	r3, [sp, #200]	; 0xc8
    38c6:	f8d4 2110 	ldr.w	r2, [r4, #272]	; 0x110
    38ca:	f8b4 304c 	ldrh.w	r3, [r4, #76]	; 0x4c
    38ce:	922f      	str	r2, [sp, #188]	; 0xbc
    38d0:	f8ad 30d0 	strh.w	r3, [sp, #208]	; 0xd0
    38d4:	f7fd fd44 	bl	1360 <app_u8GetDeviceEndpoint>
    38d8:	f894 10a1 	ldrb.w	r1, [r4, #161]	; 0xa1
    38dc:	ab2e      	add	r3, sp, #184	; 0xb8
    38de:	aa32      	add	r2, sp, #200	; 0xc8
    38e0:	f008 f8e2 	bl	baa8 <eOTA_ClientUpgradeEndRequest>
    38e4:	7823      	ldrb	r3, [r4, #0]
    38e6:	2b0c      	cmp	r3, #12
    38e8:	d102      	bne.n	38f0 <vHandleAppOtaClient+0x4d8>
    38ea:	480e      	ldr	r0, [pc, #56]	; (3924 <vHandleAppOtaClient+0x50c>)
    38ec:	f7fe ff80 	bl	27f0 <DbgConsole_Printf>
    38f0:	b037      	add	sp, #220	; 0xdc
    38f2:	e8bd 83f0 	ldmia.w	sp!, {r4, r5, r6, r7, r8, r9, pc}
    38f6:	9b2c      	ldr	r3, [sp, #176]	; 0xb0
    38f8:	3301      	adds	r3, #1
    38fa:	932c      	str	r3, [sp, #176]	; 0xb0
    38fc:	e702      	b.n	3704 <vHandleAppOtaClient+0x2ec>
    38fe:	bf00      	nop
    3900:	0002c969 	.word	0x0002c969
    3904:	0002c97c 	.word	0x0002c97c
    3908:	0002c98f 	.word	0x0002c98f
    390c:	0002c9aa 	.word	0x0002c9aa
    3910:	0002c9bf 	.word	0x0002c9bf
    3914:	0002ca03 	.word	0x0002ca03
    3918:	0002ca25 	.word	0x0002ca25
    391c:	0002caf9 	.word	0x0002caf9
    3920:	0002ce21 	.word	0x0002ce21
    3924:	0002ce3f 	.word	0x0002ce3f

00003928 <eOTA_GetState>:
    3928:	4b01      	ldr	r3, [pc, #4]	; (3930 <eOTA_GetState+0x8>)
    392a:	7818      	ldrb	r0, [r3, #0]
    392c:	4770      	bx	lr
    392e:	bf00      	nop
    3930:	04011f8c 	.word	0x04011f8c

00003934 <flashConfig_ExtractGpAdcTrimValues>:
    3934:	490b      	ldr	r1, [pc, #44]	; (3964 <flashConfig_ExtractGpAdcTrimValues+0x30>)
    3936:	680a      	ldr	r2, [r1, #0]
    3938:	4603      	mov	r3, r0
    393a:	f012 0001 	ands.w	r0, r2, #1
    393e:	b510      	push	{r4, lr}
    3940:	d00f      	beq.n	3962 <flashConfig_ExtractGpAdcTrimValues+0x2e>
    3942:	f3c2 0449 	ubfx	r4, r2, #1, #10
    3946:	801c      	strh	r4, [r3, #0]
    3948:	f3c2 24c9 	ubfx	r4, r2, #11, #10
    394c:	f3c2 5249 	ubfx	r2, r2, #21, #10
    3950:	809a      	strh	r2, [r3, #4]
    3952:	684a      	ldr	r2, [r1, #4]
    3954:	805c      	strh	r4, [r3, #2]
    3956:	f3c2 010b 	ubfx	r1, r2, #0, #12
    395a:	f3c2 320b 	ubfx	r2, r2, #12, #12
    395e:	80d9      	strh	r1, [r3, #6]
    3960:	811a      	strh	r2, [r3, #8]
    3962:	bd10      	pop	{r4, pc}
    3964:	0009fc80 	.word	0x0009fc80

00003968 <flashConfig_ExtractTempSensorTrimValues>:
    3968:	4a15      	ldr	r2, [pc, #84]	; (39c0 <flashConfig_ExtractTempSensorTrimValues+0x58>)
    396a:	4603      	mov	r3, r0
    396c:	6810      	ldr	r0, [r2, #0]
    396e:	f010 0001 	ands.w	r0, r0, #1
    3972:	b510      	push	{r4, lr}
    3974:	d023      	beq.n	39be <flashConfig_ExtractTempSensorTrimValues+0x56>
    3976:	6951      	ldr	r1, [r2, #20]
    3978:	8019      	strh	r1, [r3, #0]
    397a:	0c09      	lsrs	r1, r1, #16
    397c:	8059      	strh	r1, [r3, #2]
    397e:	6991      	ldr	r1, [r2, #24]
    3980:	8099      	strh	r1, [r3, #4]
    3982:	0c09      	lsrs	r1, r1, #16
    3984:	80d9      	strh	r1, [r3, #6]
    3986:	69d1      	ldr	r1, [r2, #28]
    3988:	8119      	strh	r1, [r3, #8]
    398a:	0c09      	lsrs	r1, r1, #16
    398c:	8159      	strh	r1, [r3, #10]
    398e:	6a11      	ldr	r1, [r2, #32]
    3990:	8199      	strh	r1, [r3, #12]
    3992:	0c09      	lsrs	r1, r1, #16
    3994:	81d9      	strh	r1, [r3, #14]
    3996:	490b      	ldr	r1, [pc, #44]	; (39c4 <flashConfig_ExtractTempSensorTrimValues+0x5c>)
    3998:	880c      	ldrh	r4, [r1, #0]
    399a:	6a51      	ldr	r1, [r2, #36]	; 0x24
    399c:	821c      	strh	r4, [r3, #16]
    399e:	0c09      	lsrs	r1, r1, #16
    39a0:	8259      	strh	r1, [r3, #18]
    39a2:	3214      	adds	r2, #20
    39a4:	6951      	ldr	r1, [r2, #20]
    39a6:	6992      	ldr	r2, [r2, #24]
    39a8:	835a      	strh	r2, [r3, #26]
    39aa:	f3c1 040b 	ubfx	r4, r1, #0, #12
    39ae:	829c      	strh	r4, [r3, #20]
    39b0:	0c12      	lsrs	r2, r2, #16
    39b2:	f3c1 3409 	ubfx	r4, r1, #12, #10
    39b6:	0d89      	lsrs	r1, r1, #22
    39b8:	82dc      	strh	r4, [r3, #22]
    39ba:	8319      	strh	r1, [r3, #24]
    39bc:	839a      	strh	r2, [r3, #28]
    39be:	bd10      	pop	{r4, pc}
    39c0:	0009fc8c 	.word	0x0009fc8c
    39c4:	0009fcb0 	.word	0x0009fcb0

000039c8 <temp_computation>:
    39c8:	4b1e      	ldr	r3, [pc, #120]	; (3a44 <temp_computation+0x7c>)
    39ca:	b5f0      	push	{r4, r5, r6, r7, lr}
    39cc:	681c      	ldr	r4, [r3, #0]
    39ce:	f9b4 3014 	ldrsh.w	r3, [r4, #20]
    39d2:	fb03 0312 	mls	r3, r3, r2, r0
    39d6:	8ba0      	ldrh	r0, [r4, #28]
    39d8:	fb10 f003 	smulbb	r0, r0, r3
    39dc:	1406      	asrs	r6, r0, #16
    39de:	f5c6 2680 	rsb	r6, r6, #262144	; 0x40000
    39e2:	b21d      	sxth	r5, r3
    39e4:	fbb6 f3f2 	udiv	r3, r6, r2
    39e8:	0776      	lsls	r6, r6, #29
    39ea:	d504      	bpl.n	39f6 <temp_computation+0x2e>
    39ec:	2800      	cmp	r0, #0
    39ee:	bfb4      	ite	lt
    39f0:	f103 33ff 	addlt.w	r3, r3, #4294967295
    39f4:	3301      	addge	r3, #1
    39f6:	f9b4 001a 	ldrsh.w	r0, [r4, #26]
    39fa:	f9b4 c012 	ldrsh.w	ip, [r4, #18]
    39fe:	f994 7011 	ldrsb.w	r7, [r4, #17]
    3a02:	4343      	muls	r3, r0
    3a04:	1418      	asrs	r0, r3, #16
    3a06:	f9b4 300c 	ldrsh.w	r3, [r4, #12]
    3a0a:	1acb      	subs	r3, r1, r3
    3a0c:	4343      	muls	r3, r0
    3a0e:	f994 1010 	ldrsb.w	r1, [r4, #16]
    3a12:	eb0c 3363 	add.w	r3, ip, r3, asr #13
    3a16:	ebc1 16e3 	rsb	r6, r1, r3, asr #7
    3a1a:	4376      	muls	r6, r6
    3a1c:	ebc1 11ec 	rsb	r1, r1, ip, asr #7
    3a20:	11b0      	asrs	r0, r6, #6
    3a22:	4349      	muls	r1, r1
    3a24:	4378      	muls	r0, r7
    3a26:	1189      	asrs	r1, r1, #6
    3a28:	eb03 13a0 	add.w	r3, r3, r0, asr #6
    3a2c:	4379      	muls	r1, r7
    3a2e:	8ae0      	ldrh	r0, [r4, #22]
    3a30:	eba3 13a1 	sub.w	r3, r3, r1, asr #6
    3a34:	fb10 f505 	smulbb	r5, r0, r5
    3a38:	fb95 f2f2 	sdiv	r2, r5, r2
    3a3c:	eba3 2062 	sub.w	r0, r3, r2, asr #9
    3a40:	bdf0      	pop	{r4, r5, r6, r7, pc}
    3a42:	bf00      	nop
    3a44:	04011f90 	.word	0x04011f90

00003a48 <ADC_Configuration>:
    3a48:	b5f8      	push	{r3, r4, r5, r6, r7, lr}
    3a4a:	4d19      	ldr	r5, [pc, #100]	; (3ab0 <ADC_Configuration+0x68>)
    3a4c:	2201      	movs	r2, #1
    3a4e:	f04f 4380 	mov.w	r3, #1073741824	; 0x40000000
    3a52:	702a      	strb	r2, [r5, #0]
    3a54:	f8d3 32a4 	ldr.w	r3, [r3, #676]	; 0x2a4
    3a58:	f013 0303 	ands.w	r3, r3, #3
    3a5c:	4604      	mov	r4, r0
    3a5e:	460f      	mov	r7, r1
    3a60:	d006      	beq.n	3a70 <ADC_Configuration+0x28>
    3a62:	4293      	cmp	r3, r2
    3a64:	d020      	beq.n	3aa8 <ADC_Configuration+0x60>
    3a66:	4813      	ldr	r0, [pc, #76]	; (3ab4 <ADC_Configuration+0x6c>)
    3a68:	f7fe fec2 	bl	27f0 <DbgConsole_Printf>
    3a6c:	2000      	movs	r0, #0
    3a6e:	e01a      	b.n	3aa6 <ADC_Configuration+0x5e>
    3a70:	2108      	movs	r1, #8
    3a72:	20e5      	movs	r0, #229	; 0xe5
    3a74:	f000 fea0 	bl	47b8 <CLOCK_SetClkDiv>
    3a78:	2600      	movs	r6, #0
    3a7a:	490d      	ldr	r1, [pc, #52]	; (3ab0 <ADC_Configuration+0x68>)
    3a7c:	722e      	strb	r6, [r5, #8]
    3a7e:	4620      	mov	r0, r4
    3a80:	60ee      	str	r6, [r5, #12]
    3a82:	f000 f8f9 	bl	3c78 <ADC_Init>
    3a86:	490c      	ldr	r1, [pc, #48]	; (3ab8 <ADC_Configuration+0x70>)
    3a88:	4b0c      	ldr	r3, [pc, #48]	; (3abc <ADC_Configuration+0x74>)
    3a8a:	608b      	str	r3, [r1, #8]
    3a8c:	4620      	mov	r0, r4
    3a8e:	e9c1 6600 	strd	r6, r6, [r1]
    3a92:	f000 f943 	bl	3d1c <ADC_SetConvSeqAConfig>
    3a96:	4638      	mov	r0, r7
    3a98:	f001 f8f0 	bl	4c7c <CLOCK_uDelay>
    3a9c:	68a3      	ldr	r3, [r4, #8]
    3a9e:	f043 4300 	orr.w	r3, r3, #2147483648	; 0x80000000
    3aa2:	60a3      	str	r3, [r4, #8]
    3aa4:	2001      	movs	r0, #1
    3aa6:	bdf8      	pop	{r3, r4, r5, r6, r7, pc}
    3aa8:	461a      	mov	r2, r3
    3aaa:	2103      	movs	r1, #3
    3aac:	e7e1      	b.n	3a72 <ADC_Configuration+0x2a>
    3aae:	bf00      	nop
    3ab0:	040146cc 	.word	0x040146cc
    3ab4:	0002ce7b 	.word	0x0002ce7b
    3ab8:	040146dc 	.word	0x040146dc
    3abc:	01000001 	.word	0x01000001

00003ac0 <load_calibration_param_from_flash>:
    3ac0:	b570      	push	{r4, r5, r6, lr}
    3ac2:	4606      	mov	r6, r0
    3ac4:	4819      	ldr	r0, [pc, #100]	; (3b2c <load_calibration_param_from_flash+0x6c>)
    3ac6:	f7ff ff35 	bl	3934 <flashConfig_ExtractGpAdcTrimValues>
    3aca:	4604      	mov	r4, r0
    3acc:	b920      	cbnz	r0, 3ad8 <load_calibration_param_from_flash+0x18>
    3ace:	4818      	ldr	r0, [pc, #96]	; (3b30 <load_calibration_param_from_flash+0x70>)
