
../../../Binaries/Linky_OM15081R2/Linky_OM15081R2.axf:     file format elf32-littlearm


Disassembly of section .text:

00000180 <ResetISR>:
     180:	4804      	ldr	r0, [pc, #16]	; (194 <masterboot+0x4>)
     182:	6800      	ldr	r0, [r0, #0]
     184:	0000      	movs	r0, r0
     186:	d003      	beq.n	190 <masterboot>
     188:	4903      	ldr	r1, [pc, #12]	; (198 <masterboot+0x8>)
     18a:	6809      	ldr	r1, [r1, #0]
     18c:	468d      	mov	sp, r1
     18e:	4700      	bx	r0

00000190 <masterboot>:
     190:	4802      	ldr	r0, [pc, #8]	; (19c <masterboot+0xc>)
     192:	4700      	bx	r0
     194:	40000804 	.word	0x40000804
     198:	40000808 	.word	0x40000808
     19c:	0000021f 	.word	0x0000021f

000001a0 <ADC_SEQA_IRQHandler>:
     1a0:	e7fe      	b.n	1a0 <ADC_SEQA_IRQHandler>

000001a2 <NMI_Handler>:
     1a2:	e7fe      	b.n	1a2 <NMI_Handler>
     1a4:	e7fe      	b.n	1a4 <NMI_Handler+0x2>
     1a6:	e7fe      	b.n	1a6 <NMI_Handler+0x4>
     1a8:	e7fe      	b.n	1a8 <NMI_Handler+0x6>
     1aa:	e7fe      	b.n	1aa <NMI_Handler+0x8>

000001ac <SVC_Handler>:
     1ac:	e7fe      	b.n	1ac <SVC_Handler>

000001ae <DebugMon_Handler>:
     1ae:	e7fe      	b.n	1ae <DebugMon_Handler>

000001b0 <PendSV_Handler>:
     1b0:	e7fe      	b.n	1b0 <PendSV_Handler>
     1b2:	e7fe      	b.n	1b2 <PendSV_Handler+0x2>

000001b4 <MAC_154_IRQHandler>:
     1b4:	b508      	push	{r3, lr}
     1b6:	4b06      	ldr	r3, [pc, #24]	; (1d0 <MAC_154_IRQHandler+0x1c>)
     1b8:	b113      	cbz	r3, 1c0 <MAC_154_IRQHandler+0xc>
     1ba:	f023 fe81 	bl	23ec0 <vMMAC_IntHandlerBbc>
     1be:	bd08      	pop	{r3, pc}
     1c0:	4b04      	ldr	r3, [pc, #16]	; (1d4 <MAC_154_IRQHandler+0x20>)
     1c2:	b113      	cbz	r3, 1ca <MAC_154_IRQHandler+0x16>
     1c4:	f027 f9e0 	bl	27588 <__ZIGBEE_MAC_IRQHandler_veneer>
     1c8:	e7f9      	b.n	1be <MAC_154_IRQHandler+0xa>
     1ca:	f7ff ffe9 	bl	1a0 <ADC_SEQA_IRQHandler>
     1ce:	bf00      	nop
     1d0:	00023ec1 	.word	0x00023ec1
     1d4:	03006b65 	.word	0x03006b65

000001d8 <MODEM_154_IRQHandler>:
     1d8:	b508      	push	{r3, lr}
     1da:	4b06      	ldr	r3, [pc, #24]	; (1f4 <MODEM_154_IRQHandler+0x1c>)
     1dc:	b113      	cbz	r3, 1e4 <MODEM_154_IRQHandler+0xc>
     1de:	f023 fe87 	bl	23ef0 <vMMAC_IntHandlerPhy>
     1e2:	bd08      	pop	{r3, pc}
     1e4:	4b04      	ldr	r3, [pc, #16]	; (1f8 <MODEM_154_IRQHandler+0x20>)
     1e6:	b113      	cbz	r3, 1ee <MODEM_154_IRQHandler+0x16>
     1e8:	f027 f9ca 	bl	27580 <__ZIGBEE_MODEM_IRQHandler_veneer>
     1ec:	e7f9      	b.n	1e2 <MODEM_154_IRQHandler+0xa>
     1ee:	f7ff ffd7 	bl	1a0 <ADC_SEQA_IRQHandler>
     1f2:	bf00      	nop
     1f4:	00023ef1 	.word	0x00023ef1
     1f8:	03000151 	.word	0x03000151

000001fc <data_init>:
     1fc:	440a      	add	r2, r1
     1fe:	1a40      	subs	r0, r0, r1
     200:	4291      	cmp	r1, r2
     202:	d300      	bcc.n	206 <INT_STORAGE_SECTOR_SIZE+0x6>
     204:	4770      	bx	lr
     206:	580b      	ldr	r3, [r1, r0]
     208:	f841 3b04 	str.w	r3, [r1], #4
     20c:	e7f8      	b.n	200 <INT_STORAGE_SECTOR_SIZE>

0000020e <bss_init>:
     20e:	4401      	add	r1, r0
     210:	2300      	movs	r3, #0
     212:	4288      	cmp	r0, r1
     214:	d300      	bcc.n	218 <bss_init+0xa>
     216:	4770      	bx	lr
     218:	f840 3b04 	str.w	r3, [r0], #4
     21c:	e7f9      	b.n	212 <bss_init+0x4>

0000021e <ResetISR2>:
     21e:	b570      	push	{r4, r5, r6, lr}
     220:	f04f 4580 	mov.w	r5, #1073741824	; 0x40000000
     224:	2303      	movs	r3, #3
     226:	f8c5 3280 	str.w	r3, [r5, #640]	; 0x280
     22a:	4b2e      	ldr	r3, [pc, #184]	; (2e4 <ResetISR2+0xc6>)
     22c:	b98b      	cbnz	r3, 252 <ResetISR2+0x34>
     22e:	4c2e      	ldr	r4, [pc, #184]	; (2e8 <ResetISR2+0xca>)
     230:	4d2e      	ldr	r5, [pc, #184]	; (2ec <ResetISR2+0xce>)
     232:	42ac      	cmp	r4, r5
     234:	d348      	bcc.n	2c8 <ResetISR2+0xaa>
     236:	4a2e      	ldr	r2, [pc, #184]	; (2f0 <ResetISR2+0xd2>)
     238:	4c2e      	ldr	r4, [pc, #184]	; (2f4 <HEAP_SIZE>)
     23a:	42a2      	cmp	r2, r4
     23c:	d34b      	bcc.n	2d6 <ResetISR2+0xb8>
     23e:	4b2e      	ldr	r3, [pc, #184]	; (2f8 <HEAP_SIZE+0x4>)
     240:	4a2e      	ldr	r2, [pc, #184]	; (2fc <HEAP_SIZE+0x8>)
     242:	601a      	str	r2, [r3, #0]
     244:	4b2e      	ldr	r3, [pc, #184]	; (300 <HEAP_SIZE+0xc>)
     246:	b10b      	cbz	r3, 24c <ResetISR2+0x2e>
     248:	f003 fd0c 	bl	3c64 <SystemInit>
     24c:	f008 f9f2 	bl	8634 <main>
     250:	e7fe      	b.n	250 <ResetISR2+0x32>
     252:	4b2c      	ldr	r3, [pc, #176]	; (304 <HEAP_SIZE+0x10>)
     254:	6f1c      	ldr	r4, [r3, #112]	; 0x70
     256:	f8d3 60b0 	ldr.w	r6, [r3, #176]	; 0xb0
     25a:	4b2b      	ldr	r3, [pc, #172]	; (308 <HEAP_SIZE+0x14>)
     25c:	f004 047f 	and.w	r4, r4, #127	; 0x7f
     260:	4798      	blx	r3
     262:	2c40      	cmp	r4, #64	; 0x40
     264:	d1e3      	bne.n	22e <ResetISR2+0x10>
     266:	4b29      	ldr	r3, [pc, #164]	; (30c <HEAP_SIZE+0x18>)
     268:	4033      	ands	r3, r6
     26a:	2b04      	cmp	r3, #4
     26c:	d1df      	bne.n	22e <ResetISR2+0x10>
     26e:	2802      	cmp	r0, #2
     270:	d1dd      	bne.n	22e <ResetISR2+0x10>
     272:	f8d5 3808 	ldr.w	r3, [r5, #2056]	; 0x808
     276:	b113      	cbz	r3, 27e <ResetISR2+0x60>
     278:	4927      	ldr	r1, [pc, #156]	; (318 <HEAP_SIZE+0x24>)
     27a:	6809      	ldr	r1, [r1, #0]
     27c:	468d      	mov	sp, r1
     27e:	4c24      	ldr	r4, [pc, #144]	; (310 <HEAP_SIZE+0x1c>)
     280:	b994      	cbnz	r4, 2a8 <ResetISR2+0x8a>
     282:	4a24      	ldr	r2, [pc, #144]	; (314 <HEAP_SIZE+0x20>)
     284:	b9da      	cbnz	r2, 2be <ResetISR2+0xa0>
     286:	4b1c      	ldr	r3, [pc, #112]	; (2f8 <HEAP_SIZE+0x4>)
     288:	4a1c      	ldr	r2, [pc, #112]	; (2fc <HEAP_SIZE+0x8>)
     28a:	601a      	str	r2, [r3, #0]
     28c:	4b1c      	ldr	r3, [pc, #112]	; (300 <HEAP_SIZE+0xc>)
     28e:	b9c3      	cbnz	r3, 2c2 <ResetISR2+0xa4>
     290:	f007 fad2 	bl	7838 <WarmMain>
     294:	e7fe      	b.n	294 <ResetISR2+0x76>
     296:	e9d4 0100 	ldrd	r0, r1, [r4]
     29a:	68a2      	ldr	r2, [r4, #8]
     29c:	340c      	adds	r4, #12
     29e:	f7ff ffad 	bl	1fc <data_init>
     2a2:	42ac      	cmp	r4, r5
     2a4:	d3f7      	bcc.n	296 <ResetISR2+0x78>
     2a6:	e7ec      	b.n	282 <ResetISR2+0x64>
     2a8:	4d10      	ldr	r5, [pc, #64]	; (2ec <ResetISR2+0xce>)
     2aa:	e7fa      	b.n	2a2 <ResetISR2+0x84>
     2ac:	f852 0b08 	ldr.w	r0, [r2], #8
     2b0:	f852 1c04 	ldr.w	r1, [r2, #-4]
     2b4:	f7ff ffab 	bl	20e <bss_init>
     2b8:	42a2      	cmp	r2, r4
     2ba:	d3f7      	bcc.n	2ac <ResetISR2+0x8e>
     2bc:	e7e3      	b.n	286 <ResetISR2+0x68>
     2be:	4c0d      	ldr	r4, [pc, #52]	; (2f4 <HEAP_SIZE>)
     2c0:	e7fa      	b.n	2b8 <ResetISR2+0x9a>
     2c2:	f003 fccf 	bl	3c64 <SystemInit>
     2c6:	e7e3      	b.n	290 <ResetISR2+0x72>
     2c8:	e9d4 0100 	ldrd	r0, r1, [r4]
     2cc:	68a2      	ldr	r2, [r4, #8]
     2ce:	340c      	adds	r4, #12
     2d0:	f7ff ff94 	bl	1fc <data_init>
     2d4:	e7ad      	b.n	232 <ResetISR2+0x14>
     2d6:	f852 0b08 	ldr.w	r0, [r2], #8
     2da:	f852 1c04 	ldr.w	r1, [r2, #-4]
     2de:	f7ff ff96 	bl	20e <bss_init>
     2e2:	e7aa      	b.n	23a <ResetISR2+0x1c>
     2e4:	00007839 	.word	0x00007839
     2e8:	00000120 	.word	0x00000120
     2ec:	00000144 	.word	0x00000144
     2f0:	00000150 	.word	0x00000150
     2f4:	00000168 	.word	0x00000168
     2f8:	e000ed08 	.word	0xe000ed08
     2fc:	00000000 	.word	0x00000000
     300:	00003c65 	.word	0x00003c65
     304:	40012000 	.word	0x40012000
     308:	03000e9d 	.word	0x03000e9d
     30c:	00020004 	.word	0x00020004
     310:	00000138 	.word	0x00000138
     314:	00000160 	.word	0x00000160
     318:	40000808 	.word	0x40000808

0000031c <System_IRQHandler>:
     31c:	4b17      	ldr	r3, [pc, #92]	; (37c <System_IRQHandler+0x60>)
     31e:	4918      	ldr	r1, [pc, #96]	; (380 <System_IRQHandler+0x64>)
     320:	681a      	ldr	r2, [r3, #0]
     322:	6f09      	ldr	r1, [r1, #112]	; 0x70
     324:	06c9      	lsls	r1, r1, #27
     326:	b510      	push	{r4, lr}
     328:	f002 040c 	and.w	r4, r2, #12
     32c:	d50d      	bpl.n	34a <System_IRQHandler+0x2e>
     32e:	f044 0404 	orr.w	r4, r4, #4
     332:	681a      	ldr	r2, [r3, #0]
     334:	4811      	ldr	r0, [pc, #68]	; (37c <System_IRQHandler+0x60>)
     336:	f022 0201 	bic.w	r2, r2, #1
     33a:	601a      	str	r2, [r3, #0]
     33c:	2104      	movs	r1, #4
     33e:	f003 fd9b 	bl	3e78 <WWDT_ClearStatusFlags>
     342:	4810      	ldr	r0, [pc, #64]	; (384 <System_IRQHandler+0x68>)
     344:	f002 fda6 	bl	2e94 <DbgConsole_Printf>
     348:	e001      	b.n	34e <System_IRQHandler+0x32>
     34a:	0752      	lsls	r2, r2, #29
     34c:	d4f1      	bmi.n	332 <System_IRQHandler+0x16>
     34e:	0723      	lsls	r3, r4, #28
     350:	d512      	bpl.n	378 <System_IRQHandler+0x5c>
     352:	4c0d      	ldr	r4, [pc, #52]	; (388 <System_IRQHandler+0x6c>)
     354:	4809      	ldr	r0, [pc, #36]	; (37c <System_IRQHandler+0x60>)
     356:	2108      	movs	r1, #8
     358:	f003 fd8e 	bl	3e78 <WWDT_ClearStatusFlags>
     35c:	7823      	ldrb	r3, [r4, #0]
     35e:	2b07      	cmp	r3, #7
     360:	d80a      	bhi.n	378 <System_IRQHandler+0x5c>
     362:	4806      	ldr	r0, [pc, #24]	; (37c <System_IRQHandler+0x60>)
     364:	3301      	adds	r3, #1
     366:	7023      	strb	r3, [r4, #0]
     368:	f003 fd7c 	bl	3e64 <WWDT_Refresh>
     36c:	7821      	ldrb	r1, [r4, #0]
     36e:	4807      	ldr	r0, [pc, #28]	; (38c <System_IRQHandler+0x70>)
     370:	e8bd 4010 	ldmia.w	sp!, {r4, lr}
     374:	f002 bd8e 	b.w	2e94 <DbgConsole_Printf>
     378:	bd10      	pop	{r4, pc}
     37a:	bf00      	nop
     37c:	4000a000 	.word	0x4000a000
     380:	40012000 	.word	0x40012000
     384:	00027590 	.word	0x00027590
     388:	0401215c 	.word	0x0401215c
     38c:	000275a8 	.word	0x000275a8

00000390 <main_task>:
     390:	b570      	push	{r4, r5, r6, lr}
     392:	4b13      	ldr	r3, [pc, #76]	; (3e0 <main_task+0x50>)
     394:	781a      	ldrb	r2, [r3, #0]
     396:	b95a      	cbnz	r2, 3b0 <main_task+0x20>
     398:	2201      	movs	r2, #1
     39a:	701a      	strb	r2, [r3, #0]
     39c:	f006 f990 	bl	66c0 <RNG_Init>
     3a0:	f006 f842 	bl	6428 <SecLib_Init>
     3a4:	f006 fa1a 	bl	67dc <MEM_Init>
     3a8:	f006 faec 	bl	6984 <TMR_Init>
     3ac:	f000 fbf8 	bl	ba0 <vAppMain>
     3b0:	4e0c      	ldr	r6, [pc, #48]	; (3e4 <main_task+0x54>)
     3b2:	4d0d      	ldr	r5, [pc, #52]	; (3e8 <main_task+0x58>)
     3b4:	4c0d      	ldr	r4, [pc, #52]	; (3ec <main_task+0x5c>)
     3b6:	f011 f847 	bl	11448 <zps_taskZPS>
     3ba:	f00c fcff 	bl	cdbc <bdb_taskBDB>
     3be:	f003 f9b1 	bl	3724 <ZTIMER_vTask>
     3c2:	f001 fcd5 	bl	1d70 <APP_taskSensor>
     3c6:	4630      	mov	r0, r6
     3c8:	f003 fd4c 	bl	3e64 <WWDT_Refresh>
     3cc:	2300      	movs	r3, #0
     3ce:	702b      	strb	r3, [r5, #0]
     3d0:	f002 f9ce 	bl	2770 <vAttemptToSleep>
     3d4:	f007 f878 	bl	74c8 <PWR_EnterLowPower>
     3d8:	7823      	ldrb	r3, [r4, #0]
     3da:	2b00      	cmp	r3, #0
     3dc:	d1eb      	bne.n	3b6 <main_task+0x26>
     3de:	bd70      	pop	{r4, r5, r6, pc}
     3e0:	04012152 	.word	0x04012152
     3e4:	4000a000 	.word	0x4000a000
     3e8:	0401215c 	.word	0x0401215c
     3ec:	0002a5fc 	.word	0x0002a5fc

000003f0 <APP_vSetUpHardware>:
     3f0:	b570      	push	{r4, r5, r6, lr}
     3f2:	4b26      	ldr	r3, [pc, #152]	; (48c <BOOT_RESUME_STACK_SIZE+0x8c>)
     3f4:	4a26      	ldr	r2, [pc, #152]	; (490 <BOOT_RESUME_STACK_SIZE+0x90>)
     3f6:	601a      	str	r2, [r3, #0]
     3f8:	f240 1209 	movw	r2, #265	; 0x109
     3fc:	b086      	sub	sp, #24
     3fe:	605a      	str	r2, [r3, #4]
     400:	f002 fe4e 	bl	30a0 <BOARD_InitHardware>
     404:	220a      	movs	r2, #10
     406:	2100      	movs	r1, #0
     408:	4b22      	ldr	r3, [pc, #136]	; (494 <BOOT_RESUME_STACK_SIZE+0x94>)
     40a:	4823      	ldr	r0, [pc, #140]	; (498 <BOOT_RESUME_STACK_SIZE+0x98>)
     40c:	4c23      	ldr	r4, [pc, #140]	; (49c <BOOT_RESUME_STACK_SIZE+0x9c>)
     40e:	f002 fd61 	bl	2ed4 <GPIO_PinInit>
     412:	2016      	movs	r0, #22
     414:	f003 ff50 	bl	42b8 <CLOCK_GetFreq>
     418:	2601      	movs	r6, #1
     41a:	0885      	lsrs	r5, r0, #2
     41c:	6026      	str	r6, [r4, #0]
     41e:	a801      	add	r0, sp, #4
     420:	f003 fc9a 	bl	3d58 <WWDT_GetDefaultConfig>
     424:	f44f 7300 	mov.w	r3, #512	; 0x200
     428:	2016      	movs	r0, #22
     42a:	9304      	str	r3, [sp, #16]
     42c:	9503      	str	r5, [sp, #12]
     42e:	9502      	str	r5, [sp, #8]
     430:	f88d 6005 	strb.w	r6, [sp, #5]
     434:	f003 ff40 	bl	42b8 <CLOCK_GetFreq>
     438:	a901      	add	r1, sp, #4
     43a:	9005      	str	r0, [sp, #20]
     43c:	4818      	ldr	r0, [pc, #96]	; (4a0 <BOOT_RESUME_STACK_SIZE+0xa0>)
     43e:	f003 fca9 	bl	3d94 <WWDT_Init>
     442:	4817      	ldr	r0, [pc, #92]	; (4a0 <BOOT_RESUME_STACK_SIZE+0xa0>)
     444:	f003 fd0e 	bl	3e64 <WWDT_Refresh>
     448:	4816      	ldr	r0, [pc, #88]	; (4a4 <BOOT_RESUME_STACK_SIZE+0xa4>)
     44a:	f06f 037f 	mvn.w	r3, #127	; 0x7f
     44e:	21a0      	movs	r1, #160	; 0xa0
     450:	2b00      	cmp	r3, #0
     452:	bfbb      	ittet	lt
     454:	f003 020f 	andlt.w	r2, r3, #15
     458:	3a04      	sublt	r2, #4
     45a:	18e2      	addge	r2, r4, r3
     45c:	1812      	addlt	r2, r2, r0
     45e:	f103 0301 	add.w	r3, r3, #1
     462:	bfac      	ite	ge
     464:	f882 1300 	strbge.w	r1, [r2, #768]	; 0x300
     468:	7611      	strblt	r1, [r2, #24]
     46a:	2b36      	cmp	r3, #54	; 0x36
     46c:	d1f0      	bne.n	450 <BOOT_RESUME_STACK_SIZE+0x50>
     46e:	4b0b      	ldr	r3, [pc, #44]	; (49c <BOOT_RESUME_STACK_SIZE+0x9c>)
     470:	2220      	movs	r2, #32
     472:	f883 2300 	strb.w	r2, [r3, #768]	; 0x300
     476:	f04f 4380 	mov.w	r3, #1073741824	; 0x40000000
     47a:	2203      	movs	r2, #3
     47c:	f8c3 2280 	str.w	r2, [r3, #640]	; 0x280
     480:	f003 fba0 	bl	3bc4 <SystemCoreClockUpdate>
     484:	f008 f884 	bl	8590 <OSA_TimeInit>
     488:	b006      	add	sp, #24
     48a:	bd70      	pop	{r4, r5, r6, pc}
     48c:	40001000 	.word	0x40001000
     490:	e000f733 	.word	0xe000f733
     494:	04011520 	.word	0x04011520
     498:	40080000 	.word	0x40080000
     49c:	e000e100 	.word	0xe000e100
     4a0:	4000a000 	.word	0x4000a000
     4a4:	e000ed00 	.word	0xe000ed00

000004a8 <APP_vInitResources>:
     4a8:	b510      	push	{r4, lr}
     4aa:	210a      	movs	r1, #10
     4ac:	4835      	ldr	r0, [pc, #212]	; (584 <APP_vInitResources+0xdc>)
     4ae:	f003 f91d 	bl	36ec <ZTIMER_eInit>
     4b2:	4935      	ldr	r1, [pc, #212]	; (588 <APP_vInitResources+0xe0>)
     4b4:	4835      	ldr	r0, [pc, #212]	; (58c <APP_vInitResources+0xe4>)
     4b6:	2301      	movs	r3, #1
     4b8:	2200      	movs	r2, #0
     4ba:	f003 f981 	bl	37c0 <ZTIMER_eOpen>
     4be:	4934      	ldr	r1, [pc, #208]	; (590 <APP_vInitResources+0xe8>)
     4c0:	4834      	ldr	r0, [pc, #208]	; (594 <APP_vInitResources+0xec>)
     4c2:	2301      	movs	r3, #1
     4c4:	2200      	movs	r2, #0
     4c6:	f003 f97b 	bl	37c0 <ZTIMER_eOpen>
     4ca:	4933      	ldr	r1, [pc, #204]	; (598 <APP_vInitResources+0xf0>)
     4cc:	4833      	ldr	r0, [pc, #204]	; (59c <APP_vInitResources+0xf4>)
     4ce:	2301      	movs	r3, #1
     4d0:	2200      	movs	r2, #0
     4d2:	f003 f975 	bl	37c0 <ZTIMER_eOpen>
     4d6:	4932      	ldr	r1, [pc, #200]	; (5a0 <APP_vInitResources+0xf8>)
     4d8:	4832      	ldr	r0, [pc, #200]	; (5a4 <APP_vInitResources+0xfc>)
     4da:	2301      	movs	r3, #1
     4dc:	2200      	movs	r2, #0
     4de:	f003 f96f 	bl	37c0 <ZTIMER_eOpen>
     4e2:	4931      	ldr	r1, [pc, #196]	; (5a8 <APP_vInitResources+0x100>)
     4e4:	4831      	ldr	r0, [pc, #196]	; (5ac <APP_vInitResources+0x104>)
     4e6:	2301      	movs	r3, #1
     4e8:	2200      	movs	r2, #0
     4ea:	f003 f969 	bl	37c0 <ZTIMER_eOpen>
     4ee:	4930      	ldr	r1, [pc, #192]	; (5b0 <APP_vInitResources+0x108>)
     4f0:	4830      	ldr	r0, [pc, #192]	; (5b4 <APP_vInitResources+0x10c>)
     4f2:	2301      	movs	r3, #1
     4f4:	2200      	movs	r2, #0
     4f6:	f003 f963 	bl	37c0 <ZTIMER_eOpen>
     4fa:	492f      	ldr	r1, [pc, #188]	; (5b8 <APP_vInitResources+0x110>)
     4fc:	482f      	ldr	r0, [pc, #188]	; (5bc <APP_vInitResources+0x114>)
     4fe:	2301      	movs	r3, #1
     500:	2200      	movs	r2, #0
     502:	f003 f95d 	bl	37c0 <ZTIMER_eOpen>
     506:	2300      	movs	r3, #0
     508:	461a      	mov	r2, r3
     50a:	492d      	ldr	r1, [pc, #180]	; (5c0 <APP_vInitResources+0x118>)
     50c:	482d      	ldr	r0, [pc, #180]	; (5c4 <APP_vInitResources+0x11c>)
     50e:	f003 f957 	bl	37c0 <ZTIMER_eOpen>
     512:	482d      	ldr	r0, [pc, #180]	; (5c8 <APP_vInitResources+0x120>)
     514:	2300      	movs	r3, #0
     516:	2240      	movs	r2, #64	; 0x40
     518:	2102      	movs	r1, #2
     51a:	f003 f899 	bl	3650 <ZQ_vQueueCreate>
     51e:	482b      	ldr	r0, [pc, #172]	; (5cc <APP_vInitResources+0x124>)
     520:	2300      	movs	r3, #0
     522:	2238      	movs	r2, #56	; 0x38
     524:	2101      	movs	r1, #1
     526:	f003 f893 	bl	3650 <ZQ_vQueueCreate>
     52a:	4829      	ldr	r0, [pc, #164]	; (5d0 <APP_vInitResources+0x128>)
     52c:	2300      	movs	r3, #0
     52e:	2238      	movs	r2, #56	; 0x38
     530:	2101      	movs	r1, #1
     532:	f003 f88d 	bl	3650 <ZQ_vQueueCreate>
     536:	4827      	ldr	r0, [pc, #156]	; (5d4 <APP_vInitResources+0x12c>)
     538:	2300      	movs	r3, #0
     53a:	220c      	movs	r2, #12
     53c:	2104      	movs	r1, #4
     53e:	f003 f887 	bl	3650 <ZQ_vQueueCreate>
     542:	4825      	ldr	r0, [pc, #148]	; (5d8 <APP_vInitResources+0x130>)
     544:	2300      	movs	r3, #0
     546:	222c      	movs	r2, #44	; 0x2c
     548:	2104      	movs	r1, #4
     54a:	f003 f881 	bl	3650 <ZQ_vQueueCreate>
     54e:	4823      	ldr	r0, [pc, #140]	; (5dc <APP_vInitResources+0x134>)
     550:	2300      	movs	r3, #0
     552:	222c      	movs	r2, #44	; 0x2c
     554:	2102      	movs	r1, #2
     556:	f003 f87b 	bl	3650 <ZQ_vQueueCreate>
     55a:	4821      	ldr	r0, [pc, #132]	; (5e0 <APP_vInitResources+0x138>)
     55c:	2300      	movs	r3, #0
     55e:	2208      	movs	r2, #8
     560:	2104      	movs	r1, #4
     562:	f003 f875 	bl	3650 <ZQ_vQueueCreate>
     566:	481f      	ldr	r0, [pc, #124]	; (5e4 <APP_vInitResources+0x13c>)
     568:	2300      	movs	r3, #0
     56a:	220c      	movs	r2, #12
     56c:	2108      	movs	r1, #8
     56e:	f003 f86f 	bl	3650 <ZQ_vQueueCreate>
     572:	e8bd 4010 	ldmia.w	sp!, {r4, lr}
     576:	4b1c      	ldr	r3, [pc, #112]	; (5e8 <APP_vInitResources+0x140>)
     578:	481c      	ldr	r0, [pc, #112]	; (5ec <APP_vInitResources+0x144>)
     57a:	2201      	movs	r2, #1
     57c:	f44f 7187 	mov.w	r1, #270	; 0x10e
     580:	f003 b866 	b.w	3650 <ZQ_vQueueCreate>
     584:	04011fa4 	.word	0x04011fa4
     588:	000028a1 	.word	0x000028a1
     58c:	04012159 	.word	0x04012159
     590:	000021a1 	.word	0x000021a1
     594:	04012156 	.word	0x04012156
     598:	0000198d 	.word	0x0000198d
     59c:	04012158 	.word	0x04012158
     5a0:	00002115 	.word	0x00002115
     5a4:	0401215b 	.word	0x0401215b
     5a8:	00002bf9 	.word	0x00002bf9
     5ac:	0401215a 	.word	0x0401215a
     5b0:	00002d15 	.word	0x00002d15
     5b4:	04012155 	.word	0x04012155
     5b8:	00002cf1 	.word	0x00002cf1
     5bc:	04012154 	.word	0x04012154
     5c0:	00002385 	.word	0x00002385
     5c4:	04012157 	.word	0x04012157
     5c8:	04011f64 	.word	0x04011f64
     5cc:	04011f94 	.word	0x04011f94
     5d0:	04011f84 	.word	0x04011f84
     5d4:	04011f54 	.word	0x04011f54
     5d8:	04013934 	.word	0x04013934
     5dc:	04013924 	.word	0x04013924
     5e0:	04013914 	.word	0x04013914
     5e4:	04013904 	.word	0x04013904
     5e8:	04012044 	.word	0x04012044
     5ec:	04011f74 	.word	0x04011f74

000005f0 <APP_vRadioTempUpdate>:
     5f0:	b51f      	push	{r0, r1, r2, r3, r4, lr}
     5f2:	4604      	mov	r4, r0
     5f4:	f007 ffe4 	bl	85c0 <OSA_TimeGetMsec>
     5f8:	4622      	mov	r2, r4
     5fa:	4601      	mov	r1, r0
     5fc:	481b      	ldr	r0, [pc, #108]	; (66c <APP_vRadioTempUpdate+0x7c>)
     5fe:	f002 fc49 	bl	2e94 <DbgConsole_Printf>
     602:	bb24      	cbnz	r4, 64e <APP_vRadioTempUpdate+0x5e>
     604:	f007 ffdc 	bl	85c0 <OSA_TimeGetMsec>
     608:	4601      	mov	r1, r0
     60a:	4819      	ldr	r0, [pc, #100]	; (670 <APP_vRadioTempUpdate+0x80>)
     60c:	f002 fc42 	bl	2e94 <DbgConsole_Printf>
     610:	ab03      	add	r3, sp, #12
     612:	9300      	str	r3, [sp, #0]
     614:	2107      	movs	r1, #7
     616:	4817      	ldr	r0, [pc, #92]	; (674 <APP_vRadioTempUpdate+0x84>)
     618:	2308      	movs	r3, #8
     61a:	f44f 7296 	mov.w	r2, #300	; 0x12c
     61e:	f002 fe9b 	bl	3358 <get_temperature>
     622:	4604      	mov	r4, r0
     624:	4601      	mov	r1, r0
     626:	4814      	ldr	r0, [pc, #80]	; (678 <APP_vRadioTempUpdate+0x88>)
     628:	f002 fc34 	bl	2e94 <DbgConsole_Printf>
     62c:	b1e4      	cbz	r4, 668 <APP_vRadioTempUpdate+0x78>
     62e:	9903      	ldr	r1, [sp, #12]
     630:	4812      	ldr	r0, [pc, #72]	; (67c <APP_vRadioTempUpdate+0x8c>)
     632:	2900      	cmp	r1, #0
     634:	460c      	mov	r4, r1
     636:	bfb8      	it	lt
     638:	f101 043f 	addlt.w	r4, r1, #63	; 0x3f
     63c:	f344 148f 	sbfx	r4, r4, #6, #16
     640:	4622      	mov	r2, r4
     642:	f002 fc27 	bl	2e94 <DbgConsole_Printf>
     646:	4620      	mov	r0, r4
     648:	f025 fcc4 	bl	25fd4 <vRadio_Temp_Update>
     64c:	e00c      	b.n	668 <APP_vRadioTempUpdate+0x78>
     64e:	4809      	ldr	r0, [pc, #36]	; (674 <APP_vRadioTempUpdate+0x84>)
     650:	f002 fe40 	bl	32d4 <load_calibration_param_from_flash>
     654:	4604      	mov	r4, r0
     656:	f007 ffb3 	bl	85c0 <OSA_TimeGetMsec>
     65a:	4622      	mov	r2, r4
     65c:	4601      	mov	r1, r0
     65e:	4808      	ldr	r0, [pc, #32]	; (680 <APP_vRadioTempUpdate+0x90>)
     660:	f002 fc18 	bl	2e94 <DbgConsole_Printf>
     664:	2c00      	cmp	r4, #0
     666:	d1cd      	bne.n	604 <APP_vRadioTempUpdate+0x14>
     668:	b004      	add	sp, #16
     66a:	bd10      	pop	{r4, pc}
     66c:	000275c3 	.word	0x000275c3
     670:	000275e2 	.word	0x000275e2
     674:	40089000 	.word	0x40089000
     678:	00028e8f 	.word	0x00028e8f
     67c:	0002762c 	.word	0x0002762c
     680:	000275fd 	.word	0x000275fd

00000684 <bRadioCB_WriteNVM>:
     684:	b573      	push	{r0, r1, r4, r5, r6, lr}
     686:	460a      	mov	r2, r1
     688:	460d      	mov	r5, r1
     68a:	4601      	mov	r1, r0
     68c:	f44f 407f 	mov.w	r0, #65280	; 0xff00
     690:	f00f fe3c 	bl	1030c <PDM_eSaveRecordData>
     694:	4606      	mov	r6, r0
     696:	fab0 f480 	clz	r4, r0
     69a:	f007 ff91 	bl	85c0 <OSA_TimeGetMsec>
     69e:	0964      	lsrs	r4, r4, #5
     6a0:	4601      	mov	r1, r0
     6a2:	9600      	str	r6, [sp, #0]
     6a4:	4623      	mov	r3, r4
     6a6:	462a      	mov	r2, r5
     6a8:	4802      	ldr	r0, [pc, #8]	; (6b4 <bRadioCB_WriteNVM+0x30>)
     6aa:	f002 fbf3 	bl	2e94 <DbgConsole_Printf>
     6ae:	4620      	mov	r0, r4
     6b0:	b002      	add	sp, #8
     6b2:	bd70      	pop	{r4, r5, r6, pc}
     6b4:	00027651 	.word	0x00027651

000006b8 <u16RadioCB_ReadNVM>:
     6b8:	b530      	push	{r4, r5, lr}
     6ba:	b085      	sub	sp, #20
     6bc:	2300      	movs	r3, #0
     6be:	460a      	mov	r2, r1
     6c0:	460c      	mov	r4, r1
     6c2:	f8ad 300e 	strh.w	r3, [sp, #14]
     6c6:	4601      	mov	r1, r0
     6c8:	f10d 030e 	add.w	r3, sp, #14
     6cc:	f44f 407f 	mov.w	r0, #65280	; 0xff00
     6d0:	f00e f9f6 	bl	eac0 <PDM_eReadDataFromRecord>
     6d4:	4605      	mov	r5, r0
     6d6:	f007 ff73 	bl	85c0 <OSA_TimeGetMsec>
     6da:	f8bd 300e 	ldrh.w	r3, [sp, #14]
     6de:	9500      	str	r5, [sp, #0]
     6e0:	4601      	mov	r1, r0
     6e2:	4622      	mov	r2, r4
     6e4:	4803      	ldr	r0, [pc, #12]	; (6f4 <u16RadioCB_ReadNVM+0x3c>)
     6e6:	f002 fbd5 	bl	2e94 <DbgConsole_Printf>
     6ea:	f8bd 000e 	ldrh.w	r0, [sp, #14]
     6ee:	b005      	add	sp, #20
     6f0:	bd30      	pop	{r4, r5, pc}
     6f2:	bf00      	nop
     6f4:	00027680 	.word	0x00027680

000006f8 <ZPS_u8GrabMutexLock>:
     6f8:	b538      	push	{r3, r4, r5, lr}
     6fa:	460d      	mov	r5, r1
     6fc:	4604      	mov	r4, r0
     6fe:	b128      	cbz	r0, 70c <ZPS_u8GrabMutexLock+0x14>
     700:	4780      	blx	r0
     702:	7803      	ldrb	r3, [r0, #0]
     704:	b113      	cbz	r3, 70c <ZPS_u8GrabMutexLock+0x14>
     706:	4b07      	ldr	r3, [pc, #28]	; (724 <ZPS_u8GrabMutexLock+0x2c>)
     708:	2201      	movs	r2, #1
     70a:	601a      	str	r2, [r3, #0]
     70c:	4628      	mov	r0, r5
     70e:	f007 ff67 	bl	85e0 <OSA_InterruptEnableRestricted>
     712:	b114      	cbz	r4, 71a <ZPS_u8GrabMutexLock+0x22>
     714:	47a0      	blx	r4
     716:	2301      	movs	r3, #1
     718:	7003      	strb	r3, [r0, #0]
     71a:	4628      	mov	r0, r5
     71c:	f007 ff6d 	bl	85fa <OSA_InterruptEnableRestore>
     720:	2000      	movs	r0, #0
     722:	bd38      	pop	{r3, r4, r5, pc}
     724:	badadd04 	.word	0xbadadd04

00000728 <ZPS_u8ReleaseMutexLock>:
     728:	b538      	push	{r3, r4, r5, lr}
     72a:	4605      	mov	r5, r0
     72c:	4608      	mov	r0, r1
     72e:	460c      	mov	r4, r1
     730:	f007 ff56 	bl	85e0 <OSA_InterruptEnableRestricted>
     734:	b115      	cbz	r5, 73c <ZPS_u8ReleaseMutexLock+0x14>
     736:	47a8      	blx	r5
     738:	2300      	movs	r3, #0
     73a:	7003      	strb	r3, [r0, #0]
     73c:	4620      	mov	r0, r4
     73e:	f007 ff5c 	bl	85fa <OSA_InterruptEnableRestore>
     742:	2000      	movs	r0, #0
     744:	bd38      	pop	{r3, r4, r5, pc}
     746:	Address 0x00000746 is out of bounds.


00000748 <ZPS_eEnterCriticalSection>:
     748:	b538      	push	{r3, r4, r5, lr}
     74a:	460d      	mov	r5, r1
     74c:	4604      	mov	r4, r0
     74e:	b128      	cbz	r0, 75c <ZPS_eEnterCriticalSection+0x14>
     750:	4780      	blx	r0
     752:	7803      	ldrb	r3, [r0, #0]
     754:	b113      	cbz	r3, 75c <ZPS_eEnterCriticalSection+0x14>
     756:	4b06      	ldr	r3, [pc, #24]	; (770 <ZPS_eEnterCriticalSection+0x28>)
     758:	2201      	movs	r2, #1
     75a:	601a      	str	r2, [r3, #0]
     75c:	4628      	mov	r0, r5
     75e:	f007 ff3f 	bl	85e0 <OSA_InterruptEnableRestricted>
     762:	b114      	cbz	r4, 76a <ZPS_eEnterCriticalSection+0x22>
     764:	47a0      	blx	r4
     766:	2301      	movs	r3, #1
     768:	7003      	strb	r3, [r0, #0]
     76a:	2000      	movs	r0, #0
     76c:	bd38      	pop	{r3, r4, r5, pc}
     76e:	bf00      	nop
     770:	badadd08 	.word	0xbadadd08

00000774 <ZPS_eExitCriticalSection>:
     774:	b510      	push	{r4, lr}
     776:	460c      	mov	r4, r1
     778:	b110      	cbz	r0, 780 <ZPS_eExitCriticalSection+0xc>
     77a:	4780      	blx	r0
     77c:	2300      	movs	r3, #0
     77e:	7003      	strb	r3, [r0, #0]
     780:	4620      	mov	r0, r4
     782:	f007 ff3a 	bl	85fa <OSA_InterruptEnableRestore>
     786:	2000      	movs	r0, #0
     788:	bd10      	pop	{r4, pc}
     78a:	Address 0x0000078a is out of bounds.


0000078c <PDUM_vInit>:
     78c:	b510      	push	{r4, lr}
     78e:	4c07      	ldr	r4, [pc, #28]	; (7ac <PDUM_vInit+0x20>)
     790:	4807      	ldr	r0, [pc, #28]	; (7b0 <PDUM_vInit+0x24>)
     792:	2300      	movs	r3, #0
     794:	2109      	movs	r1, #9
     796:	80a3      	strh	r3, [r4, #4]
     798:	8223      	strh	r3, [r4, #16]
     79a:	f00d fbed 	bl	df78 <pdum_vNPduInit>
     79e:	4620      	mov	r0, r4
     7a0:	2102      	movs	r1, #2
     7a2:	e8bd 4010 	ldmia.w	sp!, {r4, lr}
     7a6:	f00d bd0d 	b.w	e1c4 <pdum_vAPduInit>
     7aa:	bf00      	nop
     7ac:	040115a0 	.word	0x040115a0
     7b0:	04012160 	.word	0x04012160

000007b4 <zps_vGetZpsMutex>:
     7b4:	4800      	ldr	r0, [pc, #0]	; (7b8 <zps_vGetZpsMutex+0x4>)
     7b6:	4770      	bx	lr
     7b8:	040129b4 	.word	0x040129b4

000007bc <vZdoServersInit>:
     7bc:	b510      	push	{r4, lr}
     7be:	4c24      	ldr	r4, [pc, #144]	; (850 <vZdoServersInit+0x94>)
     7c0:	4824      	ldr	r0, [pc, #144]	; (854 <vZdoServersInit+0x98>)
     7c2:	4621      	mov	r1, r4
     7c4:	f016 f874 	bl	168b0 <zps_vAplZdoDefaultServerInit>
     7c8:	4621      	mov	r1, r4
     7ca:	4823      	ldr	r0, [pc, #140]	; (858 <vZdoServersInit+0x9c>)
     7cc:	f018 fd9c 	bl	19308 <zps_vAplZdoZdoClientInit>
     7d0:	4822      	ldr	r0, [pc, #136]	; (85c <vZdoServersInit+0xa0>)
     7d2:	f017 f89d 	bl	17910 <zps_vAplZdoDeviceAnnceServerInit>
     7d6:	4621      	mov	r1, r4
     7d8:	4821      	ldr	r0, [pc, #132]	; (860 <vZdoServersInit+0xa4>)
     7da:	f017 f829 	bl	17830 <zps_vAplZdoActiveEpServerInit>
     7de:	4621      	mov	r1, r4
     7e0:	4820      	ldr	r0, [pc, #128]	; (864 <vZdoServersInit+0xa8>)
     7e2:	f016 fae6 	bl	16db2 <zps_vAplZdoNwkAddrServerInit>
     7e6:	4621      	mov	r1, r4
     7e8:	481f      	ldr	r0, [pc, #124]	; (868 <vZdoServersInit+0xac>)
     7ea:	f016 fbbb 	bl	16f64 <zps_vAplZdoIeeeAddrServerInit>
     7ee:	4621      	mov	r1, r4
     7f0:	481e      	ldr	r0, [pc, #120]	; (86c <vZdoServersInit+0xb0>)
     7f2:	f017 f965 	bl	17ac0 <zps_vAplZdoSystemServerDiscoveryServerInit>
     7f6:	4621      	mov	r1, r4
     7f8:	481d      	ldr	r0, [pc, #116]	; (870 <vZdoServersInit+0xb4>)
     7fa:	f016 fdf1 	bl	173e0 <zps_vAplZdoNodeDescServerInit>
     7fe:	4621      	mov	r1, r4
     800:	481c      	ldr	r0, [pc, #112]	; (874 <vZdoServersInit+0xb8>)
     802:	f016 ff9b 	bl	1773c <zps_vAplZdoPowerDescServerInit>
     806:	4621      	mov	r1, r4
     808:	481b      	ldr	r0, [pc, #108]	; (878 <vZdoServersInit+0xbc>)
     80a:	f016 fc77 	bl	170fc <zps_vAplZdoMatchDescServerInit>
     80e:	4621      	mov	r1, r4
     810:	481a      	ldr	r0, [pc, #104]	; (87c <vZdoServersInit+0xc0>)
     812:	f016 fe85 	bl	17520 <zps_vAplZdoSimpleDescServerInit>
     816:	4621      	mov	r1, r4
     818:	4819      	ldr	r0, [pc, #100]	; (880 <vZdoServersInit+0xc4>)
     81a:	f017 f997 	bl	17b4c <zps_vAplZdoMgmtLqiServerInit>
     81e:	4621      	mov	r1, r4
     820:	4818      	ldr	r0, [pc, #96]	; (884 <vZdoServersInit+0xc8>)
     822:	f017 fab9 	bl	17d98 <zps_vAplZdoMgmtLeaveServerInit>
     826:	4a18      	ldr	r2, [pc, #96]	; (888 <vZdoServersInit+0xcc>)
     828:	4818      	ldr	r0, [pc, #96]	; (88c <vZdoServersInit+0xd0>)
     82a:	4621      	mov	r1, r4
     82c:	f017 fc08 	bl	18040 <zps_vAplZdoMgmtNWKUpdateServerInit>
     830:	4621      	mov	r1, r4
     832:	4817      	ldr	r0, [pc, #92]	; (890 <vZdoServersInit+0xd4>)
     834:	f017 fef1 	bl	1861a <zps_vAplZdoBindUnbindServerInit>
     838:	4816      	ldr	r0, [pc, #88]	; (894 <vZdoServersInit+0xd8>)
     83a:	4b17      	ldr	r3, [pc, #92]	; (898 <vZdoServersInit+0xdc>)
     83c:	2101      	movs	r1, #1
     83e:	220a      	movs	r2, #10
     840:	f018 f996 	bl	18b70 <zps_vAplZdoBindRequestServerInit>
     844:	4621      	mov	r1, r4
     846:	4815      	ldr	r0, [pc, #84]	; (89c <vZdoServersInit+0xe0>)
     848:	e8bd 4010 	ldmia.w	sp!, {r4, lr}
     84c:	f018 bde6 	b.w	1941c <zps_vAplZdoMgmtBindServerInit>
     850:	040115a0 	.word	0x040115a0
     854:	0401305c 	.word	0x0401305c
     858:	040138fc 	.word	0x040138fc
     85c:	04013060 	.word	0x04013060
     860:	04012f7c 	.word	0x04012f7c
     864:	040130f4 	.word	0x040130f4
     868:	04013060 	.word	0x04013060
     86c:	040138f8 	.word	0x040138f8
     870:	040130f0 	.word	0x040130f0
     874:	040138f0 	.word	0x040138f0
     878:	04013064 	.word	0x04013064
     87c:	040138f4 	.word	0x040138f4
     880:	04013094 	.word	0x04013094
     884:	0401306c 	.word	0x0401306c
     888:	040116d4 	.word	0x040116d4
     88c:	04013098 	.word	0x04013098
     890:	0401302c 	.word	0x0401302c
     894:	04012fd8 	.word	0x04012fd8
     898:	04012fb8 	.word	0x04012fb8
     89c:	04013068 	.word	0x04013068

000008a0 <ZPS_pvAplZdoGetAplHandle>:
     8a0:	4b01      	ldr	r3, [pc, #4]	; (8a8 <ZPS_pvAplZdoGetAplHandle+0x8>)
     8a2:	6818      	ldr	r0, [r3, #0]
     8a4:	4770      	bx	lr
     8a6:	bf00      	nop
     8a8:	04011944 	.word	0x04011944

000008ac <ZPS_u32ApsFcSaveCountBitShift>:
     8ac:	200a      	movs	r0, #10
     8ae:	4770      	bx	lr

000008b0 <ZPS_psAplDefaultDistributedAPSLinkKey>:
     8b0:	4800      	ldr	r0, [pc, #0]	; (8b4 <ZPS_psAplDefaultDistributedAPSLinkKey+0x4>)
     8b2:	4770      	bx	lr
     8b4:	04011610 	.word	0x04011610

000008b8 <ZPS_psAplDefaultGlobalAPSLinkKey>:
     8b8:	4800      	ldr	r0, [pc, #0]	; (8bc <ZPS_psAplDefaultGlobalAPSLinkKey+0x4>)
     8ba:	4770      	bx	lr
     8bc:	04011614 	.word	0x04011614

000008c0 <ZPS_ps_groupPdmTable>:
     8c0:	4800      	ldr	r0, [pc, #0]	; (8c4 <ZPS_ps_groupPdmTable+0x4>)
     8c2:	4770      	bx	lr
     8c4:	04012f74 	.word	0x04012f74

000008c8 <ZPS_pu8MaxZpsConfigEp>:
     8c8:	4800      	ldr	r0, [pc, #0]	; (8cc <ZPS_pu8MaxZpsConfigEp+0x4>)
     8ca:	4770      	bx	lr
     8cc:	04011940 	.word	0x04011940

000008d0 <ZPS_pau8EpMapPresent>:
     8d0:	4800      	ldr	r0, [pc, #0]	; (8d4 <ZPS_pau8EpMapPresent+0x4>)
     8d2:	4770      	bx	lr
     8d4:	040115b8 	.word	0x040115b8

000008d8 <ZPS_u8ConfigStackProfileId>:
     8d8:	4b01      	ldr	r3, [pc, #4]	; (8e0 <ZPS_u8ConfigStackProfileId+0x8>)
     8da:	7818      	ldrb	r0, [r3, #0]
     8dc:	4770      	bx	lr
     8de:	bf00      	nop
     8e0:	04011941 	.word	0x04011941

000008e4 <ZPS_u32NwkFcSaveCountBitShift>:
     8e4:	200a      	movs	r0, #10
     8e6:	4770      	bx	lr

000008e8 <ZPS_psMacIFTGetTable>:
     8e8:	4800      	ldr	r0, [pc, #0]	; (8ec <ZPS_psMacIFTGetTable+0x4>)
     8ea:	4770      	bx	lr
     8ec:	040115bc 	.word	0x040115bc

000008f0 <ZPS_psMacIFTGetInterface>:
     8f0:	4b04      	ldr	r3, [pc, #16]	; (904 <ZPS_psMacIFTGetInterface+0x14>)
     8f2:	f893 2040 	ldrb.w	r2, [r3, #64]	; 0x40
     8f6:	4282      	cmp	r2, r0
     8f8:	bf86      	itte	hi
     8fa:	685b      	ldrhi	r3, [r3, #4]
     8fc:	eb03 0080 	addhi.w	r0, r3, r0, lsl #2
     900:	2000      	movls	r0, #0
     902:	4770      	bx	lr
     904:	040115bc 	.word	0x040115bc

00000908 <ZPS_vGetGpContext>:
     908:	4b01      	ldr	r3, [pc, #4]	; (910 <ZPS_vGetGpContext+0x8>)
     90a:	6818      	ldr	r0, [r3, #0]
     90c:	4770      	bx	lr
     90e:	bf00      	nop
     910:	040129b8 	.word	0x040129b8

00000914 <ZPS_vGetOptionalFeatures>:
     914:	4770      	bx	lr
     916:	Address 0x00000916 is out of bounds.


00000918 <eRestoreReports>:
     918:	b513      	push	{r0, r1, r4, lr}
     91a:	f44f 7220 	mov.w	r2, #640	; 0x280
     91e:	f10d 0306 	add.w	r3, sp, #6
     922:	4906      	ldr	r1, [pc, #24]	; (93c <eRestoreReports+0x24>)
     924:	200b      	movs	r0, #11
     926:	f00e f8cb 	bl	eac0 <PDM_eReadDataFromRecord>
     92a:	4604      	mov	r4, r0
     92c:	4601      	mov	r1, r0
     92e:	4804      	ldr	r0, [pc, #16]	; (940 <eRestoreReports+0x28>)
     930:	f002 fab0 	bl	2e94 <DbgConsole_Printf>
     934:	4620      	mov	r0, r4
     936:	b002      	add	sp, #8
     938:	bd10      	pop	{r4, pc}
     93a:	bf00      	nop
     93c:	04013948 	.word	0x04013948
     940:	00027a64 	.word	0x00027a64

00000944 <vMakeSupportedAttributesReportable>:
     944:	e92d 41ff 	stmdb	sp!, {r0, r1, r2, r3, r4, r5, r6, r7, r8, lr}
     948:	4b15      	ldr	r3, [pc, #84]	; (9a0 <vMakeSupportedAttributesReportable+0x5c>)
     94a:	4816      	ldr	r0, [pc, #88]	; (9a4 <vMakeSupportedAttributesReportable+0x60>)
     94c:	781e      	ldrb	r6, [r3, #0]
     94e:	4c16      	ldr	r4, [pc, #88]	; (9a8 <vMakeSupportedAttributesReportable+0x64>)
     950:	f8df 8058 	ldr.w	r8, [pc, #88]	; 9ac <vMakeSupportedAttributesReportable+0x68>
     954:	4631      	mov	r1, r6
     956:	f002 fa9d 	bl	2e94 <DbgConsole_Printf>
     95a:	2500      	movs	r5, #0
     95c:	f994 3018 	ldrsb.w	r3, [r4, #24]
     960:	9303      	str	r3, [sp, #12]
     962:	7a23      	ldrb	r3, [r4, #8]
     964:	8827      	ldrh	r7, [r4, #0]
     966:	9302      	str	r3, [sp, #8]
     968:	8a23      	ldrh	r3, [r4, #16]
     96a:	9301      	str	r3, [sp, #4]
     96c:	89e3      	ldrh	r3, [r4, #14]
     96e:	8962      	ldrh	r2, [r4, #10]
     970:	9300      	str	r3, [sp, #0]
     972:	4639      	mov	r1, r7
     974:	89a3      	ldrh	r3, [r4, #12]
     976:	4640      	mov	r0, r8
     978:	f002 fa8c 	bl	2e94 <DbgConsole_Printf>
     97c:	f104 0308 	add.w	r3, r4, #8
     980:	9300      	str	r3, [sp, #0]
     982:	2200      	movs	r2, #0
     984:	2301      	movs	r3, #1
     986:	4639      	mov	r1, r7
     988:	4630      	mov	r0, r6
     98a:	3501      	adds	r5, #1
     98c:	f00b f834 	bl	b9f8 <eZCL_CreateLocalReport>
     990:	2d14      	cmp	r5, #20
     992:	f104 0420 	add.w	r4, r4, #32
     996:	d1e1      	bne.n	95c <vMakeSupportedAttributesReportable+0x18>
     998:	b004      	add	sp, #16
     99a:	e8bd 81f0 	ldmia.w	sp!, {r4, r5, r6, r7, r8, pc}
     99e:	bf00      	nop
     9a0:	000281d7 	.word	0x000281d7
     9a4:	00027a7e 	.word	0x00027a7e
     9a8:	04013948 	.word	0x04013948
     9ac:	00027a96 	.word	0x00027a96

000009b0 <vLoadDefaultConfigForReportable>:
     9b0:	b5f0      	push	{r4, r5, r6, r7, lr}
     9b2:	481e      	ldr	r0, [pc, #120]	; (a2c <vLoadDefaultConfigForReportable+0x7c>)
     9b4:	4f1e      	ldr	r7, [pc, #120]	; (a30 <vLoadDefaultConfigForReportable+0x80>)
     9b6:	b087      	sub	sp, #28
     9b8:	f44f 7220 	mov.w	r2, #640	; 0x280
     9bc:	2100      	movs	r1, #0
     9be:	f026 fc7f 	bl	272c0 <memset>
     9c2:	f8df c068 	ldr.w	ip, [pc, #104]	; a2c <vLoadDefaultConfigForReportable+0x7c>
     9c6:	2600      	movs	r6, #0
     9c8:	19bd      	adds	r5, r7, r6
     9ca:	cd0f      	ldmia	r5!, {r0, r1, r2, r3}
     9cc:	eb0c 0406 	add.w	r4, ip, r6
     9d0:	c40f      	stmia	r4!, {r0, r1, r2, r3}
     9d2:	e895 000f 	ldmia.w	r5, {r0, r1, r2, r3}
     9d6:	3620      	adds	r6, #32
     9d8:	f5b6 7f20 	cmp.w	r6, #640	; 0x280
     9dc:	e884 000f 	stmia.w	r4, {r0, r1, r2, r3}
     9e0:	d1f2      	bne.n	9c8 <vLoadDefaultConfigForReportable+0x18>
     9e2:	4814      	ldr	r0, [pc, #80]	; (a34 <vLoadDefaultConfigForReportable+0x84>)
     9e4:	4c11      	ldr	r4, [pc, #68]	; (a2c <vLoadDefaultConfigForReportable+0x7c>)
     9e6:	4e14      	ldr	r6, [pc, #80]	; (a38 <vLoadDefaultConfigForReportable+0x88>)
     9e8:	f002 fa54 	bl	2e94 <DbgConsole_Printf>
     9ec:	2500      	movs	r5, #0
     9ee:	7e23      	ldrb	r3, [r4, #24]
     9f0:	9304      	str	r3, [sp, #16]
     9f2:	7a23      	ldrb	r3, [r4, #8]
     9f4:	9303      	str	r3, [sp, #12]
     9f6:	8a23      	ldrh	r3, [r4, #16]
     9f8:	9302      	str	r3, [sp, #8]
     9fa:	89e3      	ldrh	r3, [r4, #14]
     9fc:	9301      	str	r3, [sp, #4]
     9fe:	89a3      	ldrh	r3, [r4, #12]
     a00:	9300      	str	r3, [sp, #0]
     a02:	8963      	ldrh	r3, [r4, #10]
     a04:	7a62      	ldrb	r2, [r4, #9]
     a06:	8821      	ldrh	r1, [r4, #0]
     a08:	4630      	mov	r0, r6
     a0a:	3501      	adds	r5, #1
     a0c:	f002 fa42 	bl	2e94 <DbgConsole_Printf>
     a10:	2d14      	cmp	r5, #20
     a12:	f104 0420 	add.w	r4, r4, #32
     a16:	d1ea      	bne.n	9ee <vLoadDefaultConfigForReportable+0x3e>
     a18:	4904      	ldr	r1, [pc, #16]	; (a2c <vLoadDefaultConfigForReportable+0x7c>)
     a1a:	f44f 7220 	mov.w	r2, #640	; 0x280
     a1e:	200b      	movs	r0, #11
     a20:	b007      	add	sp, #28
     a22:	e8bd 40f0 	ldmia.w	sp!, {r4, r5, r6, r7, lr}
     a26:	f00f bc71 	b.w	1030c <PDM_eSaveRecordData>
     a2a:	bf00      	nop
     a2c:	04013948 	.word	0x04013948
     a30:	04013bd0 	.word	0x04013bd0
     a34:	00027ade 	.word	0x00027ade
     a38:	00027af9 	.word	0x00027af9

00000a3c <vSaveReportableRecord>:
     a3c:	e92d 43f0 	stmdb	sp!, {r4, r5, r6, r7, r8, r9, lr}
     a40:	4d22      	ldr	r5, [pc, #136]	; (acc <vSaveReportableRecord+0x90>)
     a42:	f8df 9090 	ldr.w	r9, [pc, #144]	; ad4 <vSaveReportableRecord+0x98>
     a46:	b087      	sub	sp, #28
     a48:	4607      	mov	r7, r0
     a4a:	460e      	mov	r6, r1
     a4c:	2400      	movs	r4, #0
     a4e:	46a8      	mov	r8, r5
     a50:	8873      	ldrh	r3, [r6, #2]
     a52:	463a      	mov	r2, r7
     a54:	4621      	mov	r1, r4
     a56:	4648      	mov	r0, r9
     a58:	f002 fa1c 	bl	2e94 <DbgConsole_Printf>
     a5c:	882b      	ldrh	r3, [r5, #0]
     a5e:	42bb      	cmp	r3, r7
     a60:	d103      	bne.n	a6a <vSaveReportableRecord+0x2e>
     a62:	8969      	ldrh	r1, [r5, #10]
     a64:	8872      	ldrh	r2, [r6, #2]
     a66:	4291      	cmp	r1, r2
     a68:	d006      	beq.n	a78 <vSaveReportableRecord+0x3c>
     a6a:	b12b      	cbz	r3, a78 <vSaveReportableRecord+0x3c>
     a6c:	3401      	adds	r4, #1
     a6e:	2c14      	cmp	r4, #20
     a70:	f105 0520 	add.w	r5, r5, #32
     a74:	d1ec      	bne.n	a50 <vSaveReportableRecord+0x14>
     a76:	2400      	movs	r4, #0
     a78:	ea4f 1944 	mov.w	r9, r4, lsl #5
     a7c:	eb08 1544 	add.w	r5, r8, r4, lsl #5
     a80:	f109 0008 	add.w	r0, r9, #8
     a84:	4631      	mov	r1, r6
     a86:	f828 7009 	strh.w	r7, [r8, r9]
     a8a:	2218      	movs	r2, #24
     a8c:	4440      	add	r0, r8
     a8e:	f026 fb7d 	bl	2718c <memcpy>
     a92:	7e2a      	ldrb	r2, [r5, #24]
     a94:	480e      	ldr	r0, [pc, #56]	; (ad0 <vSaveReportableRecord+0x94>)
     a96:	2300      	movs	r3, #0
     a98:	822b      	strh	r3, [r5, #16]
     a9a:	9205      	str	r2, [sp, #20]
     a9c:	7a2a      	ldrb	r2, [r5, #8]
     a9e:	e9cd 3203 	strd	r3, r2, [sp, #12]
     aa2:	89eb      	ldrh	r3, [r5, #14]
     aa4:	9302      	str	r3, [sp, #8]
     aa6:	89ab      	ldrh	r3, [r5, #12]
     aa8:	9301      	str	r3, [sp, #4]
     aaa:	896b      	ldrh	r3, [r5, #10]
     aac:	9300      	str	r3, [sp, #0]
     aae:	f838 2009 	ldrh.w	r2, [r8, r9]
     ab2:	7a6b      	ldrb	r3, [r5, #9]
     ab4:	4621      	mov	r1, r4
     ab6:	f002 f9ed 	bl	2e94 <DbgConsole_Printf>
     aba:	4904      	ldr	r1, [pc, #16]	; (acc <vSaveReportableRecord+0x90>)
     abc:	f44f 7220 	mov.w	r2, #640	; 0x280
     ac0:	200b      	movs	r0, #11
     ac2:	b007      	add	sp, #28
     ac4:	e8bd 43f0 	ldmia.w	sp!, {r4, r5, r6, r7, r8, r9, lr}
     ac8:	f00f bc20 	b.w	1030c <PDM_eSaveRecordData>
     acc:	04013948 	.word	0x04013948
     ad0:	00027b6d 	.word	0x00027b6d
     ad4:	00027b43 	.word	0x00027b43

00000ad8 <vRestoreDefaultRecord>:
     ad8:	b530      	push	{r4, r5, lr}
     ada:	b087      	sub	sp, #28
     adc:	4d14      	ldr	r5, [pc, #80]	; (b30 <vRestoreDefaultRecord+0x58>)
     ade:	4c15      	ldr	r4, [pc, #84]	; (b34 <vRestoreDefaultRecord+0x5c>)
     ae0:	9500      	str	r5, [sp, #0]
     ae2:	2301      	movs	r3, #1
     ae4:	2200      	movs	r2, #0
     ae6:	f00a ff87 	bl	b9f8 <eZCL_CreateLocalReport>
     aea:	2100      	movs	r1, #0
     aec:	4812      	ldr	r0, [pc, #72]	; (b38 <vRestoreDefaultRecord+0x60>)
     aee:	f002 f9d1 	bl	2e94 <DbgConsole_Printf>
     af2:	4629      	mov	r1, r5
     af4:	2218      	movs	r2, #24
     af6:	f104 0008 	add.w	r0, r4, #8
     afa:	f026 fb47 	bl	2718c <memcpy>
     afe:	7e23      	ldrb	r3, [r4, #24]
     b00:	9304      	str	r3, [sp, #16]
     b02:	7a23      	ldrb	r3, [r4, #8]
     b04:	9303      	str	r3, [sp, #12]
     b06:	8a23      	ldrh	r3, [r4, #16]
     b08:	9302      	str	r3, [sp, #8]
     b0a:	89e3      	ldrh	r3, [r4, #14]
     b0c:	9301      	str	r3, [sp, #4]
     b0e:	89a3      	ldrh	r3, [r4, #12]
     b10:	7a62      	ldrb	r2, [r4, #9]
     b12:	8821      	ldrh	r1, [r4, #0]
     b14:	9300      	str	r3, [sp, #0]
     b16:	4809      	ldr	r0, [pc, #36]	; (b3c <vRestoreDefaultRecord+0x64>)
     b18:	8963      	ldrh	r3, [r4, #10]
     b1a:	f002 f9bb 	bl	2e94 <DbgConsole_Printf>
     b1e:	f44f 7220 	mov.w	r2, #640	; 0x280
     b22:	4621      	mov	r1, r4
     b24:	200b      	movs	r0, #11
     b26:	b007      	add	sp, #28
     b28:	e8bd 4030 	ldmia.w	sp!, {r4, r5, lr}
     b2c:	f00f bbee 	b.w	1030c <PDM_eSaveRecordData>
     b30:	04013bd8 	.word	0x04013bd8
     b34:	04013948 	.word	0x04013948
     b38:	00027bd6 	.word	0x00027bd6
     b3c:	00027bec 	.word	0x00027bec

00000b40 <vfExtendedStatusCallBack>:
     b40:	4770      	bx	lr
     b42:	Address 0x00000b42 is out of bounds.


00000b44 <PreSleep>:
     b44:	b508      	push	{r3, lr}
     b46:	2001      	movs	r0, #1
     b48:	f006 fce2 	bl	7510 <PWR_vWakeUpConfig>
     b4c:	f022 fb90 	bl	23270 <vAppApiSaveMacSettings>
     b50:	f002 fdde 	bl	3710 <ZTIMER_vSleep>
     b54:	4b04      	ldr	r3, [pc, #16]	; (b68 <PreSleep+0x24>)
     b56:	2201      	movs	r2, #1
     b58:	729a      	strb	r2, [r3, #10]
     b5a:	f002 f97f 	bl	2e5c <DbgConsole_Deinit>
     b5e:	e8bd 4008 	ldmia.w	sp!, {r3, lr}
     b62:	f002 bad5 	b.w	3110 <BOARD_SetPinsForPowerMode>
     b66:	bf00      	nop
     b68:	40080000 	.word	0x40080000

00000b6c <Wakeup>:
     b6c:	b508      	push	{r3, lr}
     b6e:	f7ff fc3f 	bl	3f0 <APP_vSetUpHardware>
     b72:	4b09      	ldr	r3, [pc, #36]	; (b98 <Wakeup+0x2c>)
     b74:	2201      	movs	r2, #1
     b76:	729a      	strb	r2, [r3, #10]
     b78:	f001 fde4 	bl	2744 <bTSL25721_Init>
     b7c:	4b07      	ldr	r3, [pc, #28]	; (b9c <Wakeup+0x30>)
     b7e:	6f1b      	ldr	r3, [r3, #112]	; 0x70
     b80:	f013 0f60 	tst.w	r3, #96	; 0x60
     b84:	d007      	beq.n	b96 <Wakeup+0x2a>
     b86:	f01a fbd7 	bl	1b338 <vAppApiRestoreMacSettings>
     b8a:	f002 fdc9 	bl	3720 <ZTIMER_vWake>
     b8e:	e8bd 4008 	ldmia.w	sp!, {r3, lr}
     b92:	f001 bb83 	b.w	229c <APP_bButtonInitialise>
     b96:	bd08      	pop	{r3, pc}
     b98:	40080000 	.word	0x40080000
     b9c:	40012000 	.word	0x40012000

00000ba0 <vAppMain>:
     ba0:	b57f      	push	{r0, r1, r2, r3, r4, r5, r6, lr}
     ba2:	f004 fef7 	bl	5994 <vDebugExceptionHandlersInitialise>
     ba6:	a801      	add	r0, sp, #4
     ba8:	f003 f8d6 	bl	3d58 <WWDT_GetDefaultConfig>
     bac:	4b17      	ldr	r3, [pc, #92]	; (c0c <vAppMain+0x6c>)
     bae:	6f1a      	ldr	r2, [r3, #112]	; 0x70
     bb0:	06d2      	lsls	r2, r2, #27
     bb2:	bf44      	itt	mi
     bb4:	2210      	movmi	r2, #16
     bb6:	671a      	strmi	r2, [r3, #112]	; 0x70
     bb8:	f7ff fc76 	bl	4a8 <APP_vInitResources>
     bbc:	2001      	movs	r0, #1
     bbe:	f006 fb83 	bl	72c8 <PWR_ChangeDeepSleepMode>
     bc2:	f006 fba3 	bl	730c <PWR_Init>
     bc6:	2001      	movs	r0, #1
     bc8:	f006 fcd6 	bl	7578 <PWR_vForceRadioRetention>
     bcc:	2200      	movs	r2, #0
     bce:	213f      	movs	r1, #63	; 0x3f
     bd0:	f44f 6096 	mov.w	r0, #1200	; 0x4b0
     bd4:	f00d fd22 	bl	e61c <PDM_eInitialise>
     bd8:	f7ff fdd8 	bl	78c <PDUM_vInit>
     bdc:	480c      	ldr	r0, [pc, #48]	; (c10 <vAppMain+0x70>)
     bde:	f01a fe3b 	bl	1b858 <ZPS_vExtendedStatusSetCallback>
     be2:	f001 f809 	bl	1bf8 <APP_vInitialiseNode>
     be6:	f00c f8a1 	bl	cd2c <BDB_vStart>
     bea:	f000 fff3 	bl	1bd4 <APP_bNodeIsInRunningState>
     bee:	b908      	cbnz	r0, bf4 <vAppMain+0x54>
     bf0:	f00c faaa 	bl	d148 <BDB_eNsStartNwkSteering>
     bf4:	f04f 4380 	mov.w	r3, #1073741824	; 0x40000000
     bf8:	2202      	movs	r2, #2
     bfa:	f8c3 2280 	str.w	r2, [r3, #640]	; 0x280
     bfe:	f002 ffe1 	bl	3bc4 <SystemCoreClockUpdate>
     c02:	f007 fcc5 	bl	8590 <OSA_TimeInit>
     c06:	b007      	add	sp, #28
     c08:	f85d fb04 	ldr.w	pc, [sp], #4
     c0c:	40012000 	.word	0x40012000
     c10:	00000b41 	.word	0x00000b41

00000c14 <vAppRegisterPWRCallbacks>:
     c14:	b508      	push	{r3, lr}
     c16:	4804      	ldr	r0, [pc, #16]	; (c28 <vAppRegisterPWRCallbacks+0x14>)
     c18:	f006 fc6e 	bl	74f8 <PWR_RegisterLowPowerEnterCallback>
     c1c:	e8bd 4008 	ldmia.w	sp!, {r3, lr}
     c20:	4802      	ldr	r0, [pc, #8]	; (c2c <vAppRegisterPWRCallbacks+0x18>)
     c22:	f006 bc6f 	b.w	7504 <PWR_RegisterLowPowerExitCallback>
     c26:	bf00      	nop
     c28:	00000b45 	.word	0x00000b45
     c2c:	00000b6d 	.word	0x00000b6d

00000c30 <hardware_init>:
     c30:	b510      	push	{r4, lr}
     c32:	4c05      	ldr	r4, [pc, #20]	; (c48 <hardware_init+0x18>)
     c34:	7823      	ldrb	r3, [r4, #0]
     c36:	b92b      	cbnz	r3, c44 <hardware_init+0x14>
     c38:	f7ff fbda 	bl	3f0 <APP_vSetUpHardware>
     c3c:	f006 fd5e 	bl	76fc <PWR_vColdStart>
     c40:	2301      	movs	r3, #1
     c42:	7023      	strb	r3, [r4, #0]
     c44:	bd10      	pop	{r4, pc}
     c46:	bf00      	nop
     c48:	04013bc8 	.word	0x04013bc8

00000c4c <eApp_ZCL_RegisterEndpoint>:
     c4c:	4601      	mov	r1, r0
     c4e:	4a02      	ldr	r2, [pc, #8]	; (c58 <eApp_ZCL_RegisterEndpoint+0xc>)
     c50:	2001      	movs	r0, #1
     c52:	f008 b955 	b.w	8f00 <eZLO_RegisterSimpleMeteringEndPoint>
     c56:	bf00      	nop
     c58:	04013fd8 	.word	0x04013fd8

00000c5c <vAPP_ZCL_DeviceSpecific_Init>:
     c5c:	b510      	push	{r4, lr}
     c5e:	4c17      	ldr	r4, [pc, #92]	; (cbc <vAPP_ZCL_DeviceSpecific_Init+0x60>)
     c60:	4917      	ldr	r1, [pc, #92]	; (cc0 <vAPP_ZCL_DeviceSpecific_Init+0x64>)
     c62:	2205      	movs	r2, #5
     c64:	f104 00e8 	add.w	r0, r4, #232	; 0xe8
     c68:	f026 fa90 	bl	2718c <memcpy>
     c6c:	4915      	ldr	r1, [pc, #84]	; (cc4 <vAPP_ZCL_DeviceSpecific_Init+0x68>)
     c6e:	220b      	movs	r2, #11
     c70:	f504 7088 	add.w	r0, r4, #272	; 0x110
     c74:	f026 fa8a 	bl	2718c <memcpy>
     c78:	4913      	ldr	r1, [pc, #76]	; (cc8 <vAPP_ZCL_DeviceSpecific_Init+0x6c>)
     c7a:	2208      	movs	r2, #8
     c7c:	f504 709c 	add.w	r0, r4, #312	; 0x138
     c80:	f026 fa84 	bl	2718c <memcpy>
     c84:	4911      	ldr	r1, [pc, #68]	; (ccc <vAPP_ZCL_DeviceSpecific_Init+0x70>)
     c86:	2209      	movs	r2, #9
     c88:	f504 70ca 	add.w	r0, r4, #404	; 0x194
     c8c:	f026 fa7e 	bl	2718c <memcpy>
     c90:	490f      	ldr	r1, [pc, #60]	; (cd0 <vAPP_ZCL_DeviceSpecific_Init+0x74>)
     c92:	220c      	movs	r2, #12
     c94:	f504 70b6 	add.w	r0, r4, #364	; 0x16c
     c98:	f026 fa78 	bl	2718c <memcpy>
     c9c:	490d      	ldr	r1, [pc, #52]	; (cd4 <vAPP_ZCL_DeviceSpecific_Init+0x78>)
     c9e:	2204      	movs	r2, #4
     ca0:	f504 70aa 	add.w	r0, r4, #340	; 0x154
     ca4:	f026 fa72 	bl	2718c <memcpy>
     ca8:	490b      	ldr	r1, [pc, #44]	; (cd8 <vAPP_ZCL_DeviceSpecific_Init+0x7c>)
     caa:	2204      	movs	r2, #4
     cac:	f204 403c 	addw	r0, r4, #1084	; 0x43c
     cb0:	f026 fa6c 	bl	2718c <memcpy>
     cb4:	2300      	movs	r3, #0
     cb6:	f884 334b 	strb.w	r3, [r4, #843]	; 0x34b
     cba:	bd10      	pop	{r4, pc}
     cbc:	04013fd8 	.word	0x04013fd8
     cc0:	00027c4e 	.word	0x00027c4e
     cc4:	00027c54 	.word	0x00027c54
     cc8:	00027c5f 	.word	0x00027c5f
     ccc:	00027c68 	.word	0x00027c68
     cd0:	00027c72 	.word	0x00027c72
     cd4:	00027c6d 	.word	0x00027c6d
     cd8:	00027c7b 	.word	0x00027c7b

00000cdc <vAPP_ZCL_DeviceSpecific_SetIdentifyTime>:
     cdc:	4b01      	ldr	r3, [pc, #4]	; (ce4 <vAPP_ZCL_DeviceSpecific_SetIdentifyTime+0x8>)
     cde:	f8a3 01ac 	strh.w	r0, [r3, #428]	; 0x1ac
     ce2:	4770      	bx	lr
     ce4:	04013fd8 	.word	0x04013fd8

00000ce8 <vAPP_ZCL_DeviceSpecific_IdentifyOff>:
     ce8:	4b03      	ldr	r3, [pc, #12]	; (cf8 <vAPP_ZCL_DeviceSpecific_IdentifyOff+0x10>)
     cea:	2200      	movs	r2, #0
     cec:	f8a3 21ac 	strh.w	r2, [r3, #428]	; 0x1ac
     cf0:	4b02      	ldr	r3, [pc, #8]	; (cfc <vAPP_ZCL_DeviceSpecific_IdentifyOff+0x14>)
     cf2:	2201      	movs	r2, #1
     cf4:	729a      	strb	r2, [r3, #10]
     cf6:	4770      	bx	lr
     cf8:	04013fd8 	.word	0x04013fd8
     cfc:	40080000 	.word	0x40080000

00000d00 <APP_vProcessRxDataStandard>:
     d00:	b530      	push	{r4, r5, lr}
     d02:	4d9c      	ldr	r5, [pc, #624]	; (f74 <APP_vProcessRxDataStandard+0x274>)
     d04:	782b      	ldrb	r3, [r5, #0]
     d06:	2b01      	cmp	r3, #1
     d08:	b085      	sub	sp, #20
     d0a:	f200 82aa 	bhi.w	1262 <STACK_SIZE+0x282>
     d0e:	4c9a      	ldr	r4, [pc, #616]	; (f78 <APP_vProcessRxDataStandard+0x278>)
     d10:	4b9a      	ldr	r3, [pc, #616]	; (f7c <APP_vProcessRxDataStandard+0x27c>)
     d12:	6822      	ldr	r2, [r4, #0]
     d14:	429a      	cmp	r2, r3
     d16:	f200 82a6 	bhi.w	1266 <STACK_SIZE+0x286>
     d1a:	4899      	ldr	r0, [pc, #612]	; (f80 <APP_vProcessRxDataStandard+0x280>)
     d1c:	f10d 010f 	add.w	r1, sp, #15
     d20:	f002 fcc2 	bl	36a8 <ZQ_bQueueReceive>
     d24:	2800      	cmp	r0, #0
     d26:	f000 8298 	beq.w	125a <STACK_SIZE+0x27a>
     d2a:	f89d 300f 	ldrb.w	r3, [sp, #15]
     d2e:	9300      	str	r3, [sp, #0]
     d30:	4a94      	ldr	r2, [pc, #592]	; (f84 <APP_vProcessRxDataStandard+0x284>)
     d32:	4b95      	ldr	r3, [pc, #596]	; (f88 <APP_vProcessRxDataStandard+0x288>)
     d34:	4995      	ldr	r1, [pc, #596]	; (f8c <APP_vProcessRxDataStandard+0x28c>)
     d36:	f44f 7087 	mov.w	r0, #270	; 0x10e
     d3a:	f001 fb9d 	bl	2478 <bSL_ReadMessageStandard>
     d3e:	b1c0      	cbz	r0, d72 <APP_vProcessRxDataStandard+0x72>
     d40:	2300      	movs	r3, #0
     d42:	4993      	ldr	r1, [pc, #588]	; (f90 <APP_vProcessRxDataStandard+0x290>)
     d44:	4891      	ldr	r0, [pc, #580]	; (f8c <APP_vProcessRxDataStandard+0x28c>)
     d46:	6023      	str	r3, [r4, #0]
     d48:	2204      	movs	r2, #4
     d4a:	f026 f9ef 	bl	2712c <memcmp>
     d4e:	b9b0      	cbnz	r0, d7e <APP_vProcessRxDataStandard+0x7e>
     d50:	4c90      	ldr	r4, [pc, #576]	; (f94 <APP_vProcessRxDataStandard+0x294>)
     d52:	498d      	ldr	r1, [pc, #564]	; (f88 <APP_vProcessRxDataStandard+0x288>)
     d54:	4890      	ldr	r0, [pc, #576]	; (f98 <APP_vProcessRxDataStandard+0x298>)
     d56:	f002 f89d 	bl	2e94 <DbgConsole_Printf>
     d5a:	498b      	ldr	r1, [pc, #556]	; (f88 <APP_vProcessRxDataStandard+0x288>)
     d5c:	f8d4 0378 	ldr.w	r0, [r4, #888]	; 0x378
     d60:	220c      	movs	r2, #12
     d62:	f026 fa13 	bl	2718c <memcpy>
     d66:	230c      	movs	r3, #12
     d68:	f884 3375 	strb.w	r3, [r4, #885]	; 0x375
     d6c:	782b      	ldrb	r3, [r5, #0]
     d6e:	3301      	adds	r3, #1
     d70:	702b      	strb	r3, [r5, #0]
     d72:	488a      	ldr	r0, [pc, #552]	; (f9c <APP_vProcessRxDataStandard+0x29c>)
     d74:	f003 f876 	bl	3e64 <WWDT_Refresh>
     d78:	2000      	movs	r0, #0
     d7a:	b005      	add	sp, #20
     d7c:	bd30      	pop	{r4, r5, pc}
     d7e:	4988      	ldr	r1, [pc, #544]	; (fa0 <APP_vProcessRxDataStandard+0x2a0>)
     d80:	4882      	ldr	r0, [pc, #520]	; (f8c <APP_vProcessRxDataStandard+0x28c>)
     d82:	2204      	movs	r2, #4
     d84:	f026 f9d2 	bl	2712c <memcmp>
     d88:	b950      	cbnz	r0, da0 <APP_vProcessRxDataStandard+0xa0>
     d8a:	497f      	ldr	r1, [pc, #508]	; (f88 <APP_vProcessRxDataStandard+0x288>)
     d8c:	4885      	ldr	r0, [pc, #532]	; (fa4 <APP_vProcessRxDataStandard+0x2a4>)
     d8e:	f002 f881 	bl	2e94 <DbgConsole_Printf>
     d92:	487d      	ldr	r0, [pc, #500]	; (f88 <APP_vProcessRxDataStandard+0x288>)
     d94:	f026 f9c2 	bl	2711c <atoi>
     d98:	4b7e      	ldr	r3, [pc, #504]	; (f94 <APP_vProcessRxDataStandard+0x294>)
     d9a:	f8a3 042e 	strh.w	r0, [r3, #1070]	; 0x42e
     d9e:	e7e8      	b.n	d72 <APP_vProcessRxDataStandard+0x72>
     da0:	4981      	ldr	r1, [pc, #516]	; (fa8 <APP_vProcessRxDataStandard+0x2a8>)
     da2:	487a      	ldr	r0, [pc, #488]	; (f8c <APP_vProcessRxDataStandard+0x28c>)
     da4:	2204      	movs	r2, #4
     da6:	f026 f9c1 	bl	2712c <memcmp>
     daa:	b920      	cbnz	r0, db6 <APP_vProcessRxDataStandard+0xb6>
     dac:	4976      	ldr	r1, [pc, #472]	; (f88 <APP_vProcessRxDataStandard+0x288>)
     dae:	487f      	ldr	r0, [pc, #508]	; (fac <APP_vProcessRxDataStandard+0x2ac>)
     db0:	f002 f870 	bl	2e94 <DbgConsole_Printf>
     db4:	e7dd      	b.n	d72 <APP_vProcessRxDataStandard+0x72>
     db6:	497e      	ldr	r1, [pc, #504]	; (fb0 <APP_vProcessRxDataStandard+0x2b0>)
     db8:	4874      	ldr	r0, [pc, #464]	; (f8c <APP_vProcessRxDataStandard+0x28c>)
     dba:	2206      	movs	r2, #6
     dbc:	f026 f9b6 	bl	2712c <memcmp>
     dc0:	b950      	cbnz	r0, dd8 <APP_vProcessRxDataStandard+0xd8>
     dc2:	4971      	ldr	r1, [pc, #452]	; (f88 <APP_vProcessRxDataStandard+0x288>)
     dc4:	487b      	ldr	r0, [pc, #492]	; (fb4 <APP_vProcessRxDataStandard+0x2b4>)
     dc6:	f002 f865 	bl	2e94 <DbgConsole_Printf>
     dca:	486f      	ldr	r0, [pc, #444]	; (f88 <APP_vProcessRxDataStandard+0x288>)
     dcc:	f026 f9aa 	bl	27124 <atol>
     dd0:	4b70      	ldr	r3, [pc, #448]	; (f94 <APP_vProcessRxDataStandard+0x294>)
     dd2:	f8c3 0320 	str.w	r0, [r3, #800]	; 0x320
     dd6:	e7cc      	b.n	d72 <APP_vProcessRxDataStandard+0x72>
     dd8:	4977      	ldr	r1, [pc, #476]	; (fb8 <APP_vProcessRxDataStandard+0x2b8>)
     dda:	486c      	ldr	r0, [pc, #432]	; (f8c <APP_vProcessRxDataStandard+0x28c>)
     ddc:	2206      	movs	r2, #6
     dde:	f026 f9a5 	bl	2712c <memcmp>
     de2:	b950      	cbnz	r0, dfa <APP_vProcessRxDataStandard+0xfa>
     de4:	4968      	ldr	r1, [pc, #416]	; (f88 <APP_vProcessRxDataStandard+0x288>)
     de6:	4875      	ldr	r0, [pc, #468]	; (fbc <APP_vProcessRxDataStandard+0x2bc>)
     de8:	f002 f854 	bl	2e94 <DbgConsole_Printf>
     dec:	4866      	ldr	r0, [pc, #408]	; (f88 <APP_vProcessRxDataStandard+0x288>)
     dee:	f026 f999 	bl	27124 <atol>
     df2:	4b68      	ldr	r3, [pc, #416]	; (f94 <APP_vProcessRxDataStandard+0x294>)
     df4:	f8c3 0324 	str.w	r0, [r3, #804]	; 0x324
     df8:	e7bb      	b.n	d72 <APP_vProcessRxDataStandard+0x72>
     dfa:	4971      	ldr	r1, [pc, #452]	; (fc0 <APP_vProcessRxDataStandard+0x2c0>)
     dfc:	4863      	ldr	r0, [pc, #396]	; (f8c <APP_vProcessRxDataStandard+0x28c>)
     dfe:	2206      	movs	r2, #6
     e00:	f026 f994 	bl	2712c <memcmp>
     e04:	b950      	cbnz	r0, e1c <APP_vProcessRxDataStandard+0x11c>
     e06:	4960      	ldr	r1, [pc, #384]	; (f88 <APP_vProcessRxDataStandard+0x288>)
     e08:	486e      	ldr	r0, [pc, #440]	; (fc4 <APP_vProcessRxDataStandard+0x2c4>)
     e0a:	f002 f843 	bl	2e94 <DbgConsole_Printf>
     e0e:	485e      	ldr	r0, [pc, #376]	; (f88 <APP_vProcessRxDataStandard+0x288>)
     e10:	f026 f988 	bl	27124 <atol>
     e14:	4b5f      	ldr	r3, [pc, #380]	; (f94 <APP_vProcessRxDataStandard+0x294>)
     e16:	f8c3 0328 	str.w	r0, [r3, #808]	; 0x328
     e1a:	e7aa      	b.n	d72 <APP_vProcessRxDataStandard+0x72>
     e1c:	496a      	ldr	r1, [pc, #424]	; (fc8 <APP_vProcessRxDataStandard+0x2c8>)
     e1e:	485b      	ldr	r0, [pc, #364]	; (f8c <APP_vProcessRxDataStandard+0x28c>)
     e20:	2206      	movs	r2, #6
     e22:	f026 f983 	bl	2712c <memcmp>
     e26:	b950      	cbnz	r0, e3e <APP_vProcessRxDataStandard+0x13e>
     e28:	4957      	ldr	r1, [pc, #348]	; (f88 <APP_vProcessRxDataStandard+0x288>)
     e2a:	4868      	ldr	r0, [pc, #416]	; (fcc <APP_vProcessRxDataStandard+0x2cc>)
     e2c:	f002 f832 	bl	2e94 <DbgConsole_Printf>
     e30:	4855      	ldr	r0, [pc, #340]	; (f88 <APP_vProcessRxDataStandard+0x288>)
     e32:	f026 f977 	bl	27124 <atol>
     e36:	4b57      	ldr	r3, [pc, #348]	; (f94 <APP_vProcessRxDataStandard+0x294>)
     e38:	f8c3 032c 	str.w	r0, [r3, #812]	; 0x32c
     e3c:	e799      	b.n	d72 <APP_vProcessRxDataStandard+0x72>
     e3e:	4964      	ldr	r1, [pc, #400]	; (fd0 <APP_vProcessRxDataStandard+0x2d0>)
     e40:	4852      	ldr	r0, [pc, #328]	; (f8c <APP_vProcessRxDataStandard+0x28c>)
     e42:	2206      	movs	r2, #6
     e44:	f026 f972 	bl	2712c <memcmp>
     e48:	b950      	cbnz	r0, e60 <APP_vProcessRxDataStandard+0x160>
     e4a:	494f      	ldr	r1, [pc, #316]	; (f88 <APP_vProcessRxDataStandard+0x288>)
     e4c:	4861      	ldr	r0, [pc, #388]	; (fd4 <APP_vProcessRxDataStandard+0x2d4>)
     e4e:	f002 f821 	bl	2e94 <DbgConsole_Printf>
     e52:	484d      	ldr	r0, [pc, #308]	; (f88 <APP_vProcessRxDataStandard+0x288>)
     e54:	f026 f966 	bl	27124 <atol>
     e58:	4b4e      	ldr	r3, [pc, #312]	; (f94 <APP_vProcessRxDataStandard+0x294>)
     e5a:	f8c3 0330 	str.w	r0, [r3, #816]	; 0x330
     e5e:	e788      	b.n	d72 <APP_vProcessRxDataStandard+0x72>
     e60:	495d      	ldr	r1, [pc, #372]	; (fd8 <APP_vProcessRxDataStandard+0x2d8>)
     e62:	484a      	ldr	r0, [pc, #296]	; (f8c <APP_vProcessRxDataStandard+0x28c>)
     e64:	2206      	movs	r2, #6
     e66:	f026 f961 	bl	2712c <memcmp>
     e6a:	b950      	cbnz	r0, e82 <APP_vProcessRxDataStandard+0x182>
     e6c:	4946      	ldr	r1, [pc, #280]	; (f88 <APP_vProcessRxDataStandard+0x288>)
     e6e:	485b      	ldr	r0, [pc, #364]	; (fdc <APP_vProcessRxDataStandard+0x2dc>)
     e70:	f002 f810 	bl	2e94 <DbgConsole_Printf>
     e74:	4844      	ldr	r0, [pc, #272]	; (f88 <APP_vProcessRxDataStandard+0x288>)
     e76:	f026 f955 	bl	27124 <atol>
     e7a:	4b46      	ldr	r3, [pc, #280]	; (f94 <APP_vProcessRxDataStandard+0x294>)
     e7c:	f8c3 0334 	str.w	r0, [r3, #820]	; 0x334
     e80:	e777      	b.n	d72 <APP_vProcessRxDataStandard+0x72>
     e82:	4957      	ldr	r1, [pc, #348]	; (fe0 <STACK_SIZE>)
     e84:	4841      	ldr	r0, [pc, #260]	; (f8c <APP_vProcessRxDataStandard+0x28c>)
     e86:	2206      	movs	r2, #6
     e88:	f026 f950 	bl	2712c <memcmp>
     e8c:	b950      	cbnz	r0, ea4 <APP_vProcessRxDataStandard+0x1a4>
     e8e:	493e      	ldr	r1, [pc, #248]	; (f88 <APP_vProcessRxDataStandard+0x288>)
     e90:	4854      	ldr	r0, [pc, #336]	; (fe4 <STACK_SIZE+0x4>)
     e92:	f001 ffff 	bl	2e94 <DbgConsole_Printf>
     e96:	483c      	ldr	r0, [pc, #240]	; (f88 <APP_vProcessRxDataStandard+0x288>)
     e98:	f026 f944 	bl	27124 <atol>
     e9c:	4b3d      	ldr	r3, [pc, #244]	; (f94 <APP_vProcessRxDataStandard+0x294>)
     e9e:	f8c3 0338 	str.w	r0, [r3, #824]	; 0x338
     ea2:	e766      	b.n	d72 <APP_vProcessRxDataStandard+0x72>
     ea4:	4950      	ldr	r1, [pc, #320]	; (fe8 <STACK_SIZE+0x8>)
     ea6:	4839      	ldr	r0, [pc, #228]	; (f8c <APP_vProcessRxDataStandard+0x28c>)
     ea8:	2206      	movs	r2, #6
     eaa:	f026 f93f 	bl	2712c <memcmp>
     eae:	b950      	cbnz	r0, ec6 <APP_vProcessRxDataStandard+0x1c6>
     eb0:	4935      	ldr	r1, [pc, #212]	; (f88 <APP_vProcessRxDataStandard+0x288>)
     eb2:	484e      	ldr	r0, [pc, #312]	; (fec <STACK_SIZE+0xc>)
     eb4:	f001 ffee 	bl	2e94 <DbgConsole_Printf>
     eb8:	4833      	ldr	r0, [pc, #204]	; (f88 <APP_vProcessRxDataStandard+0x288>)
     eba:	f026 f933 	bl	27124 <atol>
     ebe:	4b35      	ldr	r3, [pc, #212]	; (f94 <APP_vProcessRxDataStandard+0x294>)
     ec0:	f8c3 033c 	str.w	r0, [r3, #828]	; 0x33c
     ec4:	e755      	b.n	d72 <APP_vProcessRxDataStandard+0x72>
     ec6:	494a      	ldr	r1, [pc, #296]	; (ff0 <STACK_SIZE+0x10>)
     ec8:	4830      	ldr	r0, [pc, #192]	; (f8c <APP_vProcessRxDataStandard+0x28c>)
     eca:	2206      	movs	r2, #6
     ecc:	f026 f92e 	bl	2712c <memcmp>
     ed0:	b950      	cbnz	r0, ee8 <APP_vProcessRxDataStandard+0x1e8>
     ed2:	492d      	ldr	r1, [pc, #180]	; (f88 <APP_vProcessRxDataStandard+0x288>)
     ed4:	4847      	ldr	r0, [pc, #284]	; (ff4 <STACK_SIZE+0x14>)
     ed6:	f001 ffdd 	bl	2e94 <DbgConsole_Printf>
     eda:	482b      	ldr	r0, [pc, #172]	; (f88 <APP_vProcessRxDataStandard+0x288>)
     edc:	f026 f922 	bl	27124 <atol>
     ee0:	4b2c      	ldr	r3, [pc, #176]	; (f94 <APP_vProcessRxDataStandard+0x294>)
     ee2:	f8c3 0340 	str.w	r0, [r3, #832]	; 0x340
     ee6:	e744      	b.n	d72 <APP_vProcessRxDataStandard+0x72>
     ee8:	4943      	ldr	r1, [pc, #268]	; (ff8 <STACK_SIZE+0x18>)
     eea:	4828      	ldr	r0, [pc, #160]	; (f8c <APP_vProcessRxDataStandard+0x28c>)
     eec:	2206      	movs	r2, #6
     eee:	f026 f91d 	bl	2712c <memcmp>
     ef2:	b950      	cbnz	r0, f0a <APP_vProcessRxDataStandard+0x20a>
     ef4:	4924      	ldr	r1, [pc, #144]	; (f88 <APP_vProcessRxDataStandard+0x288>)
     ef6:	4841      	ldr	r0, [pc, #260]	; (ffc <STACK_SIZE+0x1c>)
     ef8:	f001 ffcc 	bl	2e94 <DbgConsole_Printf>
     efc:	4822      	ldr	r0, [pc, #136]	; (f88 <APP_vProcessRxDataStandard+0x288>)
     efe:	f026 f911 	bl	27124 <atol>
     f02:	4b24      	ldr	r3, [pc, #144]	; (f94 <APP_vProcessRxDataStandard+0x294>)
     f04:	f8c3 0344 	str.w	r0, [r3, #836]	; 0x344
     f08:	e733      	b.n	d72 <APP_vProcessRxDataStandard+0x72>
     f0a:	493d      	ldr	r1, [pc, #244]	; (1000 <STACK_SIZE+0x20>)
     f0c:	481f      	ldr	r0, [pc, #124]	; (f8c <APP_vProcessRxDataStandard+0x28c>)
     f0e:	2204      	movs	r2, #4
     f10:	f026 f90c 	bl	2712c <memcmp>
     f14:	b950      	cbnz	r0, f2c <APP_vProcessRxDataStandard+0x22c>
     f16:	491c      	ldr	r1, [pc, #112]	; (f88 <APP_vProcessRxDataStandard+0x288>)
     f18:	483a      	ldr	r0, [pc, #232]	; (1004 <STACK_SIZE+0x24>)
     f1a:	f001 ffbb 	bl	2e94 <DbgConsole_Printf>
     f1e:	481a      	ldr	r0, [pc, #104]	; (f88 <APP_vProcessRxDataStandard+0x288>)
     f20:	f026 f900 	bl	27124 <atol>
     f24:	4b1b      	ldr	r3, [pc, #108]	; (f94 <APP_vProcessRxDataStandard+0x294>)
     f26:	f8c3 0310 	str.w	r0, [r3, #784]	; 0x310
     f2a:	e722      	b.n	d72 <APP_vProcessRxDataStandard+0x72>
     f2c:	4936      	ldr	r1, [pc, #216]	; (1008 <STACK_SIZE+0x28>)
     f2e:	4817      	ldr	r0, [pc, #92]	; (f8c <APP_vProcessRxDataStandard+0x28c>)
     f30:	2205      	movs	r2, #5
     f32:	f026 f8fb 	bl	2712c <memcmp>
     f36:	b950      	cbnz	r0, f4e <APP_vProcessRxDataStandard+0x24e>
     f38:	4913      	ldr	r1, [pc, #76]	; (f88 <APP_vProcessRxDataStandard+0x288>)
     f3a:	4834      	ldr	r0, [pc, #208]	; (100c <STACK_SIZE+0x2c>)
     f3c:	f001 ffaa 	bl	2e94 <DbgConsole_Printf>
     f40:	4811      	ldr	r0, [pc, #68]	; (f88 <APP_vProcessRxDataStandard+0x288>)
     f42:	f026 f8eb 	bl	2711c <atoi>
     f46:	4b13      	ldr	r3, [pc, #76]	; (f94 <APP_vProcessRxDataStandard+0x294>)
     f48:	f8a3 0406 	strh.w	r0, [r3, #1030]	; 0x406
     f4c:	e711      	b.n	d72 <APP_vProcessRxDataStandard+0x72>
     f4e:	4930      	ldr	r1, [pc, #192]	; (1010 <STACK_SIZE+0x30>)
     f50:	480e      	ldr	r0, [pc, #56]	; (f8c <APP_vProcessRxDataStandard+0x28c>)
     f52:	2205      	movs	r2, #5
     f54:	f026 f8ea 	bl	2712c <memcmp>
     f58:	2800      	cmp	r0, #0
     f5a:	d15d      	bne.n	1018 <STACK_SIZE+0x38>
     f5c:	490a      	ldr	r1, [pc, #40]	; (f88 <APP_vProcessRxDataStandard+0x288>)
     f5e:	482d      	ldr	r0, [pc, #180]	; (1014 <STACK_SIZE+0x34>)
     f60:	f001 ff98 	bl	2e94 <DbgConsole_Printf>
     f64:	4808      	ldr	r0, [pc, #32]	; (f88 <APP_vProcessRxDataStandard+0x288>)
     f66:	f026 f8d9 	bl	2711c <atoi>
     f6a:	4b0a      	ldr	r3, [pc, #40]	; (f94 <APP_vProcessRxDataStandard+0x294>)
     f6c:	f8a3 0412 	strh.w	r0, [r3, #1042]	; 0x412
     f70:	e6ff      	b.n	d72 <APP_vProcessRxDataStandard+0x72>
     f72:	bf00      	nop
     f74:	04013fd0 	.word	0x04013fd0
     f78:	04014438 	.word	0x04014438
     f7c:	000186a0 	.word	0x000186a0
     f80:	04011f74 	.word	0x04011f74
     f84:	04013ed0 	.word	0x04013ed0
     f88:	04013f50 	.word	0x04013f50
     f8c:	04013e50 	.word	0x04013e50
     f90:	00027c80 	.word	0x00027c80
     f94:	04013fd8 	.word	0x04013fd8
     f98:	00027c85 	.word	0x00027c85
     f9c:	4000a000 	.word	0x4000a000
     fa0:	00027c91 	.word	0x00027c91
     fa4:	00027c96 	.word	0x00027c96
     fa8:	00027ca2 	.word	0x00027ca2
     fac:	00027ca7 	.word	0x00027ca7
     fb0:	00027cb3 	.word	0x00027cb3
     fb4:	00027cba 	.word	0x00027cba
     fb8:	00027cc8 	.word	0x00027cc8
     fbc:	00027ccf 	.word	0x00027ccf
     fc0:	00027cdd 	.word	0x00027cdd
     fc4:	00027ce4 	.word	0x00027ce4
     fc8:	00027cf2 	.word	0x00027cf2
     fcc:	00027cf9 	.word	0x00027cf9
     fd0:	00027d07 	.word	0x00027d07
     fd4:	00027d0e 	.word	0x00027d0e
     fd8:	00027d1c 	.word	0x00027d1c
     fdc:	00027d23 	.word	0x00027d23
     fe0:	00027d31 	.word	0x00027d31
     fe4:	00027d38 	.word	0x00027d38
     fe8:	00027d46 	.word	0x00027d46
     fec:	00027d4d 	.word	0x00027d4d
     ff0:	00027d5b 	.word	0x00027d5b
     ff4:	00027d62 	.word	0x00027d62
     ff8:	00027d70 	.word	0x00027d70
     ffc:	00027d77 	.word	0x00027d77
    1000:	00027d85 	.word	0x00027d85
    1004:	00027d8a 	.word	0x00027d8a
    1008:	00027d96 	.word	0x00027d96
    100c:	00027d9c 	.word	0x00027d9c
    1010:	00027da9 	.word	0x00027da9
    1014:	00027daf 	.word	0x00027daf
    1018:	4994      	ldr	r1, [pc, #592]	; (126c <STACK_SIZE+0x28c>)
    101a:	4895      	ldr	r0, [pc, #596]	; (1270 <STACK_SIZE+0x290>)
    101c:	2205      	movs	r2, #5
    101e:	f026 f885 	bl	2712c <memcmp>
    1022:	b950      	cbnz	r0, 103a <STACK_SIZE+0x5a>
    1024:	4993      	ldr	r1, [pc, #588]	; (1274 <STACK_SIZE+0x294>)
    1026:	4894      	ldr	r0, [pc, #592]	; (1278 <STACK_SIZE+0x298>)
    1028:	f001 ff34 	bl	2e94 <DbgConsole_Printf>
    102c:	4891      	ldr	r0, [pc, #580]	; (1274 <STACK_SIZE+0x294>)
    102e:	f026 f875 	bl	2711c <atoi>
    1032:	4b92      	ldr	r3, [pc, #584]	; (127c <STACK_SIZE+0x29c>)
    1034:	f8a3 041c 	strh.w	r0, [r3, #1052]	; 0x41c
    1038:	e69b      	b.n	d72 <APP_vProcessRxDataStandard+0x72>
    103a:	4991      	ldr	r1, [pc, #580]	; (1280 <STACK_SIZE+0x2a0>)
    103c:	488c      	ldr	r0, [pc, #560]	; (1270 <STACK_SIZE+0x290>)
    103e:	2205      	movs	r2, #5
    1040:	f026 f874 	bl	2712c <memcmp>
    1044:	b950      	cbnz	r0, 105c <STACK_SIZE+0x7c>
    1046:	498b      	ldr	r1, [pc, #556]	; (1274 <STACK_SIZE+0x294>)
    1048:	488e      	ldr	r0, [pc, #568]	; (1284 <STACK_SIZE+0x2a4>)
    104a:	f001 ff23 	bl	2e94 <DbgConsole_Printf>
    104e:	4889      	ldr	r0, [pc, #548]	; (1274 <STACK_SIZE+0x294>)
    1050:	f026 f864 	bl	2711c <atoi>
    1054:	4b89      	ldr	r3, [pc, #548]	; (127c <STACK_SIZE+0x29c>)
    1056:	f8a3 0404 	strh.w	r0, [r3, #1028]	; 0x404
    105a:	e68a      	b.n	d72 <APP_vProcessRxDataStandard+0x72>
    105c:	498a      	ldr	r1, [pc, #552]	; (1288 <STACK_SIZE+0x2a8>)
    105e:	4884      	ldr	r0, [pc, #528]	; (1270 <STACK_SIZE+0x290>)
    1060:	2205      	movs	r2, #5
    1062:	f026 f863 	bl	2712c <memcmp>
    1066:	b950      	cbnz	r0, 107e <STACK_SIZE+0x9e>
    1068:	4982      	ldr	r1, [pc, #520]	; (1274 <STACK_SIZE+0x294>)
    106a:	4888      	ldr	r0, [pc, #544]	; (128c <STACK_SIZE+0x2ac>)
    106c:	f001 ff12 	bl	2e94 <DbgConsole_Printf>
    1070:	4880      	ldr	r0, [pc, #512]	; (1274 <STACK_SIZE+0x294>)
    1072:	f026 f853 	bl	2711c <atoi>
    1076:	4b81      	ldr	r3, [pc, #516]	; (127c <STACK_SIZE+0x29c>)
    1078:	f8a3 0410 	strh.w	r0, [r3, #1040]	; 0x410
    107c:	e679      	b.n	d72 <APP_vProcessRxDataStandard+0x72>
    107e:	4984      	ldr	r1, [pc, #528]	; (1290 <STACK_SIZE+0x2b0>)
    1080:	487b      	ldr	r0, [pc, #492]	; (1270 <STACK_SIZE+0x290>)
    1082:	2205      	movs	r2, #5
    1084:	f026 f852 	bl	2712c <memcmp>
    1088:	b950      	cbnz	r0, 10a0 <STACK_SIZE+0xc0>
    108a:	497a      	ldr	r1, [pc, #488]	; (1274 <STACK_SIZE+0x294>)
    108c:	4881      	ldr	r0, [pc, #516]	; (1294 <STACK_SIZE+0x2b4>)
    108e:	f001 ff01 	bl	2e94 <DbgConsole_Printf>
    1092:	4878      	ldr	r0, [pc, #480]	; (1274 <STACK_SIZE+0x294>)
    1094:	f026 f842 	bl	2711c <atoi>
    1098:	4b78      	ldr	r3, [pc, #480]	; (127c <STACK_SIZE+0x29c>)
    109a:	f8a3 041a 	strh.w	r0, [r3, #1050]	; 0x41a
    109e:	e668      	b.n	d72 <APP_vProcessRxDataStandard+0x72>
    10a0:	497d      	ldr	r1, [pc, #500]	; (1298 <STACK_SIZE+0x2b8>)
    10a2:	4873      	ldr	r0, [pc, #460]	; (1270 <STACK_SIZE+0x290>)
    10a4:	2204      	movs	r2, #4
    10a6:	f026 f841 	bl	2712c <memcmp>
    10aa:	b950      	cbnz	r0, 10c2 <STACK_SIZE+0xe2>
    10ac:	4971      	ldr	r1, [pc, #452]	; (1274 <STACK_SIZE+0x294>)
    10ae:	487b      	ldr	r0, [pc, #492]	; (129c <STACK_SIZE+0x2bc>)
    10b0:	f001 fef0 	bl	2e94 <DbgConsole_Printf>
    10b4:	486f      	ldr	r0, [pc, #444]	; (1274 <STACK_SIZE+0x294>)
    10b6:	f026 f835 	bl	27124 <atol>
    10ba:	4b70      	ldr	r3, [pc, #448]	; (127c <STACK_SIZE+0x29c>)
    10bc:	f8a3 0432 	strh.w	r0, [r3, #1074]	; 0x432
    10c0:	e657      	b.n	d72 <APP_vProcessRxDataStandard+0x72>
    10c2:	4977      	ldr	r1, [pc, #476]	; (12a0 <STACK_SIZE+0x2c0>)
    10c4:	486a      	ldr	r0, [pc, #424]	; (1270 <STACK_SIZE+0x290>)
    10c6:	2204      	movs	r2, #4
    10c8:	f026 f830 	bl	2712c <memcmp>
    10cc:	b910      	cbnz	r0, 10d4 <STACK_SIZE+0xf4>
    10ce:	4969      	ldr	r1, [pc, #420]	; (1274 <STACK_SIZE+0x294>)
    10d0:	4874      	ldr	r0, [pc, #464]	; (12a4 <STACK_SIZE+0x2c4>)
    10d2:	e66d      	b.n	db0 <APP_vProcessRxDataStandard+0xb0>
    10d4:	4974      	ldr	r1, [pc, #464]	; (12a8 <STACK_SIZE+0x2c8>)
    10d6:	4866      	ldr	r0, [pc, #408]	; (1270 <STACK_SIZE+0x290>)
    10d8:	2205      	movs	r2, #5
    10da:	f026 f827 	bl	2712c <memcmp>
    10de:	b950      	cbnz	r0, 10f6 <STACK_SIZE+0x116>
    10e0:	4964      	ldr	r1, [pc, #400]	; (1274 <STACK_SIZE+0x294>)
    10e2:	4872      	ldr	r0, [pc, #456]	; (12ac <STACK_SIZE+0x2cc>)
    10e4:	f001 fed6 	bl	2e94 <DbgConsole_Printf>
    10e8:	4862      	ldr	r0, [pc, #392]	; (1274 <STACK_SIZE+0x294>)
    10ea:	f026 f817 	bl	2711c <atoi>
    10ee:	4b63      	ldr	r3, [pc, #396]	; (127c <STACK_SIZE+0x29c>)
    10f0:	f883 042c 	strb.w	r0, [r3, #1068]	; 0x42c
    10f4:	e63d      	b.n	d72 <APP_vProcessRxDataStandard+0x72>
    10f6:	496e      	ldr	r1, [pc, #440]	; (12b0 <STACK_SIZE+0x2d0>)
    10f8:	485d      	ldr	r0, [pc, #372]	; (1270 <STACK_SIZE+0x290>)
    10fa:	2207      	movs	r2, #7
    10fc:	f026 f816 	bl	2712c <memcmp>
    1100:	b950      	cbnz	r0, 1118 <STACK_SIZE+0x138>
    1102:	495c      	ldr	r1, [pc, #368]	; (1274 <STACK_SIZE+0x294>)
    1104:	486b      	ldr	r0, [pc, #428]	; (12b4 <STACK_SIZE+0x2d4>)
    1106:	f001 fec5 	bl	2e94 <DbgConsole_Printf>
    110a:	485a      	ldr	r0, [pc, #360]	; (1274 <STACK_SIZE+0x294>)
    110c:	f026 f80a 	bl	27124 <atol>
    1110:	4b5a      	ldr	r3, [pc, #360]	; (127c <STACK_SIZE+0x29c>)
    1112:	f8a3 040e 	strh.w	r0, [r3, #1038]	; 0x40e
    1116:	e62c      	b.n	d72 <APP_vProcessRxDataStandard+0x72>
    1118:	4967      	ldr	r1, [pc, #412]	; (12b8 <STACK_SIZE+0x2d8>)
    111a:	4855      	ldr	r0, [pc, #340]	; (1270 <STACK_SIZE+0x290>)
    111c:	2207      	movs	r2, #7
    111e:	f026 f805 	bl	2712c <memcmp>
    1122:	b950      	cbnz	r0, 113a <STACK_SIZE+0x15a>
    1124:	4953      	ldr	r1, [pc, #332]	; (1274 <STACK_SIZE+0x294>)
    1126:	4865      	ldr	r0, [pc, #404]	; (12bc <STACK_SIZE+0x2dc>)
    1128:	f001 feb4 	bl	2e94 <DbgConsole_Printf>
    112c:	4851      	ldr	r0, [pc, #324]	; (1274 <STACK_SIZE+0x294>)
    112e:	f025 fff9 	bl	27124 <atol>
    1132:	4b52      	ldr	r3, [pc, #328]	; (127c <STACK_SIZE+0x29c>)
    1134:	f8a3 0418 	strh.w	r0, [r3, #1048]	; 0x418
    1138:	e61b      	b.n	d72 <APP_vProcessRxDataStandard+0x72>
    113a:	4961      	ldr	r1, [pc, #388]	; (12c0 <STACK_SIZE+0x2e0>)
    113c:	484c      	ldr	r0, [pc, #304]	; (1270 <STACK_SIZE+0x290>)
    113e:	2207      	movs	r2, #7
    1140:	f025 fff4 	bl	2712c <memcmp>
    1144:	b950      	cbnz	r0, 115c <STACK_SIZE+0x17c>
    1146:	494b      	ldr	r1, [pc, #300]	; (1274 <STACK_SIZE+0x294>)
    1148:	485e      	ldr	r0, [pc, #376]	; (12c4 <STACK_SIZE+0x2e4>)
    114a:	f001 fea3 	bl	2e94 <DbgConsole_Printf>
    114e:	4849      	ldr	r0, [pc, #292]	; (1274 <STACK_SIZE+0x294>)
    1150:	f025 ffe8 	bl	27124 <atol>
    1154:	4b49      	ldr	r3, [pc, #292]	; (127c <STACK_SIZE+0x29c>)
    1156:	f8a3 0422 	strh.w	r0, [r3, #1058]	; 0x422
    115a:	e60a      	b.n	d72 <APP_vProcessRxDataStandard+0x72>
    115c:	495a      	ldr	r1, [pc, #360]	; (12c8 <STACK_SIZE+0x2e8>)
    115e:	4844      	ldr	r0, [pc, #272]	; (1270 <STACK_SIZE+0x290>)
    1160:	2206      	movs	r2, #6
    1162:	f025 ffe3 	bl	2712c <memcmp>
    1166:	b910      	cbnz	r0, 116e <STACK_SIZE+0x18e>
    1168:	4942      	ldr	r1, [pc, #264]	; (1274 <STACK_SIZE+0x294>)
    116a:	4858      	ldr	r0, [pc, #352]	; (12cc <STACK_SIZE+0x2ec>)
    116c:	e7cb      	b.n	1106 <STACK_SIZE+0x126>
    116e:	4958      	ldr	r1, [pc, #352]	; (12d0 <STACK_SIZE+0x2f0>)
    1170:	483f      	ldr	r0, [pc, #252]	; (1270 <STACK_SIZE+0x290>)
    1172:	2207      	movs	r2, #7
    1174:	f025 ffda 	bl	2712c <memcmp>
    1178:	b950      	cbnz	r0, 1190 <STACK_SIZE+0x1b0>
    117a:	493e      	ldr	r1, [pc, #248]	; (1274 <STACK_SIZE+0x294>)
    117c:	4855      	ldr	r0, [pc, #340]	; (12d4 <STACK_SIZE+0x2f4>)
    117e:	f001 fe89 	bl	2e94 <DbgConsole_Printf>
    1182:	483c      	ldr	r0, [pc, #240]	; (1274 <STACK_SIZE+0x294>)
    1184:	f025 ffca 	bl	2711c <atoi>
    1188:	4b3c      	ldr	r3, [pc, #240]	; (127c <STACK_SIZE+0x29c>)
    118a:	f8a3 040c 	strh.w	r0, [r3, #1036]	; 0x40c
    118e:	e5f0      	b.n	d72 <APP_vProcessRxDataStandard+0x72>
    1190:	4951      	ldr	r1, [pc, #324]	; (12d8 <STACK_SIZE+0x2f8>)
    1192:	4837      	ldr	r0, [pc, #220]	; (1270 <STACK_SIZE+0x290>)
    1194:	2207      	movs	r2, #7
    1196:	f025 ffc9 	bl	2712c <memcmp>
    119a:	b950      	cbnz	r0, 11b2 <STACK_SIZE+0x1d2>
    119c:	4935      	ldr	r1, [pc, #212]	; (1274 <STACK_SIZE+0x294>)
    119e:	484f      	ldr	r0, [pc, #316]	; (12dc <STACK_SIZE+0x2fc>)
    11a0:	f001 fe78 	bl	2e94 <DbgConsole_Printf>
    11a4:	4833      	ldr	r0, [pc, #204]	; (1274 <STACK_SIZE+0x294>)
    11a6:	f025 ffb9 	bl	2711c <atoi>
    11aa:	4b34      	ldr	r3, [pc, #208]	; (127c <STACK_SIZE+0x29c>)
    11ac:	f8a3 0416 	strh.w	r0, [r3, #1046]	; 0x416
    11b0:	e5df      	b.n	d72 <APP_vProcessRxDataStandard+0x72>
    11b2:	494b      	ldr	r1, [pc, #300]	; (12e0 <STACK_SIZE+0x300>)
    11b4:	482e      	ldr	r0, [pc, #184]	; (1270 <STACK_SIZE+0x290>)
    11b6:	2207      	movs	r2, #7
    11b8:	f025 ffb8 	bl	2712c <memcmp>
    11bc:	b950      	cbnz	r0, 11d4 <STACK_SIZE+0x1f4>
    11be:	492d      	ldr	r1, [pc, #180]	; (1274 <STACK_SIZE+0x294>)
    11c0:	4848      	ldr	r0, [pc, #288]	; (12e4 <STACK_SIZE+0x304>)
    11c2:	f001 fe67 	bl	2e94 <DbgConsole_Printf>
    11c6:	482b      	ldr	r0, [pc, #172]	; (1274 <STACK_SIZE+0x294>)
    11c8:	f025 ffa8 	bl	2711c <atoi>
    11cc:	4b2b      	ldr	r3, [pc, #172]	; (127c <STACK_SIZE+0x29c>)
    11ce:	f8a3 0420 	strh.w	r0, [r3, #1056]	; 0x420
    11d2:	e5ce      	b.n	d72 <APP_vProcessRxDataStandard+0x72>
    11d4:	4944      	ldr	r1, [pc, #272]	; (12e8 <STACK_SIZE+0x308>)
    11d6:	4826      	ldr	r0, [pc, #152]	; (1270 <STACK_SIZE+0x290>)
    11d8:	2206      	movs	r2, #6
    11da:	f025 ffa7 	bl	2712c <memcmp>
    11de:	b910      	cbnz	r0, 11e6 <STACK_SIZE+0x206>
    11e0:	4924      	ldr	r1, [pc, #144]	; (1274 <STACK_SIZE+0x294>)
    11e2:	4842      	ldr	r0, [pc, #264]	; (12ec <STACK_SIZE+0x30c>)
    11e4:	e7cb      	b.n	117e <STACK_SIZE+0x19e>
    11e6:	4942      	ldr	r1, [pc, #264]	; (12f0 <STACK_SIZE+0x310>)
    11e8:	4821      	ldr	r0, [pc, #132]	; (1270 <STACK_SIZE+0x290>)
    11ea:	2204      	movs	r2, #4
    11ec:	f025 ff9e 	bl	2712c <memcmp>
    11f0:	b910      	cbnz	r0, 11f8 <STACK_SIZE+0x218>
    11f2:	4920      	ldr	r1, [pc, #128]	; (1274 <STACK_SIZE+0x294>)
    11f4:	483f      	ldr	r0, [pc, #252]	; (12f4 <STACK_SIZE+0x314>)
    11f6:	e5db      	b.n	db0 <APP_vProcessRxDataStandard+0xb0>
    11f8:	493f      	ldr	r1, [pc, #252]	; (12f8 <STACK_SIZE+0x318>)
    11fa:	481d      	ldr	r0, [pc, #116]	; (1270 <STACK_SIZE+0x290>)
    11fc:	2204      	movs	r2, #4
    11fe:	f025 ff95 	bl	2712c <memcmp>
    1202:	b910      	cbnz	r0, 120a <STACK_SIZE+0x22a>
    1204:	491b      	ldr	r1, [pc, #108]	; (1274 <STACK_SIZE+0x294>)
    1206:	483d      	ldr	r0, [pc, #244]	; (12fc <STACK_SIZE+0x31c>)
    1208:	e5d2      	b.n	db0 <APP_vProcessRxDataStandard+0xb0>
    120a:	493d      	ldr	r1, [pc, #244]	; (1300 <STACK_SIZE+0x320>)
    120c:	4818      	ldr	r0, [pc, #96]	; (1270 <STACK_SIZE+0x290>)
    120e:	2203      	movs	r2, #3
    1210:	f025 ff8c 	bl	2712c <memcmp>
    1214:	b970      	cbnz	r0, 1234 <STACK_SIZE+0x254>
    1216:	4c19      	ldr	r4, [pc, #100]	; (127c <STACK_SIZE+0x29c>)
    1218:	4916      	ldr	r1, [pc, #88]	; (1274 <STACK_SIZE+0x294>)
    121a:	483a      	ldr	r0, [pc, #232]	; (1304 <STACK_SIZE+0x324>)
    121c:	f001 fe3a 	bl	2e94 <DbgConsole_Printf>
    1220:	4914      	ldr	r1, [pc, #80]	; (1274 <STACK_SIZE+0x294>)
    1222:	f8d4 0350 	ldr.w	r0, [r4, #848]	; 0x350
    1226:	220e      	movs	r2, #14
    1228:	f025 ffb0 	bl	2718c <memcpy>
    122c:	230e      	movs	r3, #14
    122e:	f884 334d 	strb.w	r3, [r4, #845]	; 0x34d
    1232:	e59e      	b.n	d72 <APP_vProcessRxDataStandard+0x72>
    1234:	491a      	ldr	r1, [pc, #104]	; (12a0 <STACK_SIZE+0x2c0>)
    1236:	480e      	ldr	r0, [pc, #56]	; (1270 <STACK_SIZE+0x290>)
    1238:	2204      	movs	r2, #4
    123a:	f025 ff77 	bl	2712c <memcmp>
    123e:	2800      	cmp	r0, #0
    1240:	f43f af45 	beq.w	10ce <STACK_SIZE+0xee>
    1244:	4930      	ldr	r1, [pc, #192]	; (1308 <STACK_SIZE+0x328>)
    1246:	480a      	ldr	r0, [pc, #40]	; (1270 <STACK_SIZE+0x290>)
    1248:	2206      	movs	r2, #6
    124a:	f025 ff6f 	bl	2712c <memcmp>
    124e:	2800      	cmp	r0, #0
    1250:	f47f ad8f 	bne.w	d72 <APP_vProcessRxDataStandard+0x72>
    1254:	4907      	ldr	r1, [pc, #28]	; (1274 <STACK_SIZE+0x294>)
    1256:	482d      	ldr	r0, [pc, #180]	; (130c <STACK_SIZE+0x32c>)
    1258:	e5aa      	b.n	db0 <APP_vProcessRxDataStandard+0xb0>
    125a:	6823      	ldr	r3, [r4, #0]
    125c:	3301      	adds	r3, #1
    125e:	6023      	str	r3, [r4, #0]
    1260:	e587      	b.n	d72 <APP_vProcessRxDataStandard+0x72>
    1262:	2001      	movs	r0, #1
    1264:	e589      	b.n	d7a <APP_vProcessRxDataStandard+0x7a>
    1266:	2002      	movs	r0, #2
    1268:	e587      	b.n	d7a <APP_vProcessRxDataStandard+0x7a>
    126a:	bf00      	nop
    126c:	00027dbc 	.word	0x00027dbc
    1270:	04013e50 	.word	0x04013e50
    1274:	04013f50 	.word	0x04013f50
    1278:	00027dc2 	.word	0x00027dc2
    127c:	04013fd8 	.word	0x04013fd8
    1280:	00027dcf 	.word	0x00027dcf
    1284:	00027dd5 	.word	0x00027dd5
    1288:	00027de2 	.word	0x00027de2
    128c:	00027de8 	.word	0x00027de8
    1290:	00027df5 	.word	0x00027df5
    1294:	00027dfb 	.word	0x00027dfb
    1298:	00027e08 	.word	0x00027e08
    129c:	00027e0d 	.word	0x00027e0d
    12a0:	00027e19 	.word	0x00027e19
    12a4:	00027e1e 	.word	0x00027e1e
    12a8:	00027e2a 	.word	0x00027e2a
    12ac:	00027e30 	.word	0x00027e30
    12b0:	00027e3d 	.word	0x00027e3d
    12b4:	00027e45 	.word	0x00027e45
    12b8:	00027e54 	.word	0x00027e54
    12bc:	00027e5c 	.word	0x00027e5c
    12c0:	00027e6b 	.word	0x00027e6b
    12c4:	00027e73 	.word	0x00027e73
    12c8:	00027e82 	.word	0x00027e82
    12cc:	00027e89 	.word	0x00027e89
    12d0:	00027e97 	.word	0x00027e97
    12d4:	00027e9f 	.word	0x00027e9f
    12d8:	00027eae 	.word	0x00027eae
    12dc:	00027eb6 	.word	0x00027eb6
    12e0:	00027ec5 	.word	0x00027ec5
    12e4:	00027ecd 	.word	0x00027ecd
    12e8:	00027edc 	.word	0x00027edc
    12ec:	00027ee3 	.word	0x00027ee3
    12f0:	00027ef1 	.word	0x00027ef1
    12f4:	00027ef6 	.word	0x00027ef6
    12f8:	00027f02 	.word	0x00027f02
    12fc:	00027f07 	.word	0x00027f07
    1300:	00027f13 	.word	0x00027f13
    1304:	00027f17 	.word	0x00027f17
    1308:	00027f22 	.word	0x00027f22
    130c:	00027f29 	.word	0x00027f29

00001310 <APP_vProcessRxDataHisto>:
    1310:	b537      	push	{r0, r1, r2, r4, r5, lr}
    1312:	4d99      	ldr	r5, [pc, #612]	; (1578 <APP_vProcessRxDataHisto+0x268>)
    1314:	782b      	ldrb	r3, [r5, #0]
    1316:	2b01      	cmp	r3, #1
    1318:	f200 827d 	bhi.w	1816 <APP_vProcessRxDataHisto+0x506>
    131c:	4c97      	ldr	r4, [pc, #604]	; (157c <APP_vProcessRxDataHisto+0x26c>)
    131e:	4b98      	ldr	r3, [pc, #608]	; (1580 <APP_vProcessRxDataHisto+0x270>)
    1320:	6822      	ldr	r2, [r4, #0]
    1322:	429a      	cmp	r2, r3
    1324:	f200 8279 	bhi.w	181a <APP_vProcessRxDataHisto+0x50a>
    1328:	4896      	ldr	r0, [pc, #600]	; (1584 <APP_vProcessRxDataHisto+0x274>)
    132a:	f10d 0107 	add.w	r1, sp, #7
    132e:	f002 f9bb 	bl	36a8 <ZQ_bQueueReceive>
    1332:	2800      	cmp	r0, #0
    1334:	f000 826b 	beq.w	180e <APP_vProcessRxDataHisto+0x4fe>
    1338:	f89d 3007 	ldrb.w	r3, [sp, #7]
    133c:	4a92      	ldr	r2, [pc, #584]	; (1588 <APP_vProcessRxDataHisto+0x278>)
    133e:	4993      	ldr	r1, [pc, #588]	; (158c <APP_vProcessRxDataHisto+0x27c>)
    1340:	f44f 7087 	mov.w	r0, #270	; 0x10e
    1344:	f001 f95c 	bl	2600 <bSL_ReadMessageHisto>
    1348:	b1c0      	cbz	r0, 137c <APP_vProcessRxDataHisto+0x6c>
    134a:	2300      	movs	r3, #0
    134c:	4990      	ldr	r1, [pc, #576]	; (1590 <APP_vProcessRxDataHisto+0x280>)
    134e:	488f      	ldr	r0, [pc, #572]	; (158c <APP_vProcessRxDataHisto+0x27c>)
    1350:	6023      	str	r3, [r4, #0]
    1352:	2204      	movs	r2, #4
    1354:	f025 feea 	bl	2712c <memcmp>
    1358:	b9b0      	cbnz	r0, 1388 <APP_vProcessRxDataHisto+0x78>
    135a:	4c8e      	ldr	r4, [pc, #568]	; (1594 <APP_vProcessRxDataHisto+0x284>)
    135c:	498a      	ldr	r1, [pc, #552]	; (1588 <APP_vProcessRxDataHisto+0x278>)
    135e:	488e      	ldr	r0, [pc, #568]	; (1598 <APP_vProcessRxDataHisto+0x288>)
    1360:	f001 fd98 	bl	2e94 <DbgConsole_Printf>
    1364:	4988      	ldr	r1, [pc, #544]	; (1588 <APP_vProcessRxDataHisto+0x278>)
    1366:	f8d4 0378 	ldr.w	r0, [r4, #888]	; 0x378
    136a:	220c      	movs	r2, #12
    136c:	f025 ff0e 	bl	2718c <memcpy>
    1370:	230c      	movs	r3, #12
    1372:	f884 3375 	strb.w	r3, [r4, #885]	; 0x375
    1376:	782b      	ldrb	r3, [r5, #0]
    1378:	3301      	adds	r3, #1
    137a:	702b      	strb	r3, [r5, #0]
    137c:	4887      	ldr	r0, [pc, #540]	; (159c <APP_vProcessRxDataHisto+0x28c>)
    137e:	f002 fd71 	bl	3e64 <WWDT_Refresh>
    1382:	2000      	movs	r0, #0
    1384:	b003      	add	sp, #12
    1386:	bd30      	pop	{r4, r5, pc}
    1388:	4985      	ldr	r1, [pc, #532]	; (15a0 <APP_vProcessRxDataHisto+0x290>)
    138a:	4880      	ldr	r0, [pc, #512]	; (158c <APP_vProcessRxDataHisto+0x27c>)
    138c:	2208      	movs	r2, #8
    138e:	f025 fecd 	bl	2712c <memcmp>
    1392:	b920      	cbnz	r0, 139e <APP_vProcessRxDataHisto+0x8e>
    1394:	497c      	ldr	r1, [pc, #496]	; (1588 <APP_vProcessRxDataHisto+0x278>)
    1396:	4883      	ldr	r0, [pc, #524]	; (15a4 <APP_vProcessRxDataHisto+0x294>)
    1398:	f001 fd7c 	bl	2e94 <DbgConsole_Printf>
    139c:	e7ee      	b.n	137c <APP_vProcessRxDataHisto+0x6c>
    139e:	4982      	ldr	r1, [pc, #520]	; (15a8 <APP_vProcessRxDataHisto+0x298>)
    13a0:	487a      	ldr	r0, [pc, #488]	; (158c <APP_vProcessRxDataHisto+0x27c>)
    13a2:	2204      	movs	r2, #4
    13a4:	f025 fec2 	bl	2712c <memcmp>
    13a8:	b978      	cbnz	r0, 13ca <APP_vProcessRxDataHisto+0xba>
    13aa:	4977      	ldr	r1, [pc, #476]	; (1588 <APP_vProcessRxDataHisto+0x278>)
    13ac:	487f      	ldr	r0, [pc, #508]	; (15ac <APP_vProcessRxDataHisto+0x29c>)
    13ae:	4c79      	ldr	r4, [pc, #484]	; (1594 <APP_vProcessRxDataHisto+0x284>)
    13b0:	f001 fd70 	bl	2e94 <DbgConsole_Printf>
    13b4:	4874      	ldr	r0, [pc, #464]	; (1588 <APP_vProcessRxDataHisto+0x278>)
    13b6:	f025 feb5 	bl	27124 <atol>
    13ba:	f8c4 0310 	str.w	r0, [r4, #784]	; 0x310
    13be:	4872      	ldr	r0, [pc, #456]	; (1588 <APP_vProcessRxDataHisto+0x278>)
    13c0:	f025 feb0 	bl	27124 <atol>
    13c4:	f8c4 0320 	str.w	r0, [r4, #800]	; 0x320
    13c8:	e7d8      	b.n	137c <APP_vProcessRxDataHisto+0x6c>
    13ca:	4979      	ldr	r1, [pc, #484]	; (15b0 <APP_vProcessRxDataHisto+0x2a0>)
    13cc:	486f      	ldr	r0, [pc, #444]	; (158c <APP_vProcessRxDataHisto+0x27c>)
    13ce:	2205      	movs	r2, #5
    13d0:	f025 feac 	bl	2712c <memcmp>
    13d4:	b910      	cbnz	r0, 13dc <APP_vProcessRxDataHisto+0xcc>
    13d6:	496c      	ldr	r1, [pc, #432]	; (1588 <APP_vProcessRxDataHisto+0x278>)
    13d8:	4876      	ldr	r0, [pc, #472]	; (15b4 <APP_vProcessRxDataHisto+0x2a4>)
    13da:	e7dd      	b.n	1398 <APP_vProcessRxDataHisto+0x88>
    13dc:	4976      	ldr	r1, [pc, #472]	; (15b8 <APP_vProcessRxDataHisto+0x2a8>)
    13de:	486b      	ldr	r0, [pc, #428]	; (158c <APP_vProcessRxDataHisto+0x27c>)
    13e0:	2207      	movs	r2, #7
    13e2:	f025 fea3 	bl	2712c <memcmp>
    13e6:	b948      	cbnz	r0, 13fc <APP_vProcessRxDataHisto+0xec>
    13e8:	4967      	ldr	r1, [pc, #412]	; (1588 <APP_vProcessRxDataHisto+0x278>)
    13ea:	4874      	ldr	r0, [pc, #464]	; (15bc <APP_vProcessRxDataHisto+0x2ac>)
    13ec:	f001 fd52 	bl	2e94 <DbgConsole_Printf>
    13f0:	4965      	ldr	r1, [pc, #404]	; (1588 <APP_vProcessRxDataHisto+0x278>)
    13f2:	4873      	ldr	r0, [pc, #460]	; (15c0 <APP_vProcessRxDataHisto+0x2b0>)
    13f4:	2204      	movs	r2, #4
    13f6:	f025 fec9 	bl	2718c <memcpy>
    13fa:	e7bf      	b.n	137c <APP_vProcessRxDataHisto+0x6c>
    13fc:	4971      	ldr	r1, [pc, #452]	; (15c4 <APP_vProcessRxDataHisto+0x2b4>)
    13fe:	4863      	ldr	r0, [pc, #396]	; (158c <APP_vProcessRxDataHisto+0x27c>)
    1400:	2206      	movs	r2, #6
    1402:	f025 fe93 	bl	2712c <memcmp>
    1406:	b950      	cbnz	r0, 141e <APP_vProcessRxDataHisto+0x10e>
    1408:	495f      	ldr	r1, [pc, #380]	; (1588 <APP_vProcessRxDataHisto+0x278>)
    140a:	486f      	ldr	r0, [pc, #444]	; (15c8 <APP_vProcessRxDataHisto+0x2b8>)
    140c:	f001 fd42 	bl	2e94 <DbgConsole_Printf>
    1410:	485d      	ldr	r0, [pc, #372]	; (1588 <APP_vProcessRxDataHisto+0x278>)
    1412:	f025 fe87 	bl	27124 <atol>
    1416:	4b5f      	ldr	r3, [pc, #380]	; (1594 <APP_vProcessRxDataHisto+0x284>)
    1418:	f8a3 0432 	strh.w	r0, [r3, #1074]	; 0x432
    141c:	e7ae      	b.n	137c <APP_vProcessRxDataHisto+0x6c>
    141e:	496b      	ldr	r1, [pc, #428]	; (15cc <APP_vProcessRxDataHisto+0x2bc>)
    1420:	485a      	ldr	r0, [pc, #360]	; (158c <APP_vProcessRxDataHisto+0x27c>)
    1422:	2204      	movs	r2, #4
    1424:	f025 fe82 	bl	2712c <memcmp>
    1428:	b950      	cbnz	r0, 1440 <APP_vProcessRxDataHisto+0x130>
    142a:	4957      	ldr	r1, [pc, #348]	; (1588 <APP_vProcessRxDataHisto+0x278>)
    142c:	4868      	ldr	r0, [pc, #416]	; (15d0 <APP_vProcessRxDataHisto+0x2c0>)
    142e:	f001 fd31 	bl	2e94 <DbgConsole_Printf>
    1432:	4855      	ldr	r0, [pc, #340]	; (1588 <APP_vProcessRxDataHisto+0x278>)
    1434:	f025 fe76 	bl	27124 <atol>
    1438:	4b56      	ldr	r3, [pc, #344]	; (1594 <APP_vProcessRxDataHisto+0x284>)
    143a:	f8c3 0320 	str.w	r0, [r3, #800]	; 0x320
    143e:	e79d      	b.n	137c <APP_vProcessRxDataHisto+0x6c>
    1440:	4964      	ldr	r1, [pc, #400]	; (15d4 <APP_vProcessRxDataHisto+0x2c4>)
    1442:	4852      	ldr	r0, [pc, #328]	; (158c <APP_vProcessRxDataHisto+0x27c>)
    1444:	2204      	movs	r2, #4
    1446:	f025 fe71 	bl	2712c <memcmp>
    144a:	b950      	cbnz	r0, 1462 <APP_vProcessRxDataHisto+0x152>
    144c:	494e      	ldr	r1, [pc, #312]	; (1588 <APP_vProcessRxDataHisto+0x278>)
    144e:	4862      	ldr	r0, [pc, #392]	; (15d8 <APP_vProcessRxDataHisto+0x2c8>)
    1450:	f001 fd20 	bl	2e94 <DbgConsole_Printf>
    1454:	484c      	ldr	r0, [pc, #304]	; (1588 <APP_vProcessRxDataHisto+0x278>)
    1456:	f025 fe65 	bl	27124 <atol>
    145a:	4b4e      	ldr	r3, [pc, #312]	; (1594 <APP_vProcessRxDataHisto+0x284>)
    145c:	f8c3 0324 	str.w	r0, [r3, #804]	; 0x324
    1460:	e78c      	b.n	137c <APP_vProcessRxDataHisto+0x6c>
    1462:	495e      	ldr	r1, [pc, #376]	; (15dc <APP_vProcessRxDataHisto+0x2cc>)
    1464:	4849      	ldr	r0, [pc, #292]	; (158c <APP_vProcessRxDataHisto+0x27c>)
    1466:	2205      	movs	r2, #5
    1468:	f025 fe60 	bl	2712c <memcmp>
    146c:	b910      	cbnz	r0, 1474 <APP_vProcessRxDataHisto+0x164>
    146e:	4946      	ldr	r1, [pc, #280]	; (1588 <APP_vProcessRxDataHisto+0x278>)
    1470:	485b      	ldr	r0, [pc, #364]	; (15e0 <APP_vProcessRxDataHisto+0x2d0>)
    1472:	e7dc      	b.n	142e <APP_vProcessRxDataHisto+0x11e>
    1474:	495b      	ldr	r1, [pc, #364]	; (15e4 <APP_vProcessRxDataHisto+0x2d4>)
    1476:	4845      	ldr	r0, [pc, #276]	; (158c <APP_vProcessRxDataHisto+0x27c>)
    1478:	2206      	movs	r2, #6
    147a:	f025 fe57 	bl	2712c <memcmp>
    147e:	b910      	cbnz	r0, 1486 <APP_vProcessRxDataHisto+0x176>
    1480:	4941      	ldr	r1, [pc, #260]	; (1588 <APP_vProcessRxDataHisto+0x278>)
    1482:	4859      	ldr	r0, [pc, #356]	; (15e8 <APP_vProcessRxDataHisto+0x2d8>)
    1484:	e7e4      	b.n	1450 <APP_vProcessRxDataHisto+0x140>
    1486:	4959      	ldr	r1, [pc, #356]	; (15ec <APP_vProcessRxDataHisto+0x2dc>)
    1488:	4840      	ldr	r0, [pc, #256]	; (158c <APP_vProcessRxDataHisto+0x27c>)
    148a:	2207      	movs	r2, #7
    148c:	f025 fe4e 	bl	2712c <memcmp>
    1490:	b910      	cbnz	r0, 1498 <APP_vProcessRxDataHisto+0x188>
    1492:	493d      	ldr	r1, [pc, #244]	; (1588 <APP_vProcessRxDataHisto+0x278>)
    1494:	4856      	ldr	r0, [pc, #344]	; (15f0 <APP_vProcessRxDataHisto+0x2e0>)
    1496:	e7ca      	b.n	142e <APP_vProcessRxDataHisto+0x11e>
    1498:	4956      	ldr	r1, [pc, #344]	; (15f4 <APP_vProcessRxDataHisto+0x2e4>)
    149a:	483c      	ldr	r0, [pc, #240]	; (158c <APP_vProcessRxDataHisto+0x27c>)
    149c:	2207      	movs	r2, #7
    149e:	f025 fe45 	bl	2712c <memcmp>
    14a2:	b910      	cbnz	r0, 14aa <APP_vProcessRxDataHisto+0x19a>
    14a4:	4938      	ldr	r1, [pc, #224]	; (1588 <APP_vProcessRxDataHisto+0x278>)
    14a6:	4854      	ldr	r0, [pc, #336]	; (15f8 <APP_vProcessRxDataHisto+0x2e8>)
    14a8:	e7d2      	b.n	1450 <APP_vProcessRxDataHisto+0x140>
    14aa:	4954      	ldr	r1, [pc, #336]	; (15fc <APP_vProcessRxDataHisto+0x2ec>)
    14ac:	4837      	ldr	r0, [pc, #220]	; (158c <APP_vProcessRxDataHisto+0x27c>)
    14ae:	2207      	movs	r2, #7
    14b0:	f025 fe3c 	bl	2712c <memcmp>
    14b4:	b950      	cbnz	r0, 14cc <APP_vProcessRxDataHisto+0x1bc>
    14b6:	4934      	ldr	r1, [pc, #208]	; (1588 <APP_vProcessRxDataHisto+0x278>)
    14b8:	4851      	ldr	r0, [pc, #324]	; (1600 <APP_vProcessRxDataHisto+0x2f0>)
    14ba:	f001 fceb 	bl	2e94 <DbgConsole_Printf>
    14be:	4832      	ldr	r0, [pc, #200]	; (1588 <APP_vProcessRxDataHisto+0x278>)
    14c0:	f025 fe30 	bl	27124 <atol>
    14c4:	4b33      	ldr	r3, [pc, #204]	; (1594 <APP_vProcessRxDataHisto+0x284>)
    14c6:	f8c3 0328 	str.w	r0, [r3, #808]	; 0x328
    14ca:	e757      	b.n	137c <APP_vProcessRxDataHisto+0x6c>
    14cc:	494d      	ldr	r1, [pc, #308]	; (1604 <APP_vProcessRxDataHisto+0x2f4>)
    14ce:	482f      	ldr	r0, [pc, #188]	; (158c <APP_vProcessRxDataHisto+0x27c>)
    14d0:	2207      	movs	r2, #7
    14d2:	f025 fe2b 	bl	2712c <memcmp>
    14d6:	b950      	cbnz	r0, 14ee <APP_vProcessRxDataHisto+0x1de>
    14d8:	492b      	ldr	r1, [pc, #172]	; (1588 <APP_vProcessRxDataHisto+0x278>)
    14da:	484b      	ldr	r0, [pc, #300]	; (1608 <APP_vProcessRxDataHisto+0x2f8>)
    14dc:	f001 fcda 	bl	2e94 <DbgConsole_Printf>
    14e0:	4829      	ldr	r0, [pc, #164]	; (1588 <APP_vProcessRxDataHisto+0x278>)
    14e2:	f025 fe1f 	bl	27124 <atol>
    14e6:	4b2b      	ldr	r3, [pc, #172]	; (1594 <APP_vProcessRxDataHisto+0x284>)
    14e8:	f8c3 032c 	str.w	r0, [r3, #812]	; 0x32c
    14ec:	e746      	b.n	137c <APP_vProcessRxDataHisto+0x6c>
    14ee:	4947      	ldr	r1, [pc, #284]	; (160c <APP_vProcessRxDataHisto+0x2fc>)
    14f0:	4826      	ldr	r0, [pc, #152]	; (158c <APP_vProcessRxDataHisto+0x27c>)
    14f2:	2207      	movs	r2, #7
    14f4:	f025 fe1a 	bl	2712c <memcmp>
    14f8:	b950      	cbnz	r0, 1510 <APP_vProcessRxDataHisto+0x200>
    14fa:	4923      	ldr	r1, [pc, #140]	; (1588 <APP_vProcessRxDataHisto+0x278>)
    14fc:	4844      	ldr	r0, [pc, #272]	; (1610 <APP_vProcessRxDataHisto+0x300>)
    14fe:	f001 fcc9 	bl	2e94 <DbgConsole_Printf>
    1502:	4821      	ldr	r0, [pc, #132]	; (1588 <APP_vProcessRxDataHisto+0x278>)
    1504:	f025 fe0e 	bl	27124 <atol>
    1508:	4b22      	ldr	r3, [pc, #136]	; (1594 <APP_vProcessRxDataHisto+0x284>)
    150a:	f8c3 0330 	str.w	r0, [r3, #816]	; 0x330
    150e:	e735      	b.n	137c <APP_vProcessRxDataHisto+0x6c>
    1510:	4940      	ldr	r1, [pc, #256]	; (1614 <APP_vProcessRxDataHisto+0x304>)
    1512:	481e      	ldr	r0, [pc, #120]	; (158c <APP_vProcessRxDataHisto+0x27c>)
    1514:	2207      	movs	r2, #7
    1516:	f025 fe09 	bl	2712c <memcmp>
    151a:	b950      	cbnz	r0, 1532 <APP_vProcessRxDataHisto+0x222>
    151c:	491a      	ldr	r1, [pc, #104]	; (1588 <APP_vProcessRxDataHisto+0x278>)
    151e:	483e      	ldr	r0, [pc, #248]	; (1618 <APP_vProcessRxDataHisto+0x308>)
    1520:	f001 fcb8 	bl	2e94 <DbgConsole_Printf>
    1524:	4818      	ldr	r0, [pc, #96]	; (1588 <APP_vProcessRxDataHisto+0x278>)
    1526:	f025 fdfd 	bl	27124 <atol>
    152a:	4b1a      	ldr	r3, [pc, #104]	; (1594 <APP_vProcessRxDataHisto+0x284>)
    152c:	f8c3 0334 	str.w	r0, [r3, #820]	; 0x334
    1530:	e724      	b.n	137c <APP_vProcessRxDataHisto+0x6c>
    1532:	493a      	ldr	r1, [pc, #232]	; (161c <APP_vProcessRxDataHisto+0x30c>)
    1534:	4815      	ldr	r0, [pc, #84]	; (158c <APP_vProcessRxDataHisto+0x27c>)
    1536:	2206      	movs	r2, #6
    1538:	f025 fdf8 	bl	2712c <memcmp>
    153c:	b950      	cbnz	r0, 1554 <APP_vProcessRxDataHisto+0x244>
    153e:	4912      	ldr	r1, [pc, #72]	; (1588 <APP_vProcessRxDataHisto+0x278>)
    1540:	4837      	ldr	r0, [pc, #220]	; (1620 <APP_vProcessRxDataHisto+0x310>)
    1542:	f001 fca7 	bl	2e94 <DbgConsole_Printf>
    1546:	4810      	ldr	r0, [pc, #64]	; (1588 <APP_vProcessRxDataHisto+0x278>)
    1548:	f025 fde8 	bl	2711c <atoi>
    154c:	4b11      	ldr	r3, [pc, #68]	; (1594 <APP_vProcessRxDataHisto+0x284>)
    154e:	f8a3 0406 	strh.w	r0, [r3, #1030]	; 0x406
    1552:	e713      	b.n	137c <APP_vProcessRxDataHisto+0x6c>
    1554:	4933      	ldr	r1, [pc, #204]	; (1624 <APP_vProcessRxDataHisto+0x314>)
    1556:	480d      	ldr	r0, [pc, #52]	; (158c <APP_vProcessRxDataHisto+0x27c>)
    1558:	2206      	movs	r2, #6
    155a:	f025 fde7 	bl	2712c <memcmp>
    155e:	2800      	cmp	r0, #0
    1560:	d164      	bne.n	162c <APP_vProcessRxDataHisto+0x31c>
    1562:	4909      	ldr	r1, [pc, #36]	; (1588 <APP_vProcessRxDataHisto+0x278>)
    1564:	4830      	ldr	r0, [pc, #192]	; (1628 <APP_vProcessRxDataHisto+0x318>)
    1566:	f001 fc95 	bl	2e94 <DbgConsole_Printf>
    156a:	4807      	ldr	r0, [pc, #28]	; (1588 <APP_vProcessRxDataHisto+0x278>)
    156c:	f025 fdd6 	bl	2711c <atoi>
    1570:	4b08      	ldr	r3, [pc, #32]	; (1594 <APP_vProcessRxDataHisto+0x284>)
    1572:	f8a3 0412 	strh.w	r0, [r3, #1042]	; 0x412
    1576:	e701      	b.n	137c <APP_vProcessRxDataHisto+0x6c>
    1578:	04013fd0 	.word	0x04013fd0
    157c:	04014438 	.word	0x04014438
    1580:	000186a0 	.word	0x000186a0
    1584:	04011f74 	.word	0x04011f74
    1588:	04013f50 	.word	0x04013f50
    158c:	04013e50 	.word	0x04013e50
    1590:	00027f37 	.word	0x00027f37
    1594:	04013fd8 	.word	0x04013fd8
    1598:	00027f3c 	.word	0x00027f3c
    159c:	4000a000 	.word	0x4000a000
    15a0:	00027f48 	.word	0x00027f48
    15a4:	00027f51 	.word	0x00027f51
    15a8:	00027c7b 	.word	0x00027c7b
    15ac:	00027f61 	.word	0x00027f61
    15b0:	00027f6d 	.word	0x00027f6d
    15b4:	00027f73 	.word	0x00027f73
    15b8:	00027f80 	.word	0x00027f80
    15bc:	00027f88 	.word	0x00027f88
    15c0:	04014414 	.word	0x04014414
    15c4:	00027f97 	.word	0x00027f97
    15c8:	00027f9e 	.word	0x00027f9e
    15cc:	00027fac 	.word	0x00027fac
    15d0:	00027fb1 	.word	0x00027fb1
    15d4:	00027fbd 	.word	0x00027fbd
    15d8:	00027fc2 	.word	0x00027fc2
    15dc:	00027fce 	.word	0x00027fce
    15e0:	00027fd4 	.word	0x00027fd4
    15e4:	00027fe1 	.word	0x00027fe1
    15e8:	00027fe8 	.word	0x00027fe8
    15ec:	00027ff6 	.word	0x00027ff6
    15f0:	00027ffe 	.word	0x00027ffe
    15f4:	0002800d 	.word	0x0002800d
    15f8:	00028015 	.word	0x00028015
    15fc:	00028024 	.word	0x00028024
    1600:	0002802c 	.word	0x0002802c
    1604:	0002803b 	.word	0x0002803b
    1608:	00028043 	.word	0x00028043
    160c:	00028052 	.word	0x00028052
    1610:	0002805a 	.word	0x0002805a
    1614:	00028069 	.word	0x00028069
    1618:	00028071 	.word	0x00028071
    161c:	00028080 	.word	0x00028080
    1620:	00028087 	.word	0x00028087
    1624:	00028095 	.word	0x00028095
    1628:	0002809c 	.word	0x0002809c
    162c:	497c      	ldr	r1, [pc, #496]	; (1820 <APP_vProcessRxDataHisto+0x510>)
    162e:	487d      	ldr	r0, [pc, #500]	; (1824 <APP_vProcessRxDataHisto+0x514>)
    1630:	2206      	movs	r2, #6
    1632:	f025 fd7b 	bl	2712c <memcmp>
    1636:	b950      	cbnz	r0, 164e <APP_vProcessRxDataHisto+0x33e>
    1638:	497b      	ldr	r1, [pc, #492]	; (1828 <APP_vProcessRxDataHisto+0x518>)
    163a:	487c      	ldr	r0, [pc, #496]	; (182c <APP_vProcessRxDataHisto+0x51c>)
    163c:	f001 fc2a 	bl	2e94 <DbgConsole_Printf>
    1640:	4879      	ldr	r0, [pc, #484]	; (1828 <APP_vProcessRxDataHisto+0x518>)
    1642:	f025 fd6b 	bl	2711c <atoi>
    1646:	4b7a      	ldr	r3, [pc, #488]	; (1830 <APP_vProcessRxDataHisto+0x520>)
    1648:	f8a3 041c 	strh.w	r0, [r3, #1052]	; 0x41c
    164c:	e696      	b.n	137c <APP_vProcessRxDataHisto+0x6c>
    164e:	4979      	ldr	r1, [pc, #484]	; (1834 <APP_vProcessRxDataHisto+0x524>)
    1650:	4874      	ldr	r0, [pc, #464]	; (1824 <APP_vProcessRxDataHisto+0x514>)
    1652:	2205      	movs	r2, #5
    1654:	f025 fd6a 	bl	2712c <memcmp>
    1658:	b910      	cbnz	r0, 1660 <APP_vProcessRxDataHisto+0x350>
    165a:	4973      	ldr	r1, [pc, #460]	; (1828 <APP_vProcessRxDataHisto+0x518>)
    165c:	4876      	ldr	r0, [pc, #472]	; (1838 <APP_vProcessRxDataHisto+0x528>)
    165e:	e770      	b.n	1542 <APP_vProcessRxDataHisto+0x232>
    1660:	4976      	ldr	r1, [pc, #472]	; (183c <APP_vProcessRxDataHisto+0x52c>)
    1662:	4870      	ldr	r0, [pc, #448]	; (1824 <APP_vProcessRxDataHisto+0x514>)
    1664:	2205      	movs	r2, #5
    1666:	f025 fd61 	bl	2712c <memcmp>
    166a:	b950      	cbnz	r0, 1682 <APP_vProcessRxDataHisto+0x372>
    166c:	496e      	ldr	r1, [pc, #440]	; (1828 <APP_vProcessRxDataHisto+0x518>)
    166e:	4874      	ldr	r0, [pc, #464]	; (1840 <APP_vProcessRxDataHisto+0x530>)
    1670:	f001 fc10 	bl	2e94 <DbgConsole_Printf>
    1674:	486c      	ldr	r0, [pc, #432]	; (1828 <APP_vProcessRxDataHisto+0x518>)
    1676:	f025 fd51 	bl	2711c <atoi>
    167a:	4b6d      	ldr	r3, [pc, #436]	; (1830 <APP_vProcessRxDataHisto+0x520>)
    167c:	f8a3 0408 	strh.w	r0, [r3, #1032]	; 0x408
    1680:	e67c      	b.n	137c <APP_vProcessRxDataHisto+0x6c>
    1682:	4970      	ldr	r1, [pc, #448]	; (1844 <APP_vProcessRxDataHisto+0x534>)
    1684:	4867      	ldr	r0, [pc, #412]	; (1824 <APP_vProcessRxDataHisto+0x514>)
    1686:	2205      	movs	r2, #5
    1688:	f025 fd50 	bl	2712c <memcmp>
    168c:	b950      	cbnz	r0, 16a4 <APP_vProcessRxDataHisto+0x394>
    168e:	4966      	ldr	r1, [pc, #408]	; (1828 <APP_vProcessRxDataHisto+0x518>)
    1690:	486d      	ldr	r0, [pc, #436]	; (1848 <APP_vProcessRxDataHisto+0x538>)
    1692:	f001 fbff 	bl	2e94 <DbgConsole_Printf>
    1696:	4864      	ldr	r0, [pc, #400]	; (1828 <APP_vProcessRxDataHisto+0x518>)
    1698:	f025 fd40 	bl	2711c <atoi>
    169c:	4b64      	ldr	r3, [pc, #400]	; (1830 <APP_vProcessRxDataHisto+0x520>)
    169e:	f8a3 0414 	strh.w	r0, [r3, #1044]	; 0x414
    16a2:	e66b      	b.n	137c <APP_vProcessRxDataHisto+0x6c>
    16a4:	4969      	ldr	r1, [pc, #420]	; (184c <APP_vProcessRxDataHisto+0x53c>)
    16a6:	485f      	ldr	r0, [pc, #380]	; (1824 <APP_vProcessRxDataHisto+0x514>)
    16a8:	2205      	movs	r2, #5
    16aa:	f025 fd3f 	bl	2712c <memcmp>
    16ae:	b950      	cbnz	r0, 16c6 <APP_vProcessRxDataHisto+0x3b6>
    16b0:	495d      	ldr	r1, [pc, #372]	; (1828 <APP_vProcessRxDataHisto+0x518>)
    16b2:	4867      	ldr	r0, [pc, #412]	; (1850 <APP_vProcessRxDataHisto+0x540>)
    16b4:	f001 fbee 	bl	2e94 <DbgConsole_Printf>
    16b8:	485b      	ldr	r0, [pc, #364]	; (1828 <APP_vProcessRxDataHisto+0x518>)
    16ba:	f025 fd2f 	bl	2711c <atoi>
    16be:	4b5c      	ldr	r3, [pc, #368]	; (1830 <APP_vProcessRxDataHisto+0x520>)
    16c0:	f8a3 041e 	strh.w	r0, [r3, #1054]	; 0x41e
    16c4:	e65a      	b.n	137c <APP_vProcessRxDataHisto+0x6c>
    16c6:	4963      	ldr	r1, [pc, #396]	; (1854 <APP_vProcessRxDataHisto+0x544>)
    16c8:	4856      	ldr	r0, [pc, #344]	; (1824 <APP_vProcessRxDataHisto+0x514>)
    16ca:	2204      	movs	r2, #4
    16cc:	f025 fd2e 	bl	2712c <memcmp>
    16d0:	b910      	cbnz	r0, 16d8 <APP_vProcessRxDataHisto+0x3c8>
    16d2:	4955      	ldr	r1, [pc, #340]	; (1828 <APP_vProcessRxDataHisto+0x518>)
    16d4:	4860      	ldr	r0, [pc, #384]	; (1858 <APP_vProcessRxDataHisto+0x548>)
    16d6:	e7cb      	b.n	1670 <APP_vProcessRxDataHisto+0x360>
    16d8:	4960      	ldr	r1, [pc, #384]	; (185c <APP_vProcessRxDataHisto+0x54c>)
    16da:	4852      	ldr	r0, [pc, #328]	; (1824 <APP_vProcessRxDataHisto+0x514>)
    16dc:	2204      	movs	r2, #4
    16de:	f025 fd25 	bl	2712c <memcmp>
    16e2:	b950      	cbnz	r0, 16fa <APP_vProcessRxDataHisto+0x3ea>
    16e4:	4950      	ldr	r1, [pc, #320]	; (1828 <APP_vProcessRxDataHisto+0x518>)
    16e6:	485e      	ldr	r0, [pc, #376]	; (1860 <APP_vProcessRxDataHisto+0x550>)
    16e8:	f001 fbd4 	bl	2e94 <DbgConsole_Printf>
    16ec:	484e      	ldr	r0, [pc, #312]	; (1828 <APP_vProcessRxDataHisto+0x518>)
    16ee:	f025 fd15 	bl	2711c <atoi>
    16f2:	4b4f      	ldr	r3, [pc, #316]	; (1830 <APP_vProcessRxDataHisto+0x520>)
    16f4:	f8a3 040c 	strh.w	r0, [r3, #1036]	; 0x40c
    16f8:	e640      	b.n	137c <APP_vProcessRxDataHisto+0x6c>
    16fa:	495a      	ldr	r1, [pc, #360]	; (1864 <APP_vProcessRxDataHisto+0x554>)
    16fc:	4849      	ldr	r0, [pc, #292]	; (1824 <APP_vProcessRxDataHisto+0x514>)
    16fe:	2204      	movs	r2, #4
    1700:	f025 fd14 	bl	2712c <memcmp>
    1704:	b950      	cbnz	r0, 171c <APP_vProcessRxDataHisto+0x40c>
    1706:	4948      	ldr	r1, [pc, #288]	; (1828 <APP_vProcessRxDataHisto+0x518>)
    1708:	4857      	ldr	r0, [pc, #348]	; (1868 <APP_vProcessRxDataHisto+0x558>)
    170a:	f001 fbc3 	bl	2e94 <DbgConsole_Printf>
    170e:	4846      	ldr	r0, [pc, #280]	; (1828 <APP_vProcessRxDataHisto+0x518>)
    1710:	f025 fd04 	bl	2711c <atoi>
    1714:	4b46      	ldr	r3, [pc, #280]	; (1830 <APP_vProcessRxDataHisto+0x520>)
    1716:	f8a3 040e 	strh.w	r0, [r3, #1038]	; 0x40e
    171a:	e62f      	b.n	137c <APP_vProcessRxDataHisto+0x6c>
    171c:	4953      	ldr	r1, [pc, #332]	; (186c <APP_vProcessRxDataHisto+0x55c>)
    171e:	4841      	ldr	r0, [pc, #260]	; (1824 <APP_vProcessRxDataHisto+0x514>)
    1720:	2204      	movs	r2, #4
    1722:	f025 fd03 	bl	2712c <memcmp>
    1726:	b970      	cbnz	r0, 1746 <APP_vProcessRxDataHisto+0x436>
    1728:	4c41      	ldr	r4, [pc, #260]	; (1830 <APP_vProcessRxDataHisto+0x520>)
    172a:	493f      	ldr	r1, [pc, #252]	; (1828 <APP_vProcessRxDataHisto+0x518>)
    172c:	4850      	ldr	r0, [pc, #320]	; (1870 <APP_vProcessRxDataHisto+0x560>)
    172e:	f001 fbb1 	bl	2e94 <DbgConsole_Printf>
    1732:	493d      	ldr	r1, [pc, #244]	; (1828 <APP_vProcessRxDataHisto+0x518>)
    1734:	f8d4 0318 	ldr.w	r0, [r4, #792]	; 0x318
    1738:	2204      	movs	r2, #4
    173a:	f025 fd27 	bl	2718c <memcpy>
    173e:	2304      	movs	r3, #4
    1740:	f884 3315 	strb.w	r3, [r4, #789]	; 0x315
    1744:	e61a      	b.n	137c <APP_vProcessRxDataHisto+0x6c>
    1746:	494b      	ldr	r1, [pc, #300]	; (1874 <APP_vProcessRxDataHisto+0x564>)
    1748:	4836      	ldr	r0, [pc, #216]	; (1824 <APP_vProcessRxDataHisto+0x514>)
    174a:	2204      	movs	r2, #4
    174c:	f025 fcee 	bl	2712c <memcmp>
    1750:	b930      	cbnz	r0, 1760 <APP_vProcessRxDataHisto+0x450>
    1752:	4835      	ldr	r0, [pc, #212]	; (1828 <APP_vProcessRxDataHisto+0x518>)
    1754:	f025 fce2 	bl	2711c <atoi>
    1758:	4b35      	ldr	r3, [pc, #212]	; (1830 <APP_vProcessRxDataHisto+0x520>)
    175a:	f8a3 0450 	strh.w	r0, [r3, #1104]	; 0x450
    175e:	e60d      	b.n	137c <APP_vProcessRxDataHisto+0x6c>
    1760:	4945      	ldr	r1, [pc, #276]	; (1878 <APP_vProcessRxDataHisto+0x568>)
    1762:	4830      	ldr	r0, [pc, #192]	; (1824 <APP_vProcessRxDataHisto+0x514>)
    1764:	2205      	movs	r2, #5
    1766:	f025 fce1 	bl	2712c <memcmp>
    176a:	b930      	cbnz	r0, 177a <APP_vProcessRxDataHisto+0x46a>
    176c:	482e      	ldr	r0, [pc, #184]	; (1828 <APP_vProcessRxDataHisto+0x518>)
    176e:	f025 fcd5 	bl	2711c <atoi>
    1772:	4b2f      	ldr	r3, [pc, #188]	; (1830 <APP_vProcessRxDataHisto+0x520>)
    1774:	f8a3 0452 	strh.w	r0, [r3, #1106]	; 0x452
    1778:	e600      	b.n	137c <APP_vProcessRxDataHisto+0x6c>
    177a:	4940      	ldr	r1, [pc, #256]	; (187c <APP_vProcessRxDataHisto+0x56c>)
    177c:	4829      	ldr	r0, [pc, #164]	; (1824 <APP_vProcessRxDataHisto+0x514>)
    177e:	2205      	movs	r2, #5
    1780:	f025 fcd4 	bl	2712c <memcmp>
    1784:	b930      	cbnz	r0, 1794 <APP_vProcessRxDataHisto+0x484>
    1786:	4828      	ldr	r0, [pc, #160]	; (1828 <APP_vProcessRxDataHisto+0x518>)
    1788:	f025 fcc8 	bl	2711c <atoi>
    178c:	4b28      	ldr	r3, [pc, #160]	; (1830 <APP_vProcessRxDataHisto+0x520>)
    178e:	f8a3 0454 	strh.w	r0, [r3, #1108]	; 0x454
    1792:	e5f3      	b.n	137c <APP_vProcessRxDataHisto+0x6c>
    1794:	493a      	ldr	r1, [pc, #232]	; (1880 <APP_vProcessRxDataHisto+0x570>)
    1796:	4823      	ldr	r0, [pc, #140]	; (1824 <APP_vProcessRxDataHisto+0x514>)
    1798:	2205      	movs	r2, #5
    179a:	f025 fcc7 	bl	2712c <memcmp>
    179e:	b930      	cbnz	r0, 17ae <APP_vProcessRxDataHisto+0x49e>
    17a0:	4821      	ldr	r0, [pc, #132]	; (1828 <APP_vProcessRxDataHisto+0x518>)
    17a2:	f025 fcbb 	bl	2711c <atoi>
    17a6:	4b22      	ldr	r3, [pc, #136]	; (1830 <APP_vProcessRxDataHisto+0x520>)
    17a8:	f8a3 0456 	strh.w	r0, [r3, #1110]	; 0x456
    17ac:	e5e6      	b.n	137c <APP_vProcessRxDataHisto+0x6c>
    17ae:	2206      	movs	r2, #6
    17b0:	4934      	ldr	r1, [pc, #208]	; (1884 <APP_vProcessRxDataHisto+0x574>)
    17b2:	481c      	ldr	r0, [pc, #112]	; (1824 <APP_vProcessRxDataHisto+0x514>)
    17b4:	f025 fcba 	bl	2712c <memcmp>
    17b8:	2204      	movs	r2, #4
    17ba:	b910      	cbnz	r0, 17c2 <APP_vProcessRxDataHisto+0x4b2>
    17bc:	491a      	ldr	r1, [pc, #104]	; (1828 <APP_vProcessRxDataHisto+0x518>)
    17be:	4832      	ldr	r0, [pc, #200]	; (1888 <APP_vProcessRxDataHisto+0x578>)
    17c0:	e619      	b.n	13f6 <APP_vProcessRxDataHisto+0xe6>
    17c2:	4932      	ldr	r1, [pc, #200]	; (188c <APP_vProcessRxDataHisto+0x57c>)
    17c4:	4817      	ldr	r0, [pc, #92]	; (1824 <APP_vProcessRxDataHisto+0x514>)
    17c6:	f025 fcb1 	bl	2712c <memcmp>
    17ca:	b930      	cbnz	r0, 17da <APP_vProcessRxDataHisto+0x4ca>
    17cc:	4816      	ldr	r0, [pc, #88]	; (1828 <APP_vProcessRxDataHisto+0x518>)
    17ce:	f025 fca5 	bl	2711c <atoi>
    17d2:	4b17      	ldr	r3, [pc, #92]	; (1830 <APP_vProcessRxDataHisto+0x520>)
    17d4:	f883 044d 	strb.w	r0, [r3, #1101]	; 0x44d
    17d8:	e5d0      	b.n	137c <APP_vProcessRxDataHisto+0x6c>
    17da:	492d      	ldr	r1, [pc, #180]	; (1890 <APP_vProcessRxDataHisto+0x580>)
    17dc:	4811      	ldr	r0, [pc, #68]	; (1824 <APP_vProcessRxDataHisto+0x514>)
    17de:	2204      	movs	r2, #4
    17e0:	f025 fca4 	bl	2712c <memcmp>
    17e4:	b930      	cbnz	r0, 17f4 <APP_vProcessRxDataHisto+0x4e4>
    17e6:	4810      	ldr	r0, [pc, #64]	; (1828 <APP_vProcessRxDataHisto+0x518>)
    17e8:	f025 fc98 	bl	2711c <atoi>
    17ec:	4b10      	ldr	r3, [pc, #64]	; (1830 <APP_vProcessRxDataHisto+0x520>)
    17ee:	f883 044e 	strb.w	r0, [r3, #1102]	; 0x44e
    17f2:	e5c3      	b.n	137c <APP_vProcessRxDataHisto+0x6c>
    17f4:	4927      	ldr	r1, [pc, #156]	; (1894 <APP_vProcessRxDataHisto+0x584>)
    17f6:	480b      	ldr	r0, [pc, #44]	; (1824 <APP_vProcessRxDataHisto+0x514>)
    17f8:	2205      	movs	r2, #5
    17fa:	f025 fc97 	bl	2712c <memcmp>
    17fe:	2800      	cmp	r0, #0
    1800:	f47f adbc 	bne.w	137c <APP_vProcessRxDataHisto+0x6c>
    1804:	4b0a      	ldr	r3, [pc, #40]	; (1830 <APP_vProcessRxDataHisto+0x520>)
    1806:	4a08      	ldr	r2, [pc, #32]	; (1828 <APP_vProcessRxDataHisto+0x518>)
    1808:	f883 244c 	strb.w	r2, [r3, #1100]	; 0x44c
    180c:	e5b6      	b.n	137c <APP_vProcessRxDataHisto+0x6c>
    180e:	6823      	ldr	r3, [r4, #0]
    1810:	3301      	adds	r3, #1
    1812:	6023      	str	r3, [r4, #0]
    1814:	e5b2      	b.n	137c <APP_vProcessRxDataHisto+0x6c>
    1816:	2001      	movs	r0, #1
    1818:	e5b4      	b.n	1384 <APP_vProcessRxDataHisto+0x74>
    181a:	2002      	movs	r0, #2
    181c:	e5b2      	b.n	1384 <APP_vProcessRxDataHisto+0x74>
    181e:	bf00      	nop
    1820:	000280aa 	.word	0x000280aa
    1824:	04013e50 	.word	0x04013e50
    1828:	04013f50 	.word	0x04013f50
    182c:	000280b1 	.word	0x000280b1
    1830:	04013fd8 	.word	0x04013fd8
    1834:	000280bf 	.word	0x000280bf
    1838:	000280c5 	.word	0x000280c5
    183c:	000280d2 	.word	0x000280d2
    1840:	000280d8 	.word	0x000280d8
    1844:	000280e5 	.word	0x000280e5
    1848:	000280eb 	.word	0x000280eb
    184c:	000280f8 	.word	0x000280f8
    1850:	000280fe 	.word	0x000280fe
    1854:	0002810b 	.word	0x0002810b
    1858:	00028110 	.word	0x00028110
    185c:	0002811c 	.word	0x0002811c
    1860:	00028121 	.word	0x00028121
    1864:	0002812d 	.word	0x0002812d
    1868:	00028132 	.word	0x00028132
    186c:	0002813e 	.word	0x0002813e
    1870:	00028143 	.word	0x00028143
    1874:	0002814f 	.word	0x0002814f
    1878:	00028154 	.word	0x00028154
    187c:	0002815a 	.word	0x0002815a
    1880:	00028160 	.word	0x00028160
    1884:	00028166 	.word	0x00028166
    1888:	04014420 	.word	0x04014420
    188c:	0002816d 	.word	0x0002816d
    1890:	00028172 	.word	0x00028172
    1894:	00027f6d 	.word	0x00027f6d

00001898 <vAPP_LinkySensorSample>:
    1898:	e92d 41f0 	stmdb	sp!, {r4, r5, r6, r7, r8, lr}
    189c:	4b2f      	ldr	r3, [pc, #188]	; (195c <vAPP_LinkySensorSample+0xc4>)
    189e:	4c30      	ldr	r4, [pc, #192]	; (1960 <vAPP_LinkySensorSample+0xc8>)
    18a0:	2200      	movs	r2, #0
    18a2:	701a      	strb	r2, [r3, #0]
    18a4:	f001 fa12 	bl	2ccc <vStopBlinkTimer>
    18a8:	f000 fd80 	bl	23ac <UARTLINKY_vInit>
    18ac:	7823      	ldrb	r3, [r4, #0]
    18ae:	2b01      	cmp	r3, #1
    18b0:	d13a      	bne.n	1928 <vAPP_LinkySensorSample+0x90>
    18b2:	f44f 5016 	mov.w	r0, #9600	; 0x2580
    18b6:	f000 fdad 	bl	2414 <UARTLINKY_vSetBaudRate>
    18ba:	482a      	ldr	r0, [pc, #168]	; (1964 <vAPP_LinkySensorSample+0xcc>)
    18bc:	4f2a      	ldr	r7, [pc, #168]	; (1968 <vAPP_LinkySensorSample+0xd0>)
    18be:	f8df 80c8 	ldr.w	r8, [pc, #200]	; 1988 <vAPP_LinkySensorSample+0xf0>
    18c2:	f001 fae7 	bl	2e94 <DbgConsole_Printf>
    18c6:	4a29      	ldr	r2, [pc, #164]	; (196c <vAPP_LinkySensorSample+0xd4>)
    18c8:	2600      	movs	r6, #0
    18ca:	f882 60e6 	strb.w	r6, [r2, #230]	; 0xe6
    18ce:	4a28      	ldr	r2, [pc, #160]	; (1970 <vAPP_LinkySensorSample+0xd8>)
    18d0:	6016      	str	r6, [r2, #0]
    18d2:	7823      	ldrb	r3, [r4, #0]
    18d4:	2b01      	cmp	r3, #1
    18d6:	d12c      	bne.n	1932 <vAPP_LinkySensorSample+0x9a>
    18d8:	f7ff fa12 	bl	d00 <APP_vProcessRxDataStandard>
    18dc:	4605      	mov	r5, r0
    18de:	b348      	cbz	r0, 1934 <vAPP_LinkySensorSample+0x9c>
    18e0:	f000 fd8c 	bl	23fc <UARTLINKY_vDeInit>
    18e4:	2d02      	cmp	r5, #2
    18e6:	d134      	bne.n	1952 <vAPP_LinkySensorSample+0xba>
    18e8:	7823      	ldrb	r3, [r4, #0]
    18ea:	2b01      	cmp	r3, #1
    18ec:	d12b      	bne.n	1946 <vAPP_LinkySensorSample+0xae>
    18ee:	2300      	movs	r3, #0
    18f0:	4820      	ldr	r0, [pc, #128]	; (1974 <vAPP_LinkySensorSample+0xdc>)
    18f2:	7023      	strb	r3, [r4, #0]
    18f4:	f001 face 	bl	2e94 <DbgConsole_Printf>
    18f8:	4b1c      	ldr	r3, [pc, #112]	; (196c <vAPP_LinkySensorSample+0xd4>)
    18fa:	2201      	movs	r2, #1
    18fc:	f883 20e6 	strb.w	r2, [r3, #230]	; 0xe6
    1900:	2005      	movs	r0, #5
    1902:	f001 f9c9 	bl	2c98 <vStartAwakeTimer>
    1906:	20fa      	movs	r0, #250	; 0xfa
    1908:	f001 f9d0 	bl	2cac <vStartBlinkTimer>
    190c:	481a      	ldr	r0, [pc, #104]	; (1978 <vAPP_LinkySensorSample+0xe0>)
    190e:	f001 fac1 	bl	2e94 <DbgConsole_Printf>
    1912:	481a      	ldr	r0, [pc, #104]	; (197c <vAPP_LinkySensorSample+0xe4>)
    1914:	f001 fabe 	bl	2e94 <DbgConsole_Printf>
    1918:	4b19      	ldr	r3, [pc, #100]	; (1980 <vAPP_LinkySensorSample+0xe8>)
    191a:	e8bd 41f0 	ldmia.w	sp!, {r4, r5, r6, r7, r8, lr}
    191e:	7818      	ldrb	r0, [r3, #0]
    1920:	f241 3188 	movw	r1, #5000	; 0x1388
    1924:	f001 bf68 	b.w	37f8 <ZTIMER_eStart>
    1928:	2b00      	cmp	r3, #0
    192a:	d1c6      	bne.n	18ba <vAPP_LinkySensorSample+0x22>
    192c:	f44f 6096 	mov.w	r0, #1200	; 0x4b0
    1930:	e7c1      	b.n	18b6 <vAPP_LinkySensorSample+0x1e>
    1932:	b12b      	cbz	r3, 1940 <vAPP_LinkySensorSample+0xa8>
    1934:	4638      	mov	r0, r7
    1936:	f002 fa95 	bl	3e64 <WWDT_Refresh>
    193a:	f888 6000 	strb.w	r6, [r8]
    193e:	e7c8      	b.n	18d2 <vAPP_LinkySensorSample+0x3a>
    1940:	f7ff fce6 	bl	1310 <APP_vProcessRxDataHisto>
    1944:	e7ca      	b.n	18dc <vAPP_LinkySensorSample+0x44>
    1946:	2b00      	cmp	r3, #0
    1948:	d1d6      	bne.n	18f8 <vAPP_LinkySensorSample+0x60>
    194a:	2301      	movs	r3, #1
    194c:	480d      	ldr	r0, [pc, #52]	; (1984 <vAPP_LinkySensorSample+0xec>)
    194e:	7023      	strb	r3, [r4, #0]
    1950:	e7d0      	b.n	18f4 <vAPP_LinkySensorSample+0x5c>
    1952:	4b06      	ldr	r3, [pc, #24]	; (196c <vAPP_LinkySensorSample+0xd4>)
    1954:	2201      	movs	r2, #1
    1956:	f883 20e6 	strb.w	r2, [r3, #230]	; 0xe6
    195a:	e7da      	b.n	1912 <vAPP_LinkySensorSample+0x7a>
    195c:	04013fd0 	.word	0x04013fd0
    1960:	04012153 	.word	0x04012153
    1964:	00028177 	.word	0x00028177
    1968:	4000a000 	.word	0x4000a000
    196c:	40080000 	.word	0x40080000
    1970:	04014438 	.word	0x04014438
    1974:	00028193 	.word	0x00028193
    1978:	000281b5 	.word	0x000281b5
    197c:	000281c7 	.word	0x000281c7
    1980:	04012158 	.word	0x04012158
    1984:	000281a5 	.word	0x000281a5
    1988:	0401215c 	.word	0x0401215c

0000198c <APP_cbTimerLinkySample>:
    198c:	4b03      	ldr	r3, [pc, #12]	; (199c <APP_cbTimerLinkySample+0x10>)
    198e:	781b      	ldrb	r3, [r3, #0]
    1990:	2b01      	cmp	r3, #1
    1992:	d101      	bne.n	1998 <APP_cbTimerLinkySample+0xc>
    1994:	f7ff bf80 	b.w	1898 <vAPP_LinkySensorSample>
    1998:	4770      	bx	lr
    199a:	bf00      	nop
    199c:	04011f50 	.word	0x04011f50

000019a0 <app_u8GetDeviceEndpoint>:
    19a0:	2001      	movs	r0, #1
    19a2:	4770      	bx	lr

000019a4 <APP_vBdbCallback>:
    19a4:	b530      	push	{r4, r5, lr}
    19a6:	7801      	ldrb	r1, [r0, #0]
    19a8:	b089      	sub	sp, #36	; 0x24
    19aa:	4604      	mov	r4, r0
    19ac:	2917      	cmp	r1, #23
    19ae:	f200 80bd 	bhi.w	1b2c <APP_vBdbCallback+0x188>
    19b2:	e8df f001 	tbb	[pc, r1]
    19b6:	0c3a      	.short	0x0c3a
    19b8:	5b464c3c 	.word	0x5b464c3c
    19bc:	67bbbb65 	.word	0x67bbbb65
    19c0:	7d6ebbbb 	.word	0x7d6ebbbb
    19c4:	a6a28783 	.word	0xa6a28783
    19c8:	b9aaa8a4 	.word	0xb9aaa8a4
    19cc:	40bb      	.short	0x40bb
    19ce:	7a03      	ldrb	r3, [r0, #8]
    19d0:	7c05      	ldrb	r5, [r0, #16]
    19d2:	2b01      	cmp	r3, #1
    19d4:	d111      	bne.n	19fa <APP_vBdbCallback+0x56>
    19d6:	f006 fdf3 	bl	85c0 <OSA_TimeGetMsec>
    19da:	4629      	mov	r1, r5
    19dc:	4602      	mov	r2, r0
    19de:	4854      	ldr	r0, [pc, #336]	; (1b30 <APP_vBdbCallback+0x18c>)
    19e0:	f001 fa58 	bl	2e94 <DbgConsole_Printf>
    19e4:	f104 0010 	add.w	r0, r4, #16
    19e8:	f000 fb78 	bl	20dc <APP_ZCL_vEventHandler>
    19ec:	7c23      	ldrb	r3, [r4, #16]
    19ee:	2b01      	cmp	r3, #1
    19f0:	d119      	bne.n	1a26 <APP_vBdbCallback+0x82>
    19f2:	6aa0      	ldr	r0, [r4, #40]	; 0x28
    19f4:	f00c fb96 	bl	e124 <PDUM_eAPduFreeAPduInstance>
    19f8:	e017      	b.n	1a2a <APP_vBdbCallback+0x86>
    19fa:	2b00      	cmp	r3, #0
    19fc:	d1f6      	bne.n	19ec <APP_vBdbCallback+0x48>
    19fe:	f006 fddf 	bl	85c0 <OSA_TimeGetMsec>
    1a02:	4629      	mov	r1, r5
    1a04:	4602      	mov	r2, r0
    1a06:	484b      	ldr	r0, [pc, #300]	; (1b34 <APP_vBdbCallback+0x190>)
    1a08:	f001 fa44 	bl	2e94 <DbgConsole_Printf>
    1a0c:	4b4a      	ldr	r3, [pc, #296]	; (1b38 <APP_vBdbCallback+0x194>)
    1a0e:	781b      	ldrb	r3, [r3, #0]
    1a10:	b133      	cbz	r3, 1a20 <APP_vBdbCallback+0x7c>
    1a12:	2b02      	cmp	r3, #2
    1a14:	d1ea      	bne.n	19ec <APP_vBdbCallback+0x48>
    1a16:	f104 0010 	add.w	r0, r4, #16
    1a1a:	f000 fc73 	bl	2304 <vAppHandleRunning>
    1a1e:	e7e5      	b.n	19ec <APP_vBdbCallback+0x48>
    1a20:	f000 fc98 	bl	2354 <vAppHandleStartup>
    1a24:	e7e2      	b.n	19ec <APP_vBdbCallback+0x48>
    1a26:	2b16      	cmp	r3, #22
    1a28:	d0e3      	beq.n	19f2 <APP_vBdbCallback+0x4e>
    1a2a:	b009      	add	sp, #36	; 0x24
    1a2c:	bd30      	pop	{r4, r5, pc}
    1a2e:	4843      	ldr	r0, [pc, #268]	; (1b3c <APP_vBdbCallback+0x198>)
    1a30:	f001 fa30 	bl	2e94 <DbgConsole_Printf>
    1a34:	e7f9      	b.n	1a2a <APP_vBdbCallback+0x86>
    1a36:	4842      	ldr	r0, [pc, #264]	; (1b40 <APP_vBdbCallback+0x19c>)
    1a38:	f001 fa2c 	bl	2e94 <DbgConsole_Printf>
    1a3c:	f000 ff62 	bl	2904 <vHandleFailedRejoin>
    1a40:	e7f3      	b.n	1a2a <APP_vBdbCallback+0x86>
    1a42:	4840      	ldr	r0, [pc, #256]	; (1b44 <APP_vBdbCallback+0x1a0>)
    1a44:	f001 fa26 	bl	2e94 <DbgConsole_Printf>
    1a48:	f000 ff48 	bl	28dc <vHandleFailedToJoin>
    1a4c:	e7ed      	b.n	1a2a <APP_vBdbCallback+0x86>
    1a4e:	483e      	ldr	r0, [pc, #248]	; (1b48 <APP_vBdbCallback+0x1a4>)
    1a50:	f001 fa20 	bl	2e94 <DbgConsole_Printf>
    1a54:	4b3d      	ldr	r3, [pc, #244]	; (1b4c <APP_vBdbCallback+0x1a8>)
    1a56:	2200      	movs	r2, #0
    1a58:	2064      	movs	r0, #100	; 0x64
    1a5a:	701a      	strb	r2, [r3, #0]
    1a5c:	f000 ff14 	bl	2888 <vStartPollTimer>
    1a60:	f000 ff60 	bl	2924 <vHandleNetworkJoinEndDevice>
    1a64:	2005      	movs	r0, #5
    1a66:	f000 fc83 	bl	2370 <vStartJoinIdle>
    1a6a:	e7de      	b.n	1a2a <APP_vBdbCallback+0x86>
    1a6c:	4838      	ldr	r0, [pc, #224]	; (1b50 <APP_vBdbCallback+0x1ac>)
    1a6e:	f001 fa11 	bl	2e94 <DbgConsole_Printf>
    1a72:	4b36      	ldr	r3, [pc, #216]	; (1b4c <APP_vBdbCallback+0x1a8>)
    1a74:	2200      	movs	r2, #0
    1a76:	701a      	strb	r2, [r3, #0]
    1a78:	f000 ff74 	bl	2964 <vHandleNetworkJoinAndRejoin>
    1a7c:	200f      	movs	r0, #15
    1a7e:	e7f2      	b.n	1a66 <APP_vBdbCallback+0xc2>
    1a80:	4834      	ldr	r0, [pc, #208]	; (1b54 <APP_vBdbCallback+0x1b0>)
    1a82:	e7df      	b.n	1a44 <APP_vBdbCallback+0xa0>
    1a84:	4834      	ldr	r0, [pc, #208]	; (1b58 <APP_vBdbCallback+0x1b4>)
    1a86:	f001 fa05 	bl	2e94 <DbgConsole_Printf>
    1a8a:	2064      	movs	r0, #100	; 0x64
    1a8c:	f000 fefc 	bl	2888 <vStartPollTimer>
    1a90:	e7cb      	b.n	1a2a <APP_vBdbCallback+0x86>
    1a92:	4832      	ldr	r0, [pc, #200]	; (1b5c <APP_vBdbCallback+0x1b8>)
    1a94:	f001 f9fe 	bl	2e94 <DbgConsole_Printf>
    1a98:	68a0      	ldr	r0, [r4, #8]
    1a9a:	7a04      	ldrb	r4, [r0, #8]
    1a9c:	8883      	ldrh	r3, [r0, #4]
    1a9e:	8842      	ldrh	r2, [r0, #2]
    1aa0:	7841      	ldrb	r1, [r0, #1]
    1aa2:	9401      	str	r4, [sp, #4]
    1aa4:	88c0      	ldrh	r0, [r0, #6]
    1aa6:	9000      	str	r0, [sp, #0]
    1aa8:	482d      	ldr	r0, [pc, #180]	; (1b60 <APP_vBdbCallback+0x1bc>)
    1aaa:	f001 f9f3 	bl	2e94 <DbgConsole_Printf>
    1aae:	e7bc      	b.n	1a2a <APP_vBdbCallback+0x86>
    1ab0:	6883      	ldr	r3, [r0, #8]
    1ab2:	482c      	ldr	r0, [pc, #176]	; (1b64 <APP_vBdbCallback+0x1c0>)
    1ab4:	8959      	ldrh	r1, [r3, #10]
    1ab6:	f001 f9ed 	bl	2e94 <DbgConsole_Printf>
    1aba:	e7b6      	b.n	1a2a <APP_vBdbCallback+0x86>
    1abc:	6883      	ldr	r3, [r0, #8]
    1abe:	482a      	ldr	r0, [pc, #168]	; (1b68 <APP_vBdbCallback+0x1c4>)
    1ac0:	8959      	ldrh	r1, [r3, #10]
    1ac2:	e7f8      	b.n	1ab6 <APP_vBdbCallback+0x112>
    1ac4:	6883      	ldr	r3, [r0, #8]
    1ac6:	4829      	ldr	r0, [pc, #164]	; (1b6c <APP_vBdbCallback+0x1c8>)
    1ac8:	7859      	ldrb	r1, [r3, #1]
    1aca:	f001 f9e3 	bl	2e94 <DbgConsole_Printf>
    1ace:	4a28      	ldr	r2, [pc, #160]	; (1b70 <APP_vBdbCallback+0x1cc>)
    1ad0:	2300      	movs	r3, #0
    1ad2:	7013      	strb	r3, [r2, #0]
    1ad4:	f8ad 300c 	strh.w	r3, [sp, #12]
    1ad8:	2307      	movs	r3, #7
    1ada:	f88d 3010 	strb.w	r3, [sp, #16]
    1ade:	68a3      	ldr	r3, [r4, #8]
    1ae0:	885a      	ldrh	r2, [r3, #2]
    1ae2:	f8ad 2018 	strh.w	r2, [sp, #24]
    1ae6:	7859      	ldrb	r1, [r3, #1]
    1ae8:	7818      	ldrb	r0, [r3, #0]
    1aea:	ab03      	add	r3, sp, #12
    1aec:	9300      	str	r3, [sp, #0]
    1aee:	aa04      	add	r2, sp, #16
    1af0:	f10d 030b 	add.w	r3, sp, #11
    1af4:	f007 f80c 	bl	8b10 <eCLD_IdentifyCommandIdentifyRequestSend>
    1af8:	e797      	b.n	1a2a <APP_vBdbCallback+0x86>
    1afa:	481e      	ldr	r0, [pc, #120]	; (1b74 <APP_vBdbCallback+0x1d0>)
    1afc:	e798      	b.n	1a30 <APP_vBdbCallback+0x8c>
    1afe:	481e      	ldr	r0, [pc, #120]	; (1b78 <APP_vBdbCallback+0x1d4>)
    1b00:	e796      	b.n	1a30 <APP_vBdbCallback+0x8c>
    1b02:	481e      	ldr	r0, [pc, #120]	; (1b7c <APP_vBdbCallback+0x1d8>)
    1b04:	e794      	b.n	1a30 <APP_vBdbCallback+0x8c>
    1b06:	481e      	ldr	r0, [pc, #120]	; (1b80 <APP_vBdbCallback+0x1dc>)
    1b08:	e792      	b.n	1a30 <APP_vBdbCallback+0x8c>
    1b0a:	481e      	ldr	r0, [pc, #120]	; (1b84 <APP_vBdbCallback+0x1e0>)
    1b0c:	f001 f9c2 	bl	2e94 <DbgConsole_Printf>
    1b10:	4a17      	ldr	r2, [pc, #92]	; (1b70 <APP_vBdbCallback+0x1cc>)
    1b12:	7813      	ldrb	r3, [r2, #0]
    1b14:	2b01      	cmp	r3, #1
    1b16:	d904      	bls.n	1b22 <APP_vBdbCallback+0x17e>
    1b18:	2300      	movs	r3, #0
    1b1a:	7013      	strb	r3, [r2, #0]
    1b1c:	f00b fd88 	bl	d630 <BDB_vFbExitAsInitiator>
    1b20:	e783      	b.n	1a2a <APP_vBdbCallback+0x86>
    1b22:	3301      	adds	r3, #1
    1b24:	7013      	strb	r3, [r2, #0]
    1b26:	e780      	b.n	1a2a <APP_vBdbCallback+0x86>
    1b28:	4817      	ldr	r0, [pc, #92]	; (1b88 <APP_vBdbCallback+0x1e4>)
    1b2a:	e781      	b.n	1a30 <APP_vBdbCallback+0x8c>
    1b2c:	4817      	ldr	r0, [pc, #92]	; (1b8c <APP_vBdbCallback+0x1e8>)
    1b2e:	e7c2      	b.n	1ab6 <APP_vBdbCallback+0x112>
    1b30:	000281d8 	.word	0x000281d8
    1b34:	00028227 	.word	0x00028227
    1b38:	0401443d 	.word	0x0401443d
    1b3c:	00028274 	.word	0x00028274
    1b40:	0002829b 	.word	0x0002829b
    1b44:	000282d1 	.word	0x000282d1
    1b48:	000282fa 	.word	0x000282fa
    1b4c:	0401443c 	.word	0x0401443c
    1b50:	00028323 	.word	0x00028323
    1b54:	00028352 	.word	0x00028352
    1b58:	00028377 	.word	0x00028377
    1b5c:	000283a3 	.word	0x000283a3
    1b60:	000283e2 	.word	0x000283e2
    1b64:	0002840f 	.word	0x0002840f
    1b68:	00028467 	.word	0x00028467
    1b6c:	000284b7 	.word	0x000284b7
    1b70:	0401443f 	.word	0x0401443f
    1b74:	000284fb 	.word	0x000284fb
    1b78:	0002852e 	.word	0x0002852e
    1b7c:	00028562 	.word	0x00028562
    1b80:	00028592 	.word	0x00028592
    1b84:	000285c3 	.word	0x000285c3
    1b88:	000285f2 	.word	0x000285f2
    1b8c:	00028617 	.word	0x00028617

00001b90 <APP_vFactoryResetRecords>:
    1b90:	b510      	push	{r4, lr}
    1b92:	4c0e      	ldr	r4, [pc, #56]	; (1bcc <APP_vFactoryResetRecords+0x3c>)
    1b94:	480e      	ldr	r0, [pc, #56]	; (1bd0 <APP_vFactoryResetRecords+0x40>)
    1b96:	2300      	movs	r3, #0
    1b98:	7023      	strb	r3, [r4, #0]
    1b9a:	f001 f97b 	bl	2e94 <DbgConsole_Printf>
    1b9e:	f7fe fe7f 	bl	8a0 <ZPS_pvAplZdoGetAplHandle>
    1ba2:	f013 ffc9 	bl	15b38 <zps_vDefaultStack>
    1ba6:	f7fe fe7b 	bl	8a0 <ZPS_pvAplZdoGetAplHandle>
    1baa:	2300      	movs	r3, #0
    1bac:	2200      	movs	r2, #0
    1bae:	f012 fbc2 	bl	14336 <zps_eAplAibSetApsUseExtendedPanId>
    1bb2:	f012 ff1f 	bl	149f4 <ZPS_vSetKeys>
    1bb6:	4621      	mov	r1, r4
    1bb8:	2202      	movs	r2, #2
    1bba:	2001      	movs	r0, #1
    1bbc:	f00e fba6 	bl	1030c <PDM_eSaveRecordData>
    1bc0:	f7fe fe6e 	bl	8a0 <ZPS_pvAplZdoGetAplHandle>
    1bc4:	e8bd 4010 	ldmia.w	sp!, {r4, lr}
    1bc8:	f012 beee 	b.w	149a8 <zps_vSaveAllZpsRecords>
    1bcc:	0401443d 	.word	0x0401443d
    1bd0:	0002863c 	.word	0x0002863c

00001bd4 <APP_bNodeIsInRunningState>:
    1bd4:	b510      	push	{r4, lr}
    1bd6:	4c06      	ldr	r4, [pc, #24]	; (1bf0 <APP_bNodeIsInRunningState+0x1c>)
    1bd8:	4806      	ldr	r0, [pc, #24]	; (1bf4 <APP_bNodeIsInRunningState+0x20>)
    1bda:	7822      	ldrb	r2, [r4, #0]
    1bdc:	1e93      	subs	r3, r2, #2
    1bde:	4259      	negs	r1, r3
    1be0:	4159      	adcs	r1, r3
    1be2:	f001 f957 	bl	2e94 <DbgConsole_Printf>
    1be6:	7820      	ldrb	r0, [r4, #0]
    1be8:	1e82      	subs	r2, r0, #2
    1bea:	4250      	negs	r0, r2
    1bec:	4150      	adcs	r0, r2
    1bee:	bd10      	pop	{r4, pc}
    1bf0:	0401443d 	.word	0x0401443d
    1bf4:	00028671 	.word	0x00028671

00001bf8 <APP_vInitialiseNode>:
    1bf8:	b5f0      	push	{r4, r5, r6, r7, lr}
    1bfa:	4849      	ldr	r0, [pc, #292]	; (1d20 <APP_vInitialiseNode+0x128>)
    1bfc:	b085      	sub	sp, #20
    1bfe:	f001 f949 	bl	2e94 <DbgConsole_Printf>
    1c02:	f000 ffc5 	bl	2b90 <vManagePowerOnCountLoadRecord>
    1c06:	4b47      	ldr	r3, [pc, #284]	; (1d24 <APP_vInitialiseNode+0x12c>)
    1c08:	4847      	ldr	r0, [pc, #284]	; (1d28 <APP_vInitialiseNode+0x130>)
    1c0a:	6f19      	ldr	r1, [r3, #112]	; 0x70
    1c0c:	f001 f942 	bl	2e94 <DbgConsole_Printf>
    1c10:	f7fe fe82 	bl	918 <eRestoreReports>
    1c14:	f10d 030a 	add.w	r3, sp, #10
    1c18:	2202      	movs	r2, #2
    1c1a:	4944      	ldr	r1, [pc, #272]	; (1d2c <APP_vInitialiseNode+0x134>)
    1c1c:	4604      	mov	r4, r0
    1c1e:	2001      	movs	r0, #1
    1c20:	f00c ff4e 	bl	eac0 <PDM_eReadDataFromRecord>
    1c24:	2001      	movs	r0, #1
    1c26:	f7fe fce3 	bl	5f0 <APP_vRadioTempUpdate>
    1c2a:	4841      	ldr	r0, [pc, #260]	; (1d30 <APP_vInitialiseNode+0x138>)
    1c2c:	f001 f932 	bl	2e94 <DbgConsole_Printf>
    1c30:	f7fe fe36 	bl	8a0 <ZPS_pvAplZdoGetAplHandle>
    1c34:	2101      	movs	r1, #1
    1c36:	f00e ff3d 	bl	10ab4 <zps_eAplAfInit>
    1c3a:	f000 fa21 	bl	2080 <APP_ZCL_vInitialise>
    1c3e:	f7fe fe2f 	bl	8a0 <ZPS_pvAplZdoGetAplHandle>
    1c42:	2101      	movs	r1, #1
    1c44:	f00f f872 	bl	10d2c <zps_bAplAfSetEndDeviceTimeout>
    1c48:	b124      	cbz	r4, 1c54 <APP_vInitialiseNode+0x5c>
    1c4a:	483a      	ldr	r0, [pc, #232]	; (1d34 <APP_vInitialiseNode+0x13c>)
    1c4c:	f001 f922 	bl	2e94 <DbgConsole_Printf>
    1c50:	f7fe feae 	bl	9b0 <vLoadDefaultConfigForReportable>
    1c54:	4c38      	ldr	r4, [pc, #224]	; (1d38 <APP_vInitialiseNode+0x140>)
    1c56:	4f39      	ldr	r7, [pc, #228]	; (1d3c <APP_vInitialiseNode+0x144>)
    1c58:	4e39      	ldr	r6, [pc, #228]	; (1d40 <APP_vInitialiseNode+0x148>)
    1c5a:	f7fe fe73 	bl	944 <vMakeSupportedAttributesReportable>
    1c5e:	4b39      	ldr	r3, [pc, #228]	; (1d44 <APP_vInitialiseNode+0x14c>)
    1c60:	9303      	str	r3, [sp, #12]
    1c62:	a803      	add	r0, sp, #12
    1c64:	62e7      	str	r7, [r4, #44]	; 0x2c
    1c66:	6366      	str	r6, [r4, #52]	; 0x34
    1c68:	f00a fe36 	bl	c8d8 <BDB_vInit>
    1c6c:	f7ff ffb2 	bl	1bd4 <APP_bNodeIsInRunningState>
    1c70:	4605      	mov	r5, r0
    1c72:	2800      	cmp	r0, #0
    1c74:	d045      	beq.n	1d02 <APP_vInitialiseNode+0x10a>
    1c76:	4834      	ldr	r0, [pc, #208]	; (1d48 <APP_vInitialiseNode+0x150>)
    1c78:	f001 f90c 	bl	2e94 <DbgConsole_Printf>
    1c7c:	f7fe fe10 	bl	8a0 <ZPS_pvAplZdoGetAplHandle>
    1c80:	f012 fe92 	bl	149a8 <zps_vSaveAllZpsRecords>
    1c84:	2301      	movs	r3, #1
    1c86:	f884 302a 	strb.w	r3, [r4, #42]	; 0x2a
    1c8a:	4830      	ldr	r0, [pc, #192]	; (1d4c <APP_vInitialiseNode+0x154>)
    1c8c:	f001 f902 	bl	2e94 <DbgConsole_Printf>
    1c90:	f000 fb04 	bl	229c <APP_bButtonInitialise>
    1c94:	482e      	ldr	r0, [pc, #184]	; (1d50 <APP_vInitialiseNode+0x158>)
    1c96:	f001 f8fd 	bl	2e94 <DbgConsole_Printf>
    1c9a:	f000 fa79 	bl	2190 <APP_u32GetSwitchIOState>
    1c9e:	f010 0501 	ands.w	r5, r0, #1
    1ca2:	d112      	bne.n	1cca <APP_vInitialiseNode+0xd2>
    1ca4:	f884 502a 	strb.w	r5, [r4, #42]	; 0x2a
    1ca8:	f7fe fdfa 	bl	8a0 <ZPS_pvAplZdoGetAplHandle>
    1cac:	e9cd 5500 	strd	r5, r5, [sp]
    1cb0:	2200      	movs	r2, #0
    1cb2:	2300      	movs	r3, #0
    1cb4:	f013 f9f0 	bl	15098 <zps_eAplZdoLeaveNetwork>
    1cb8:	b138      	cbz	r0, 1cca <APP_vInitialiseNode+0xd2>
    1cba:	4826      	ldr	r0, [pc, #152]	; (1d54 <APP_vInitialiseNode+0x15c>)
    1cbc:	f001 f8ea 	bl	2e94 <DbgConsole_Printf>
    1cc0:	f7ff ff66 	bl	1b90 <APP_vFactoryResetRecords>
    1cc4:	b672      	cpsid	i
    1cc6:	f002 fd95 	bl	47f4 <RESET_SystemReset>
    1cca:	4b23      	ldr	r3, [pc, #140]	; (1d58 <APP_vInitialiseNode+0x160>)
    1ccc:	4823      	ldr	r0, [pc, #140]	; (1d5c <APP_vInitialiseNode+0x164>)
    1cce:	2201      	movs	r2, #1
    1cd0:	729a      	strb	r2, [r3, #10]
    1cd2:	f001 f8df 	bl	2e94 <DbgConsole_Printf>
    1cd6:	f000 fd35 	bl	2744 <bTSL25721_Init>
    1cda:	4601      	mov	r1, r0
    1cdc:	4820      	ldr	r0, [pc, #128]	; (1d60 <APP_vInitialiseNode+0x168>)
    1cde:	f001 f8d9 	bl	2e94 <DbgConsole_Printf>
    1ce2:	f7ff fdd9 	bl	1898 <vAPP_LinkySensorSample>
    1ce6:	f000 ff61 	bl	2bac <vManagePowerOnCountInit>
    1cea:	f7ff ff73 	bl	1bd4 <APP_bNodeIsInRunningState>
    1cee:	b918      	cbnz	r0, 1cf8 <APP_vInitialiseNode+0x100>
    1cf0:	f44f 707a 	mov.w	r0, #1000	; 0x3e8
    1cf4:	f000 ffda 	bl	2cac <vStartBlinkTimer>
    1cf8:	481a      	ldr	r0, [pc, #104]	; (1d64 <APP_vInitialiseNode+0x16c>)
    1cfa:	f001 f8cb 	bl	2e94 <DbgConsole_Printf>
    1cfe:	b005      	add	sp, #20
    1d00:	bdf0      	pop	{r4, r5, r6, r7, pc}
    1d02:	4819      	ldr	r0, [pc, #100]	; (1d68 <APP_vInitialiseNode+0x170>)
    1d04:	f001 f8c6 	bl	2e94 <DbgConsole_Printf>
    1d08:	4b08      	ldr	r3, [pc, #32]	; (1d2c <APP_vInitialiseNode+0x134>)
    1d0a:	4818      	ldr	r0, [pc, #96]	; (1d6c <APP_vInitialiseNode+0x174>)
    1d0c:	62e7      	str	r7, [r4, #44]	; 0x2c
    1d0e:	2201      	movs	r2, #1
    1d10:	6366      	str	r6, [r4, #52]	; 0x34
    1d12:	701a      	strb	r2, [r3, #0]
    1d14:	f001 f8be 	bl	2e94 <DbgConsole_Printf>
    1d18:	f884 502a 	strb.w	r5, [r4, #42]	; 0x2a
    1d1c:	e7b5      	b.n	1c8a <APP_vInitialiseNode+0x92>
    1d1e:	bf00      	nop
    1d20:	000286a7 	.word	0x000286a7
    1d24:	40012000 	.word	0x40012000
    1d28:	000286cb 	.word	0x000286cb
    1d2c:	0401443d 	.word	0x0401443d
    1d30:	00028701 	.word	0x00028701
    1d34:	00028733 	.word	0x00028733
    1d38:	04015b10 	.word	0x04015b10
    1d3c:	02108800 	.word	0x02108800
    1d40:	05ef7000 	.word	0x05ef7000
    1d44:	04011f64 	.word	0x04011f64
    1d48:	0002875b 	.word	0x0002875b
    1d4c:	000287db 	.word	0x000287db
    1d50:	00028814 	.word	0x00028814
    1d54:	0002884f 	.word	0x0002884f
    1d58:	40080000 	.word	0x40080000
    1d5c:	0002888f 	.word	0x0002888f
    1d60:	000288c1 	.word	0x000288c1
    1d64:	000288f8 	.word	0x000288f8
    1d68:	00028787 	.word	0x00028787
    1d6c:	000287b8 	.word	0x000287b8

00001d70 <APP_taskSensor>:
    1d70:	b570      	push	{r4, r5, r6, lr}
    1d72:	b086      	sub	sp, #24
    1d74:	ac03      	add	r4, sp, #12
    1d76:	4821      	ldr	r0, [pc, #132]	; (1dfc <APP_taskSensor+0x8c>)
    1d78:	2600      	movs	r6, #0
    1d7a:	4621      	mov	r1, r4
    1d7c:	f88d 600c 	strb.w	r6, [sp, #12]
    1d80:	f001 fc92 	bl	36a8 <ZQ_bQueueReceive>
    1d84:	2801      	cmp	r0, #1
    1d86:	4605      	mov	r5, r0
    1d88:	d126      	bne.n	1dd8 <APP_taskSensor+0x68>
    1d8a:	f89d 100c 	ldrb.w	r1, [sp, #12]
    1d8e:	481c      	ldr	r0, [pc, #112]	; (1e00 <APP_taskSensor+0x90>)
    1d90:	f001 f880 	bl	2e94 <DbgConsole_Printf>
    1d94:	4b1b      	ldr	r3, [pc, #108]	; (1e04 <APP_taskSensor+0x94>)
    1d96:	781b      	ldrb	r3, [r3, #0]
    1d98:	b35b      	cbz	r3, 1df2 <APP_taskSensor+0x82>
    1d9a:	f44f 707a 	mov.w	r0, #1000	; 0x3e8
    1d9e:	f000 ff85 	bl	2cac <vStartBlinkTimer>
    1da2:	f7ff ff17 	bl	1bd4 <APP_bNodeIsInRunningState>
    1da6:	b308      	cbz	r0, 1dec <APP_taskSensor+0x7c>
    1da8:	f89d 300c 	ldrb.w	r3, [sp, #12]
    1dac:	4c16      	ldr	r4, [pc, #88]	; (1e08 <APP_taskSensor+0x98>)
    1dae:	2b0b      	cmp	r3, #11
    1db0:	d114      	bne.n	1ddc <APP_taskSensor+0x6c>
    1db2:	f884 602a 	strb.w	r6, [r4, #42]	; 0x2a
    1db6:	f7fe fd73 	bl	8a0 <ZPS_pvAplZdoGetAplHandle>
    1dba:	e9cd 6600 	strd	r6, r6, [sp]
    1dbe:	2200      	movs	r2, #0
    1dc0:	2300      	movs	r3, #0
    1dc2:	f013 f969 	bl	15098 <zps_eAplZdoLeaveNetwork>
    1dc6:	b138      	cbz	r0, 1dd8 <APP_taskSensor+0x68>
    1dc8:	4810      	ldr	r0, [pc, #64]	; (1e0c <APP_taskSensor+0x9c>)
    1dca:	f001 f863 	bl	2e94 <DbgConsole_Printf>
    1dce:	f7ff fedf 	bl	1b90 <APP_vFactoryResetRecords>
    1dd2:	b672      	cpsid	i
    1dd4:	f002 fd0e 	bl	47f4 <RESET_SystemReset>
    1dd8:	b006      	add	sp, #24
    1dda:	bd70      	pop	{r4, r5, r6, pc}
    1ddc:	480c      	ldr	r0, [pc, #48]	; (1e10 <APP_taskSensor+0xa0>)
    1dde:	f001 f859 	bl	2e94 <DbgConsole_Printf>
    1de2:	f884 502a 	strb.w	r5, [r4, #42]	; 0x2a
    1de6:	f00a ffa1 	bl	cd2c <BDB_vStart>
    1dea:	e7f5      	b.n	1dd8 <APP_taskSensor+0x68>
    1dec:	f000 fab2 	bl	2354 <vAppHandleStartup>
    1df0:	e7f2      	b.n	1dd8 <APP_taskSensor+0x68>
    1df2:	e894 0007 	ldmia.w	r4, {r0, r1, r2}
    1df6:	f000 fe33 	bl	2a60 <vAppHandleAppEvent>
    1dfa:	e7ed      	b.n	1dd8 <APP_taskSensor+0x68>
    1dfc:	04011f54 	.word	0x04011f54
    1e00:	0002891b 	.word	0x0002891b
    1e04:	0401443c 	.word	0x0401443c
    1e08:	04015b10 	.word	0x04015b10
    1e0c:	0002884f 	.word	0x0002884f
    1e10:	00028945 	.word	0x00028945

00001e14 <APP_ZCL_cbGeneralCallback>:
    1e14:	7803      	ldrb	r3, [r0, #0]
    1e16:	3b02      	subs	r3, #2
    1e18:	2b08      	cmp	r3, #8
    1e1a:	d815      	bhi.n	1e48 <APP_ZCL_cbGeneralCallback+0x34>
    1e1c:	e8df f003 	tbb	[pc, r3]
    1e20:	0a081405 	.word	0x0a081405
    1e24:	10160e0c 	.word	0x10160e0c
    1e28:	12          	.byte	0x12
    1e29:	00          	.byte	0x00
    1e2a:	4809      	ldr	r0, [pc, #36]	; (1e50 <APP_ZCL_cbGeneralCallback+0x3c>)
    1e2c:	f001 b832 	b.w	2e94 <DbgConsole_Printf>
    1e30:	4808      	ldr	r0, [pc, #32]	; (1e54 <APP_ZCL_cbGeneralCallback+0x40>)
    1e32:	e7fb      	b.n	1e2c <APP_ZCL_cbGeneralCallback+0x18>
    1e34:	4808      	ldr	r0, [pc, #32]	; (1e58 <APP_ZCL_cbGeneralCallback+0x44>)
    1e36:	e7f9      	b.n	1e2c <APP_ZCL_cbGeneralCallback+0x18>
    1e38:	4808      	ldr	r0, [pc, #32]	; (1e5c <APP_ZCL_cbGeneralCallback+0x48>)
    1e3a:	e7f7      	b.n	1e2c <APP_ZCL_cbGeneralCallback+0x18>
    1e3c:	4808      	ldr	r0, [pc, #32]	; (1e60 <APP_ZCL_cbGeneralCallback+0x4c>)
    1e3e:	e7f5      	b.n	1e2c <APP_ZCL_cbGeneralCallback+0x18>
    1e40:	4808      	ldr	r0, [pc, #32]	; (1e64 <APP_ZCL_cbGeneralCallback+0x50>)
    1e42:	e7f3      	b.n	1e2c <APP_ZCL_cbGeneralCallback+0x18>
    1e44:	4808      	ldr	r0, [pc, #32]	; (1e68 <APP_ZCL_cbGeneralCallback+0x54>)
    1e46:	e7f1      	b.n	1e2c <APP_ZCL_cbGeneralCallback+0x18>
    1e48:	4808      	ldr	r0, [pc, #32]	; (1e6c <APP_ZCL_cbGeneralCallback+0x58>)
    1e4a:	e7ef      	b.n	1e2c <APP_ZCL_cbGeneralCallback+0x18>
    1e4c:	4770      	bx	lr
    1e4e:	bf00      	nop
    1e50:	0002896e 	.word	0x0002896e
    1e54:	0002898c 	.word	0x0002898c
    1e58:	000289b3 	.word	0x000289b3
    1e5c:	000289ce 	.word	0x000289ce
    1e60:	000289ed 	.word	0x000289ed
    1e64:	00028a01 	.word	0x00028a01
    1e68:	00028a16 	.word	0x00028a16
    1e6c:	00028a2e 	.word	0x00028a2e

00001e70 <APP_ZCL_cbEndpointCallback>:
    1e70:	b573      	push	{r0, r1, r4, r5, r6, lr}
    1e72:	4604      	mov	r4, r0
    1e74:	7801      	ldrb	r1, [r0, #0]
    1e76:	4869      	ldr	r0, [pc, #420]	; (201c <APP_ZCL_cbEndpointCallback+0x1ac>)
    1e78:	f001 f80c 	bl	2e94 <DbgConsole_Printf>
    1e7c:	7823      	ldrb	r3, [r4, #0]
    1e7e:	2b0a      	cmp	r3, #10
    1e80:	d80a      	bhi.n	1e98 <APP_ZCL_cbEndpointCallback+0x28>
    1e82:	2b01      	cmp	r3, #1
    1e84:	d90d      	bls.n	1ea2 <APP_ZCL_cbEndpointCallback+0x32>
    1e86:	3b03      	subs	r3, #3
    1e88:	2b07      	cmp	r3, #7
    1e8a:	d863      	bhi.n	1f54 <APP_ZCL_cbEndpointCallback+0xe4>
    1e8c:	e8df f003 	tbb	[pc, r3]
    1e90:	62626266 	.word	0x62626266
    1e94:	6d626262 	.word	0x6d626262
    1e98:	2b15      	cmp	r3, #21
    1e9a:	d004      	beq.n	1ea6 <APP_ZCL_cbEndpointCallback+0x36>
    1e9c:	2b1b      	cmp	r3, #27
    1e9e:	f000 80b7 	beq.w	2010 <APP_ZCL_cbEndpointCallback+0x1a0>
    1ea2:	485f      	ldr	r0, [pc, #380]	; (2020 <APP_ZCL_cbEndpointCallback+0x1b0>)
    1ea4:	e057      	b.n	1f56 <APP_ZCL_cbEndpointCallback+0xe6>
    1ea6:	6ae3      	ldr	r3, [r4, #44]	; 0x2c
    1ea8:	485e      	ldr	r0, [pc, #376]	; (2024 <APP_ZCL_cbEndpointCallback+0x1b4>)
    1eaa:	685b      	ldr	r3, [r3, #4]
    1eac:	8819      	ldrh	r1, [r3, #0]
    1eae:	f000 fff1 	bl	2e94 <DbgConsole_Printf>
    1eb2:	7a61      	ldrb	r1, [r4, #9]
    1eb4:	485c      	ldr	r0, [pc, #368]	; (2028 <APP_ZCL_cbEndpointCallback+0x1b8>)
    1eb6:	f000 ffed 	bl	2e94 <DbgConsole_Printf>
    1eba:	8961      	ldrh	r1, [r4, #10]
    1ebc:	485b      	ldr	r0, [pc, #364]	; (202c <APP_ZCL_cbEndpointCallback+0x1bc>)
    1ebe:	f000 ffe9 	bl	2e94 <DbgConsole_Printf>
    1ec2:	89e1      	ldrh	r1, [r4, #14]
    1ec4:	485a      	ldr	r0, [pc, #360]	; (2030 <APP_ZCL_cbEndpointCallback+0x1c0>)
    1ec6:	f000 ffe5 	bl	2e94 <DbgConsole_Printf>
    1eca:	89a1      	ldrh	r1, [r4, #12]
    1ecc:	4859      	ldr	r0, [pc, #356]	; (2034 <APP_ZCL_cbEndpointCallback+0x1c4>)
    1ece:	f000 ffe1 	bl	2e94 <DbgConsole_Printf>
    1ed2:	8a21      	ldrh	r1, [r4, #16]
    1ed4:	4858      	ldr	r0, [pc, #352]	; (2038 <APP_ZCL_cbEndpointCallback+0x1c8>)
    1ed6:	f000 ffdd 	bl	2e94 <DbgConsole_Printf>
    1eda:	7a21      	ldrb	r1, [r4, #8]
    1edc:	4857      	ldr	r0, [pc, #348]	; (203c <APP_ZCL_cbEndpointCallback+0x1cc>)
    1ede:	f000 ffd9 	bl	2e94 <DbgConsole_Printf>
    1ee2:	7e21      	ldrb	r1, [r4, #24]
    1ee4:	4856      	ldr	r0, [pc, #344]	; (2040 <APP_ZCL_cbEndpointCallback+0x1d0>)
    1ee6:	f000 ffd5 	bl	2e94 <DbgConsole_Printf>
    1eea:	6ae3      	ldr	r3, [r4, #44]	; 0x2c
    1eec:	685b      	ldr	r3, [r3, #4]
    1eee:	881d      	ldrh	r5, [r3, #0]
    1ef0:	f240 7302 	movw	r3, #1794	; 0x702
    1ef4:	429d      	cmp	r5, r3
    1ef6:	f104 0608 	add.w	r6, r4, #8
    1efa:	d112      	bne.n	1f22 <APP_ZCL_cbEndpointCallback+0xb2>
    1efc:	78e1      	ldrb	r1, [r4, #3]
    1efe:	4851      	ldr	r0, [pc, #324]	; (2044 <APP_ZCL_cbEndpointCallback+0x1d4>)
    1f00:	f000 ffc8 	bl	2e94 <DbgConsole_Printf>
    1f04:	4631      	mov	r1, r6
    1f06:	4628      	mov	r0, r5
    1f08:	f7fe fd98 	bl	a3c <vSaveReportableRecord>
    1f0c:	78e3      	ldrb	r3, [r4, #3]
    1f0e:	2b37      	cmp	r3, #55	; 0x37
    1f10:	d105      	bne.n	1f1e <APP_ZCL_cbEndpointCallback+0xae>
    1f12:	f7ff fd45 	bl	19a0 <app_u8GetDeviceEndpoint>
    1f16:	4632      	mov	r2, r6
    1f18:	4629      	mov	r1, r5
    1f1a:	f7fe fddd 	bl	ad8 <vRestoreDefaultRecord>
    1f1e:	b002      	add	sp, #8
    1f20:	bd70      	pop	{r4, r5, r6, pc}
    1f22:	f640 3304 	movw	r3, #2820	; 0xb04
    1f26:	429d      	cmp	r5, r3
    1f28:	d10b      	bne.n	1f42 <APP_ZCL_cbEndpointCallback+0xd2>
    1f2a:	78e1      	ldrb	r1, [r4, #3]
    1f2c:	4845      	ldr	r0, [pc, #276]	; (2044 <APP_ZCL_cbEndpointCallback+0x1d4>)
    1f2e:	f000 ffb1 	bl	2e94 <DbgConsole_Printf>
    1f32:	78e3      	ldrb	r3, [r4, #3]
    1f34:	2b00      	cmp	r3, #0
    1f36:	d1f2      	bne.n	1f1e <APP_ZCL_cbEndpointCallback+0xae>
    1f38:	4631      	mov	r1, r6
    1f3a:	4628      	mov	r0, r5
    1f3c:	f7fe fd7e 	bl	a3c <vSaveReportableRecord>
    1f40:	e7ed      	b.n	1f1e <APP_ZCL_cbEndpointCallback+0xae>
    1f42:	f64f 7366 	movw	r3, #65382	; 0xff66
    1f46:	429d      	cmp	r5, r3
    1f48:	d1e9      	bne.n	1f1e <APP_ZCL_cbEndpointCallback+0xae>
    1f4a:	78e1      	ldrb	r1, [r4, #3]
    1f4c:	483d      	ldr	r0, [pc, #244]	; (2044 <APP_ZCL_cbEndpointCallback+0x1d4>)
    1f4e:	f000 ffa1 	bl	2e94 <DbgConsole_Printf>
    1f52:	e7f1      	b.n	1f38 <APP_ZCL_cbEndpointCallback+0xc8>
    1f54:	483c      	ldr	r0, [pc, #240]	; (2048 <APP_ZCL_cbEndpointCallback+0x1d8>)
    1f56:	f000 ff9d 	bl	2e94 <DbgConsole_Printf>
    1f5a:	e7e0      	b.n	1f1e <APP_ZCL_cbEndpointCallback+0xae>
    1f5c:	68e3      	ldr	r3, [r4, #12]
    1f5e:	7ae1      	ldrb	r1, [r4, #11]
    1f60:	781a      	ldrb	r2, [r3, #0]
    1f62:	483a      	ldr	r0, [pc, #232]	; (204c <APP_ZCL_cbEndpointCallback+0x1dc>)
    1f64:	f000 ff96 	bl	2e94 <DbgConsole_Printf>
    1f68:	e7d9      	b.n	1f1e <APP_ZCL_cbEndpointCallback+0xae>
    1f6a:	8921      	ldrh	r1, [r4, #8]
    1f6c:	4838      	ldr	r0, [pc, #224]	; (2050 <APP_ZCL_cbEndpointCallback+0x1e0>)
    1f6e:	f000 ff91 	bl	2e94 <DbgConsole_Printf>
    1f72:	8921      	ldrh	r1, [r4, #8]
    1f74:	2904      	cmp	r1, #4
    1f76:	d049      	beq.n	200c <APP_ZCL_cbEndpointCallback+0x19c>
    1f78:	d806      	bhi.n	1f88 <APP_ZCL_cbEndpointCallback+0x118>
    1f7a:	b151      	cbz	r1, 1f92 <APP_ZCL_cbEndpointCallback+0x122>
    1f7c:	2903      	cmp	r1, #3
    1f7e:	d01b      	beq.n	1fb8 <APP_ZCL_cbEndpointCallback+0x148>
    1f80:	4834      	ldr	r0, [pc, #208]	; (2054 <APP_ZCL_cbEndpointCallback+0x1e4>)
    1f82:	f000 ff87 	bl	2e94 <DbgConsole_Printf>
    1f86:	e7ca      	b.n	1f1e <APP_ZCL_cbEndpointCallback+0xae>
    1f88:	f5b1 5f80 	cmp.w	r1, #4096	; 0x1000
    1f8c:	d1f8      	bne.n	1f80 <APP_ZCL_cbEndpointCallback+0x110>
    1f8e:	4832      	ldr	r0, [pc, #200]	; (2058 <APP_ZCL_cbEndpointCallback+0x1e8>)
    1f90:	e7e1      	b.n	1f56 <APP_ZCL_cbEndpointCallback+0xe6>
    1f92:	68e3      	ldr	r3, [r4, #12]
    1f94:	781c      	ldrb	r4, [r3, #0]
    1f96:	2c00      	cmp	r4, #0
    1f98:	d1c1      	bne.n	1f1e <APP_ZCL_cbEndpointCallback+0xae>
    1f9a:	4830      	ldr	r0, [pc, #192]	; (205c <APP_ZCL_cbEndpointCallback+0x1ec>)
    1f9c:	f000 ff7a 	bl	2e94 <DbgConsole_Printf>
    1fa0:	f44f 628c 	mov.w	r2, #1120	; 0x460
    1fa4:	4621      	mov	r1, r4
    1fa6:	482e      	ldr	r0, [pc, #184]	; (2060 <APP_ZCL_cbEndpointCallback+0x1f0>)
    1fa8:	f025 f98a 	bl	272c0 <memset>
    1fac:	f7fe fe56 	bl	c5c <vAPP_ZCL_DeviceSpecific_Init>
    1fb0:	482c      	ldr	r0, [pc, #176]	; (2064 <APP_ZCL_cbEndpointCallback+0x1f4>)
    1fb2:	f7fe fe4b 	bl	c4c <eApp_ZCL_RegisterEndpoint>
    1fb6:	e7b2      	b.n	1f1e <APP_ZCL_cbEndpointCallback+0xae>
    1fb8:	482b      	ldr	r0, [pc, #172]	; (2068 <APP_ZCL_cbEndpointCallback+0x1f8>)
    1fba:	f000 ff6b 	bl	2e94 <DbgConsole_Printf>
    1fbe:	68e3      	ldr	r3, [r4, #12]
    1fc0:	781a      	ldrb	r2, [r3, #0]
    1fc2:	b9c2      	cbnz	r2, 1ff6 <APP_ZCL_cbEndpointCallback+0x186>
    1fc4:	4829      	ldr	r0, [pc, #164]	; (206c <APP_ZCL_cbEndpointCallback+0x1fc>)
    1fc6:	f000 ff65 	bl	2e94 <DbgConsole_Printf>
    1fca:	6ae3      	ldr	r3, [r4, #44]	; 0x2c
    1fcc:	781b      	ldrb	r3, [r3, #0]
    1fce:	b953      	cbnz	r3, 1fe6 <APP_ZCL_cbEndpointCallback+0x176>
    1fd0:	4827      	ldr	r0, [pc, #156]	; (2070 <APP_ZCL_cbEndpointCallback+0x200>)
    1fd2:	f000 ff5f 	bl	2e94 <DbgConsole_Printf>
    1fd6:	2308      	movs	r3, #8
    1fd8:	4668      	mov	r0, sp
    1fda:	f88d 3000 	strb.w	r3, [sp]
    1fde:	9401      	str	r4, [sp, #4]
    1fe0:	f00a ff16 	bl	ce10 <BDB_vZclEventHandler>
    1fe4:	e79b      	b.n	1f1e <APP_ZCL_cbEndpointCallback+0xae>
    1fe6:	4b1e      	ldr	r3, [pc, #120]	; (2060 <APP_ZCL_cbEndpointCallback+0x1f0>)
    1fe8:	f8b3 31ac 	ldrh.w	r3, [r3, #428]	; 0x1ac
    1fec:	2b00      	cmp	r3, #0
    1fee:	d196      	bne.n	1f1e <APP_ZCL_cbEndpointCallback+0xae>
    1ff0:	f000 fe6c 	bl	2ccc <vStopBlinkTimer>
    1ff4:	e793      	b.n	1f1e <APP_ZCL_cbEndpointCallback+0xae>
    1ff6:	2a40      	cmp	r2, #64	; 0x40
    1ff8:	d191      	bne.n	1f1e <APP_ZCL_cbEndpointCallback+0xae>
    1ffa:	6ae2      	ldr	r2, [r4, #44]	; 0x2c
    1ffc:	7812      	ldrb	r2, [r2, #0]
    1ffe:	2a00      	cmp	r2, #0
    2000:	d08d      	beq.n	1f1e <APP_ZCL_cbEndpointCallback+0xae>
    2002:	685b      	ldr	r3, [r3, #4]
    2004:	481b      	ldr	r0, [pc, #108]	; (2074 <APP_ZCL_cbEndpointCallback+0x204>)
    2006:	785a      	ldrb	r2, [r3, #1]
    2008:	7819      	ldrb	r1, [r3, #0]
    200a:	e7ab      	b.n	1f64 <APP_ZCL_cbEndpointCallback+0xf4>
    200c:	481a      	ldr	r0, [pc, #104]	; (2078 <APP_ZCL_cbEndpointCallback+0x208>)
    200e:	e7a2      	b.n	1f56 <APP_ZCL_cbEndpointCallback+0xe6>
    2010:	6ae3      	ldr	r3, [r4, #44]	; 0x2c
    2012:	481a      	ldr	r0, [pc, #104]	; (207c <APP_ZCL_cbEndpointCallback+0x20c>)
    2014:	685b      	ldr	r3, [r3, #4]
    2016:	8819      	ldrh	r1, [r3, #0]
    2018:	e7b3      	b.n	1f82 <APP_ZCL_cbEndpointCallback+0x112>
    201a:	bf00      	nop
    201c:	00028a4b 	.word	0x00028a4b
    2020:	00028d1e 	.word	0x00028d1e
    2024:	00028a64 	.word	0x00028a64
    2028:	00028a9f 	.word	0x00028a9f
    202c:	00028ac2 	.word	0x00028ac2
    2030:	00028ae3 	.word	0x00028ae3
    2034:	00028b0f 	.word	0x00028b0f
    2038:	00028b3b 	.word	0x00028b3b
    203c:	00028b61 	.word	0x00028b61
    2040:	00028b87 	.word	0x00028b87
    2044:	00028bb2 	.word	0x00028bb2
    2048:	00028bce 	.word	0x00028bce
    204c:	00028be9 	.word	0x00028be9
    2050:	00028c0b 	.word	0x00028c0b
    2054:	00028ce4 	.word	0x00028ce4
    2058:	00028ccd 	.word	0x00028ccd
    205c:	00028c29 	.word	0x00028c29
    2060:	04013fd8 	.word	0x04013fd8
    2064:	00001e71 	.word	0x00001e71
    2068:	00028c47 	.word	0x00028c47
    206c:	00028c66 	.word	0x00028c66
    2070:	00028c86 	.word	0x00028c86
    2074:	00028c93 	.word	0x00028c93
    2078:	00028cb0 	.word	0x00028cb0
    207c:	00028d05 	.word	0x00028d05

00002080 <APP_ZCL_vInitialise>:
    2080:	490f      	ldr	r1, [pc, #60]	; (20c0 <APP_ZCL_vInitialise+0x40>)
    2082:	4810      	ldr	r0, [pc, #64]	; (20c4 <APP_ZCL_vInitialise+0x44>)
    2084:	b508      	push	{r3, lr}
    2086:	f008 fa3b 	bl	a500 <eZCL_Initialise>
    208a:	4601      	mov	r1, r0
    208c:	b110      	cbz	r0, 2094 <APP_ZCL_vInitialise+0x14>
    208e:	480e      	ldr	r0, [pc, #56]	; (20c8 <APP_ZCL_vInitialise+0x48>)
    2090:	f000 ff00 	bl	2e94 <DbgConsole_Printf>
    2094:	480d      	ldr	r0, [pc, #52]	; (20cc <APP_ZCL_vInitialise+0x4c>)
    2096:	f7fe fdd9 	bl	c4c <eApp_ZCL_RegisterEndpoint>
    209a:	4601      	mov	r1, r0
    209c:	b110      	cbz	r0, 20a4 <APP_ZCL_vInitialise+0x24>
    209e:	480c      	ldr	r0, [pc, #48]	; (20d0 <APP_ZCL_vInitialise+0x50>)
    20a0:	f000 fef8 	bl	2e94 <DbgConsole_Printf>
    20a4:	480b      	ldr	r0, [pc, #44]	; (20d4 <APP_ZCL_vInitialise+0x54>)
    20a6:	f000 fef5 	bl	2e94 <DbgConsole_Printf>
    20aa:	4b0b      	ldr	r3, [pc, #44]	; (20d8 <APP_ZCL_vInitialise+0x58>)
    20ac:	f44f 717a 	mov.w	r1, #1000	; 0x3e8
    20b0:	7818      	ldrb	r0, [r3, #0]
    20b2:	f001 fba1 	bl	37f8 <ZTIMER_eStart>
    20b6:	e8bd 4008 	ldmia.w	sp!, {r3, lr}
    20ba:	f7fe bdcf 	b.w	c5c <vAPP_ZCL_DeviceSpecific_Init>
    20be:	bf00      	nop
    20c0:	040115ac 	.word	0x040115ac
    20c4:	00001e15 	.word	0x00001e15
    20c8:	00028d42 	.word	0x00028d42
    20cc:	00001e71 	.word	0x00001e71
    20d0:	00028d6e 	.word	0x00028d6e
    20d4:	00028d9c 	.word	0x00028d9c
    20d8:	0401215b 	.word	0x0401215b

000020dc <APP_ZCL_vEventHandler>:
    20dc:	b500      	push	{lr}
    20de:	b08d      	sub	sp, #52	; 0x34
    20e0:	2309      	movs	r3, #9
    20e2:	900a      	str	r0, [sp, #40]	; 0x28
    20e4:	4668      	mov	r0, sp
    20e6:	f88d 3000 	strb.w	r3, [sp]
    20ea:	f008 fd8f 	bl	ac0c <vZCL_EventHandler>
    20ee:	b00d      	add	sp, #52	; 0x34
    20f0:	f85d fb04 	ldr.w	pc, [sp], #4

000020f4 <vAPP_ZCL_Tick>:
    20f4:	b500      	push	{lr}
    20f6:	b09b      	sub	sp, #108	; 0x6c
    20f8:	ab0c      	add	r3, sp, #48	; 0x30
    20fa:	930a      	str	r3, [sp, #40]	; 0x28
    20fc:	f000 fdaa 	bl	2c54 <vDecrementTickCount>
    2100:	2308      	movs	r3, #8
    2102:	4668      	mov	r0, sp
    2104:	f88d 3000 	strb.w	r3, [sp]
    2108:	f008 fd80 	bl	ac0c <vZCL_EventHandler>
    210c:	b01b      	add	sp, #108	; 0x6c
    210e:	f85d fb04 	ldr.w	pc, [sp], #4
    2112:	Address 0x00002112 is out of bounds.


00002114 <APP_cbTimerZclTick>:
    2114:	b508      	push	{r3, lr}
    2116:	f7ff ffed 	bl	20f4 <vAPP_ZCL_Tick>
    211a:	4b0a      	ldr	r3, [pc, #40]	; (2144 <APP_cbTimerZclTick+0x30>)
    211c:	f44f 717a 	mov.w	r1, #1000	; 0x3e8
    2120:	7818      	ldrb	r0, [r3, #0]
    2122:	f001 fb69 	bl	37f8 <ZTIMER_eStart>
    2126:	4a08      	ldr	r2, [pc, #32]	; (2148 <APP_cbTimerZclTick+0x34>)
    2128:	4908      	ldr	r1, [pc, #32]	; (214c <APP_cbTimerZclTick+0x38>)
    212a:	6813      	ldr	r3, [r2, #0]
    212c:	3364      	adds	r3, #100	; 0x64
    212e:	428b      	cmp	r3, r1
    2130:	d801      	bhi.n	2136 <APP_cbTimerZclTick+0x22>
    2132:	6013      	str	r3, [r2, #0]
    2134:	bd08      	pop	{r3, pc}
    2136:	2000      	movs	r0, #0
    2138:	e8bd 4008 	ldmia.w	sp!, {r3, lr}
    213c:	6010      	str	r0, [r2, #0]
    213e:	f7fe ba57 	b.w	5f0 <APP_vRadioTempUpdate>
    2142:	bf00      	nop
    2144:	0401215b 	.word	0x0401215b
    2148:	04014440 	.word	0x04014440
    214c:	000493df 	.word	0x000493df

00002150 <gint_callback>:
    2150:	4b0b      	ldr	r3, [pc, #44]	; (2180 <gint_callback+0x30>)
    2152:	480c      	ldr	r0, [pc, #48]	; (2184 <gint_callback+0x34>)
    2154:	b510      	push	{r4, lr}
    2156:	681c      	ldr	r4, [r3, #0]
    2158:	f004 0401 	and.w	r4, r4, #1
    215c:	4621      	mov	r1, r4
    215e:	f000 fe99 	bl	2e94 <DbgConsole_Printf>
    2162:	b964      	cbnz	r4, 217e <gint_callback+0x2e>
    2164:	4c08      	ldr	r4, [pc, #32]	; (2188 <gint_callback+0x38>)
    2166:	4809      	ldr	r0, [pc, #36]	; (218c <gint_callback+0x3c>)
    2168:	f000 ff1e 	bl	2fa8 <GINT_DisableCallback>
    216c:	7820      	ldrb	r0, [r4, #0]
    216e:	f001 fb6d 	bl	384c <ZTIMER_eStop>
    2172:	7820      	ldrb	r0, [r4, #0]
    2174:	210a      	movs	r1, #10
    2176:	e8bd 4010 	ldmia.w	sp!, {r4, lr}
    217a:	f001 bb3d 	b.w	37f8 <ZTIMER_eStart>
    217e:	bd10      	pop	{r4, pc}
    2180:	40082100 	.word	0x40082100
    2184:	00028db2 	.word	0x00028db2
    2188:	04012156 	.word	0x04012156
    218c:	40011000 	.word	0x40011000

00002190 <APP_u32GetSwitchIOState>:
    2190:	4b02      	ldr	r3, [pc, #8]	; (219c <APP_u32GetSwitchIOState+0xc>)
    2192:	6818      	ldr	r0, [r3, #0]
    2194:	f000 0001 	and.w	r0, r0, #1
    2198:	4770      	bx	lr
    219a:	bf00      	nop
    219c:	40082100 	.word	0x40082100

000021a0 <APP_cbTimerButtonScan>:
    21a0:	b57f      	push	{r0, r1, r2, r3, r4, r5, r6, lr}
    21a2:	4b32      	ldr	r3, [pc, #200]	; (226c <APP_cbTimerButtonScan+0xcc>)
    21a4:	4a32      	ldr	r2, [pc, #200]	; (2270 <APP_cbTimerButtonScan+0xd0>)
    21a6:	681b      	ldr	r3, [r3, #0]
    21a8:	7811      	ldrb	r1, [r2, #0]
    21aa:	4c32      	ldr	r4, [pc, #200]	; (2274 <APP_cbTimerButtonScan+0xd4>)
    21ac:	f003 0301 	and.w	r3, r3, #1
    21b0:	ea43 0341 	orr.w	r3, r3, r1, lsl #1
    21b4:	b2db      	uxtb	r3, r3
    21b6:	7013      	strb	r3, [r2, #0]
    21b8:	bb1b      	cbnz	r3, 2202 <APP_cbTimerButtonScan+0x62>
    21ba:	4b2f      	ldr	r3, [pc, #188]	; (2278 <APP_cbTimerButtonScan+0xd8>)
    21bc:	781d      	ldrb	r5, [r3, #0]
    21be:	b9c5      	cbnz	r5, 21f2 <APP_cbTimerButtonScan+0x52>
    21c0:	2201      	movs	r2, #1
    21c2:	701a      	strb	r2, [r3, #0]
    21c4:	2302      	movs	r3, #2
    21c6:	f88d 3004 	strb.w	r3, [sp, #4]
    21ca:	f88d 5008 	strb.w	r5, [sp, #8]
    21ce:	f006 f9f7 	bl	85c0 <OSA_TimeGetMsec>
    21d2:	4b2a      	ldr	r3, [pc, #168]	; (227c <APP_cbTimerButtonScan+0xdc>)
    21d4:	4629      	mov	r1, r5
    21d6:	6018      	str	r0, [r3, #0]
    21d8:	4829      	ldr	r0, [pc, #164]	; (2280 <APP_cbTimerButtonScan+0xe0>)
    21da:	f000 fe5b 	bl	2e94 <DbgConsole_Printf>
    21de:	4829      	ldr	r0, [pc, #164]	; (2284 <APP_cbTimerButtonScan+0xe4>)
    21e0:	a901      	add	r1, sp, #4
    21e2:	f001 fa3c 	bl	365e <ZQ_bQueueSend>
    21e6:	b920      	cbnz	r0, 21f2 <APP_cbTimerButtonScan+0x52>
    21e8:	f89d 1004 	ldrb.w	r1, [sp, #4]
    21ec:	4826      	ldr	r0, [pc, #152]	; (2288 <APP_cbTimerButtonScan+0xe8>)
    21ee:	f000 fe51 	bl	2e94 <DbgConsole_Printf>
    21f2:	7820      	ldrb	r0, [r4, #0]
    21f4:	f001 fb2a 	bl	384c <ZTIMER_eStop>
    21f8:	7820      	ldrb	r0, [r4, #0]
    21fa:	210a      	movs	r1, #10
    21fc:	f001 fafc 	bl	37f8 <ZTIMER_eStart>
    2200:	e032      	b.n	2268 <APP_cbTimerButtonScan+0xc8>
    2202:	2bff      	cmp	r3, #255	; 0xff
    2204:	d1f5      	bne.n	21f2 <APP_cbTimerButtonScan+0x52>
    2206:	4b1c      	ldr	r3, [pc, #112]	; (2278 <APP_cbTimerButtonScan+0xd8>)
    2208:	781a      	ldrb	r2, [r3, #0]
    220a:	b31a      	cbz	r2, 2254 <APP_cbTimerButtonScan+0xb4>
    220c:	4e1b      	ldr	r6, [pc, #108]	; (227c <APP_cbTimerButtonScan+0xdc>)
    220e:	2500      	movs	r5, #0
    2210:	701d      	strb	r5, [r3, #0]
    2212:	f006 f9d5 	bl	85c0 <OSA_TimeGetMsec>
    2216:	6831      	ldr	r1, [r6, #0]
    2218:	1a41      	subs	r1, r0, r1
    221a:	481c      	ldr	r0, [pc, #112]	; (228c <APP_cbTimerButtonScan+0xec>)
    221c:	6031      	str	r1, [r6, #0]
    221e:	f000 fe39 	bl	2e94 <DbgConsole_Printf>
    2222:	6832      	ldr	r2, [r6, #0]
    2224:	481a      	ldr	r0, [pc, #104]	; (2290 <APP_cbTimerButtonScan+0xf0>)
    2226:	f88d 5008 	strb.w	r5, [sp, #8]
    222a:	f241 3387 	movw	r3, #4999	; 0x1387
    222e:	429a      	cmp	r2, r3
    2230:	bf94      	ite	ls
    2232:	2201      	movls	r2, #1
    2234:	220b      	movhi	r2, #11
    2236:	4629      	mov	r1, r5
    2238:	f88d 2004 	strb.w	r2, [sp, #4]
    223c:	f000 fe2a 	bl	2e94 <DbgConsole_Printf>
    2240:	4810      	ldr	r0, [pc, #64]	; (2284 <APP_cbTimerButtonScan+0xe4>)
    2242:	a901      	add	r1, sp, #4
    2244:	f001 fa0b 	bl	365e <ZQ_bQueueSend>
    2248:	b920      	cbnz	r0, 2254 <APP_cbTimerButtonScan+0xb4>
    224a:	f89d 1004 	ldrb.w	r1, [sp, #4]
    224e:	480e      	ldr	r0, [pc, #56]	; (2288 <APP_cbTimerButtonScan+0xe8>)
    2250:	f000 fe20 	bl	2e94 <DbgConsole_Printf>
    2254:	2101      	movs	r1, #1
    2256:	480f      	ldr	r0, [pc, #60]	; (2294 <APP_cbTimerButtonScan+0xf4>)
    2258:	f000 fe1c 	bl	2e94 <DbgConsole_Printf>
    225c:	480e      	ldr	r0, [pc, #56]	; (2298 <APP_cbTimerButtonScan+0xf8>)
    225e:	f000 fe93 	bl	2f88 <GINT_EnableCallback>
    2262:	7820      	ldrb	r0, [r4, #0]
    2264:	f001 faf2 	bl	384c <ZTIMER_eStop>
    2268:	b004      	add	sp, #16
    226a:	bd70      	pop	{r4, r5, r6, pc}
    226c:	40082100 	.word	0x40082100
    2270:	04011948 	.word	0x04011948
    2274:	04012156 	.word	0x04012156
    2278:	04014444 	.word	0x04014444
    227c:	04014448 	.word	0x04014448
    2280:	00028dd9 	.word	0x00028dd9
    2284:	04011f54 	.word	0x04011f54
    2288:	00028de8 	.word	0x00028de8
    228c:	00028e0b 	.word	0x00028e0b
    2290:	00028e47 	.word	0x00028e47
    2294:	00028e60 	.word	0x00028e60
    2298:	40011000 	.word	0x40011000

0000229c <APP_bButtonInitialise>:
    229c:	b573      	push	{r0, r1, r4, r5, r6, lr}
    229e:	4b15      	ldr	r3, [pc, #84]	; (22f4 <APP_bButtonInitialise+0x58>)
    22a0:	4d15      	ldr	r5, [pc, #84]	; (22f8 <APP_bButtonInitialise+0x5c>)
    22a2:	4e16      	ldr	r6, [pc, #88]	; (22fc <APP_bButtonInitialise+0x60>)
    22a4:	2400      	movs	r4, #0
    22a6:	2280      	movs	r2, #128	; 0x80
    22a8:	4621      	mov	r1, r4
    22aa:	f8ad 4004 	strh.w	r4, [sp, #4]
    22ae:	4628      	mov	r0, r5
    22b0:	601a      	str	r2, [r3, #0]
    22b2:	ab01      	add	r3, sp, #4
    22b4:	4622      	mov	r2, r4
    22b6:	f000 fe0d 	bl	2ed4 <GPIO_PinInit>
    22ba:	4630      	mov	r0, r6
    22bc:	f000 fe36 	bl	2f2c <GINT_Init>
    22c0:	4622      	mov	r2, r4
    22c2:	4621      	mov	r1, r4
    22c4:	4630      	mov	r0, r6
    22c6:	4b0e      	ldr	r3, [pc, #56]	; (2300 <APP_bButtonInitialise+0x64>)
    22c8:	f000 fe42 	bl	2f50 <GINT_SetCtrl>
    22cc:	2301      	movs	r3, #1
    22ce:	4622      	mov	r2, r4
    22d0:	4621      	mov	r1, r4
    22d2:	4630      	mov	r0, r6
    22d4:	f000 fe52 	bl	2f7c <GINT_ConfigPins>
    22d8:	f505 5504 	add.w	r5, r5, #8448	; 0x2100
    22dc:	4630      	mov	r0, r6
    22de:	f000 fe53 	bl	2f88 <GINT_EnableCallback>
    22e2:	4620      	mov	r0, r4
    22e4:	f7ff ff5c 	bl	21a0 <APP_cbTimerButtonScan>
    22e8:	6828      	ldr	r0, [r5, #0]
    22ea:	43c0      	mvns	r0, r0
    22ec:	f000 0001 	and.w	r0, r0, #1
    22f0:	b002      	add	sp, #8
    22f2:	bd70      	pop	{r4, r5, r6, pc}
    22f4:	4000f000 	.word	0x4000f000
    22f8:	40080000 	.word	0x40080000
    22fc:	40011000 	.word	0x40011000
    2300:	00002151 	.word	0x00002151

00002304 <vAppHandleRunning>:
    2304:	b510      	push	{r4, lr}
    2306:	4604      	mov	r4, r0
    2308:	7801      	ldrb	r1, [r0, #0]
    230a:	4811      	ldr	r0, [pc, #68]	; (2350 <vAppHandleRunning+0x4c>)
    230c:	f000 fdc2 	bl	2e94 <DbgConsole_Printf>
    2310:	7823      	ldrb	r3, [r4, #0]
    2312:	3b06      	subs	r3, #6
    2314:	2b09      	cmp	r3, #9
    2316:	d819      	bhi.n	234c <vAppHandleRunning+0x48>
    2318:	e8df f003 	tbb	[pc, r3]
    231c:	18181805 	.word	0x18181805
    2320:	18130918 	.word	0x18130918
    2324:	0e18      	.short	0x0e18
    2326:	e8bd 4010 	ldmia.w	sp!, {r4, lr}
    232a:	f000 bafb 	b.w	2924 <vHandleNetworkJoinEndDevice>
    232e:	4620      	mov	r0, r4
    2330:	e8bd 4010 	ldmia.w	sp!, {r4, lr}
    2334:	f000 bb07 	b.w	2946 <vHandleNetworkLeave>
    2338:	4620      	mov	r0, r4
    233a:	e8bd 4010 	ldmia.w	sp!, {r4, lr}
    233e:	f000 bac1 	b.w	28c4 <vHandlePollResponse>
    2342:	4620      	mov	r0, r4
    2344:	e8bd 4010 	ldmia.w	sp!, {r4, lr}
    2348:	f000 bb22 	b.w	2990 <vHandleNetworkLeaveConfirm>
    234c:	bd10      	pop	{r4, pc}
    234e:	bf00      	nop
    2350:	00028e69 	.word	0x00028e69

00002354 <vAppHandleStartup>:
    2354:	b508      	push	{r3, lr}
    2356:	4804      	ldr	r0, [pc, #16]	; (2368 <vAppHandleStartup+0x14>)
    2358:	f000 fd9c 	bl	2e94 <DbgConsole_Printf>
    235c:	f00a fef4 	bl	d148 <BDB_eNsStartNwkSteering>
    2360:	4b02      	ldr	r3, [pc, #8]	; (236c <vAppHandleStartup+0x18>)
    2362:	2201      	movs	r2, #1
    2364:	701a      	strb	r2, [r3, #0]
    2366:	bd08      	pop	{r3, pc}
    2368:	00028e92 	.word	0x00028e92
    236c:	0401443d 	.word	0x0401443d

00002370 <vStartJoinIdle>:
    2370:	4b03      	ldr	r3, [pc, #12]	; (2380 <vStartJoinIdle+0x10>)
    2372:	f44f 717a 	mov.w	r1, #1000	; 0x3e8
    2376:	4341      	muls	r1, r0
    2378:	7818      	ldrb	r0, [r3, #0]
    237a:	f001 ba3d 	b.w	37f8 <ZTIMER_eStart>
    237e:	bf00      	nop
    2380:	04012157 	.word	0x04012157

00002384 <vAPP_cbTimerJoinIdle>:
    2384:	b508      	push	{r3, lr}
    2386:	4b05      	ldr	r3, [pc, #20]	; (239c <vAPP_cbTimerJoinIdle+0x18>)
    2388:	7818      	ldrb	r0, [r3, #0]
    238a:	f001 fa5f 	bl	384c <ZTIMER_eStop>
    238e:	4804      	ldr	r0, [pc, #16]	; (23a0 <vAPP_cbTimerJoinIdle+0x1c>)
    2390:	f000 fd80 	bl	2e94 <DbgConsole_Printf>
    2394:	e8bd 4008 	ldmia.w	sp!, {r3, lr}
    2398:	f000 ba5a 	b.w	2850 <ForceNoSleep>
    239c:	04012159 	.word	0x04012159
    23a0:	00028eaf 	.word	0x00028eaf

000023a4 <BOARD_GetClock32MCapacitanceCharacteristics>:
    23a4:	4800      	ldr	r0, [pc, #0]	; (23a8 <BOARD_GetClock32MCapacitanceCharacteristics+0x4>)
    23a6:	4770      	bx	lr
    23a8:	00028ec0 	.word	0x00028ec0

000023ac <UARTLINKY_vInit>:
    23ac:	b51f      	push	{r0, r1, r2, r3, r4, lr}
    23ae:	4668      	mov	r0, sp
    23b0:	f002 faa0 	bl	48f4 <USART_GetDefaultConfig>
    23b4:	f44f 5316 	mov.w	r3, #9600	; 0x2580
    23b8:	9300      	str	r3, [sp, #0]
    23ba:	2301      	movs	r3, #1
    23bc:	f8ad 3008 	strh.w	r3, [sp, #8]
    23c0:	2300      	movs	r3, #0
    23c2:	f88d 3006 	strb.w	r3, [sp, #6]
    23c6:	480a      	ldr	r0, [pc, #40]	; (23f0 <UARTLINKY_vInit+0x44>)
    23c8:	4c0a      	ldr	r4, [pc, #40]	; (23f4 <UARTLINKY_vInit+0x48>)
    23ca:	2302      	movs	r3, #2
    23cc:	f88d 3004 	strb.w	r3, [sp, #4]
    23d0:	f001 ff72 	bl	42b8 <CLOCK_GetFreq>
    23d4:	4669      	mov	r1, sp
    23d6:	4602      	mov	r2, r0
    23d8:	4620      	mov	r0, r4
    23da:	f002 fafb 	bl	49d4 <USART_Init>
    23de:	230a      	movs	r3, #10
    23e0:	f8c4 3e10 	str.w	r3, [r4, #3600]	; 0xe10
    23e4:	4b04      	ldr	r3, [pc, #16]	; (23f8 <UARTLINKY_vInit+0x4c>)
    23e6:	f44f 5280 	mov.w	r2, #4096	; 0x1000
    23ea:	601a      	str	r2, [r3, #0]
    23ec:	b004      	add	sp, #16
    23ee:	bd10      	pop	{r4, pc}
    23f0:	00010008 	.word	0x00010008
    23f4:	4008c000 	.word	0x4008c000
    23f8:	e000e100 	.word	0xe000e100

000023fc <UARTLINKY_vDeInit>:
    23fc:	b510      	push	{r4, lr}
    23fe:	4c04      	ldr	r4, [pc, #16]	; (2410 <UARTLINKY_vDeInit+0x14>)
    2400:	4620      	mov	r0, r4
    2402:	f002 fa57 	bl	48b4 <USART_Deinit>
    2406:	230a      	movs	r3, #10
    2408:	f8c4 3e14 	str.w	r3, [r4, #3604]	; 0xe14
    240c:	bd10      	pop	{r4, pc}
    240e:	bf00      	nop
    2410:	4008c000 	.word	0x4008c000

00002414 <UARTLINKY_vSetBaudRate>:
    2414:	b510      	push	{r4, lr}
    2416:	4604      	mov	r4, r0
    2418:	4807      	ldr	r0, [pc, #28]	; (2438 <UARTLINKY_vSetBaudRate+0x24>)
    241a:	f001 ff4d 	bl	42b8 <CLOCK_GetFreq>
    241e:	4621      	mov	r1, r4
    2420:	4602      	mov	r2, r0
    2422:	4806      	ldr	r0, [pc, #24]	; (243c <UARTLINKY_vSetBaudRate+0x28>)
    2424:	f002 fa84 	bl	4930 <USART_SetBaudRate>
    2428:	b120      	cbz	r0, 2434 <UARTLINKY_vSetBaudRate+0x20>
    242a:	e8bd 4010 	ldmia.w	sp!, {r4, lr}
    242e:	4804      	ldr	r0, [pc, #16]	; (2440 <UARTLINKY_vSetBaudRate+0x2c>)
    2430:	f000 bd30 	b.w	2e94 <DbgConsole_Printf>
    2434:	bd10      	pop	{r4, pc}
    2436:	bf00      	nop
    2438:	00010008 	.word	0x00010008
    243c:	4008c000 	.word	0x4008c000
    2440:	00028ecc 	.word	0x00028ecc

00002444 <FLEXCOMM1_IRQHandler>:
    2444:	4b0a      	ldr	r3, [pc, #40]	; (2470 <FLEXCOMM1_IRQHandler+0x2c>)
    2446:	b507      	push	{r0, r1, r2, lr}
    2448:	f8d3 2e04 	ldr.w	r2, [r3, #3588]	; 0xe04
    244c:	f012 0f42 	tst.w	r2, #66	; 0x42
    2450:	d00b      	beq.n	246a <FLEXCOMM1_IRQHandler+0x26>
    2452:	2202      	movs	r2, #2
    2454:	f8c3 2e04 	str.w	r2, [r3, #3588]	; 0xe04
    2458:	f8d3 3e30 	ldr.w	r3, [r3, #3632]	; 0xe30
    245c:	4805      	ldr	r0, [pc, #20]	; (2474 <FLEXCOMM1_IRQHandler+0x30>)
    245e:	f88d 3007 	strb.w	r3, [sp, #7]
    2462:	f10d 0107 	add.w	r1, sp, #7
    2466:	f001 f8fa 	bl	365e <ZQ_bQueueSend>
    246a:	b003      	add	sp, #12
    246c:	f85d fb04 	ldr.w	pc, [sp], #4
    2470:	4008c000 	.word	0x4008c000
    2474:	04011f74 	.word	0x04011f74

00002478 <bSL_ReadMessageStandard>:
    2478:	e92d 41f0 	stmdb	sp!, {r4, r5, r6, r7, r8, lr}
    247c:	f89d 0018 	ldrb.w	r0, [sp, #24]
    2480:	4e55      	ldr	r6, [pc, #340]	; (25d8 <bSL_ReadMessageStandard+0x160>)
    2482:	280a      	cmp	r0, #10
    2484:	4688      	mov	r8, r1
    2486:	4617      	mov	r7, r2
    2488:	461d      	mov	r5, r3
    248a:	d014      	beq.n	24b6 <bSL_ReadMessageStandard+0x3e>
    248c:	280d      	cmp	r0, #13
    248e:	d02f      	beq.n	24f0 <bSL_ReadMessageStandard+0x78>
    2490:	2809      	cmp	r0, #9
    2492:	d163      	bne.n	255c <bSL_ReadMessageStandard+0xe4>
    2494:	7834      	ldrb	r4, [r6, #0]
    2496:	b344      	cbz	r4, 24ea <bSL_ReadMessageStandard+0x72>
    2498:	4a50      	ldr	r2, [pc, #320]	; (25dc <bSL_ReadMessageStandard+0x164>)
    249a:	7813      	ldrb	r3, [r2, #0]
    249c:	3301      	adds	r3, #1
    249e:	7013      	strb	r3, [r2, #0]
    24a0:	4a4f      	ldr	r2, [pc, #316]	; (25e0 <bSL_ReadMessageStandard+0x168>)
    24a2:	4b50      	ldr	r3, [pc, #320]	; (25e4 <bSL_ReadMessageStandard+0x16c>)
    24a4:	2400      	movs	r4, #0
    24a6:	801c      	strh	r4, [r3, #0]
    24a8:	7813      	ldrb	r3, [r2, #0]
    24aa:	3309      	adds	r3, #9
    24ac:	b2db      	uxtb	r3, r3
    24ae:	7013      	strb	r3, [r2, #0]
    24b0:	4a4d      	ldr	r2, [pc, #308]	; (25e8 <bSL_ReadMessageStandard+0x170>)
    24b2:	7013      	strb	r3, [r2, #0]
    24b4:	e019      	b.n	24ea <bSL_ReadMessageStandard+0x72>
    24b6:	4b4c      	ldr	r3, [pc, #304]	; (25e8 <bSL_ReadMessageStandard+0x170>)
    24b8:	2400      	movs	r4, #0
    24ba:	701c      	strb	r4, [r3, #0]
    24bc:	4b48      	ldr	r3, [pc, #288]	; (25e0 <bSL_ReadMessageStandard+0x168>)
    24be:	4622      	mov	r2, r4
    24c0:	4621      	mov	r1, r4
    24c2:	4640      	mov	r0, r8
    24c4:	701c      	strb	r4, [r3, #0]
    24c6:	f024 fefb 	bl	272c0 <memset>
    24ca:	4622      	mov	r2, r4
    24cc:	4621      	mov	r1, r4
    24ce:	4638      	mov	r0, r7
    24d0:	f024 fef6 	bl	272c0 <memset>
    24d4:	4622      	mov	r2, r4
    24d6:	4621      	mov	r1, r4
    24d8:	4628      	mov	r0, r5
    24da:	f024 fef1 	bl	272c0 <memset>
    24de:	2301      	movs	r3, #1
    24e0:	7033      	strb	r3, [r6, #0]
    24e2:	4b3e      	ldr	r3, [pc, #248]	; (25dc <bSL_ReadMessageStandard+0x164>)
    24e4:	701c      	strb	r4, [r3, #0]
    24e6:	4b3f      	ldr	r3, [pc, #252]	; (25e4 <bSL_ReadMessageStandard+0x16c>)
    24e8:	801c      	strh	r4, [r3, #0]
    24ea:	4620      	mov	r0, r4
    24ec:	e8bd 81f0 	ldmia.w	sp!, {r4, r5, r6, r7, r8, pc}
    24f0:	7834      	ldrb	r4, [r6, #0]
    24f2:	2c00      	cmp	r4, #0
    24f4:	d0f9      	beq.n	24ea <bSL_ReadMessageStandard+0x72>
    24f6:	4839      	ldr	r0, [pc, #228]	; (25dc <bSL_ReadMessageStandard+0x164>)
    24f8:	7800      	ldrb	r0, [r0, #0]
    24fa:	2802      	cmp	r0, #2
    24fc:	d11a      	bne.n	2534 <bSL_ReadMessageStandard+0xbc>
    24fe:	4b3a      	ldr	r3, [pc, #232]	; (25e8 <bSL_ReadMessageStandard+0x170>)
    2500:	781a      	ldrb	r2, [r3, #0]
    2502:	f002 023f 	and.w	r2, r2, #63	; 0x3f
    2506:	3220      	adds	r2, #32
    2508:	701a      	strb	r2, [r3, #0]
    250a:	4b38      	ldr	r3, [pc, #224]	; (25ec <bSL_ReadMessageStandard+0x174>)
    250c:	781b      	ldrb	r3, [r3, #0]
    250e:	429a      	cmp	r2, r3
    2510:	d10a      	bne.n	2528 <bSL_ReadMessageStandard+0xb0>
    2512:	4639      	mov	r1, r7
    2514:	2280      	movs	r2, #128	; 0x80
    2516:	4628      	mov	r0, r5
    2518:	f024 fe38 	bl	2718c <memcpy>
    251c:	462a      	mov	r2, r5
    251e:	4641      	mov	r1, r8
    2520:	4833      	ldr	r0, [pc, #204]	; (25f0 <bSL_ReadMessageStandard+0x178>)
    2522:	f000 fcb7 	bl	2e94 <DbgConsole_Printf>
    2526:	e7e0      	b.n	24ea <bSL_ReadMessageStandard+0x72>
    2528:	4832      	ldr	r0, [pc, #200]	; (25f4 <bSL_ReadMessageStandard+0x17c>)
    252a:	2400      	movs	r4, #0
    252c:	f000 fcb2 	bl	2e94 <DbgConsole_Printf>
    2530:	7034      	strb	r4, [r6, #0]
    2532:	e7da      	b.n	24ea <bSL_ReadMessageStandard+0x72>
    2534:	2803      	cmp	r0, #3
    2536:	d14c      	bne.n	25d2 <bSL_ReadMessageStandard+0x15a>
    2538:	4d29      	ldr	r5, [pc, #164]	; (25e0 <bSL_ReadMessageStandard+0x168>)
    253a:	7828      	ldrb	r0, [r5, #0]
    253c:	f000 003f 	and.w	r0, r0, #63	; 0x3f
    2540:	3020      	adds	r0, #32
    2542:	7028      	strb	r0, [r5, #0]
    2544:	4d29      	ldr	r5, [pc, #164]	; (25ec <bSL_ReadMessageStandard+0x174>)
    2546:	782d      	ldrb	r5, [r5, #0]
    2548:	42a8      	cmp	r0, r5
    254a:	d103      	bne.n	2554 <bSL_ReadMessageStandard+0xdc>
    254c:	482a      	ldr	r0, [pc, #168]	; (25f8 <bSL_ReadMessageStandard+0x180>)
    254e:	f000 fca1 	bl	2e94 <DbgConsole_Printf>
    2552:	e7ca      	b.n	24ea <bSL_ReadMessageStandard+0x72>
    2554:	4602      	mov	r2, r0
    2556:	462b      	mov	r3, r5
    2558:	4828      	ldr	r0, [pc, #160]	; (25fc <bSL_ReadMessageStandard+0x184>)
    255a:	e7e6      	b.n	252a <bSL_ReadMessageStandard+0xb2>
    255c:	7834      	ldrb	r4, [r6, #0]
    255e:	2c00      	cmp	r4, #0
    2560:	d0c3      	beq.n	24ea <bSL_ReadMessageStandard+0x72>
    2562:	4b1e      	ldr	r3, [pc, #120]	; (25dc <bSL_ReadMessageStandard+0x164>)
    2564:	781c      	ldrb	r4, [r3, #0]
    2566:	b984      	cbnz	r4, 258a <bSL_ReadMessageStandard+0x112>
    2568:	491e      	ldr	r1, [pc, #120]	; (25e4 <bSL_ReadMessageStandard+0x16c>)
    256a:	880b      	ldrh	r3, [r1, #0]
    256c:	1c5a      	adds	r2, r3, #1
    256e:	b292      	uxth	r2, r2
    2570:	800a      	strh	r2, [r1, #0]
    2572:	491b      	ldr	r1, [pc, #108]	; (25e0 <bSL_ReadMessageStandard+0x168>)
    2574:	f808 0003 	strb.w	r0, [r8, r3]
    2578:	780b      	ldrb	r3, [r1, #0]
    257a:	f808 4002 	strb.w	r4, [r8, r2]
    257e:	4418      	add	r0, r3
    2580:	4b19      	ldr	r3, [pc, #100]	; (25e8 <bSL_ReadMessageStandard+0x170>)
    2582:	b2c0      	uxtb	r0, r0
    2584:	7008      	strb	r0, [r1, #0]
    2586:	7018      	strb	r0, [r3, #0]
    2588:	e7af      	b.n	24ea <bSL_ReadMessageStandard+0x72>
    258a:	2c01      	cmp	r4, #1
    258c:	d10f      	bne.n	25ae <bSL_ReadMessageStandard+0x136>
    258e:	4a15      	ldr	r2, [pc, #84]	; (25e4 <bSL_ReadMessageStandard+0x16c>)
    2590:	8813      	ldrh	r3, [r2, #0]
    2592:	1c5d      	adds	r5, r3, #1
    2594:	b2ad      	uxth	r5, r5
    2596:	8015      	strh	r5, [r2, #0]
    2598:	4a11      	ldr	r2, [pc, #68]	; (25e0 <bSL_ReadMessageStandard+0x168>)
    259a:	54f8      	strb	r0, [r7, r3]
    259c:	7813      	ldrb	r3, [r2, #0]
    259e:	4418      	add	r0, r3
    25a0:	4b11      	ldr	r3, [pc, #68]	; (25e8 <bSL_ReadMessageStandard+0x170>)
    25a2:	b2c0      	uxtb	r0, r0
    25a4:	2400      	movs	r4, #0
    25a6:	557c      	strb	r4, [r7, r5]
    25a8:	7010      	strb	r0, [r2, #0]
    25aa:	7018      	strb	r0, [r3, #0]
    25ac:	e79d      	b.n	24ea <bSL_ReadMessageStandard+0x72>
    25ae:	2c02      	cmp	r4, #2
    25b0:	4e0e      	ldr	r6, [pc, #56]	; (25ec <bSL_ReadMessageStandard+0x174>)
    25b2:	d10d      	bne.n	25d0 <bSL_ReadMessageStandard+0x158>
    25b4:	490b      	ldr	r1, [pc, #44]	; (25e4 <bSL_ReadMessageStandard+0x16c>)
    25b6:	7030      	strb	r0, [r6, #0]
    25b8:	880a      	ldrh	r2, [r1, #0]
    25ba:	1c53      	adds	r3, r2, #1
    25bc:	b29b      	uxth	r3, r3
    25be:	800b      	strh	r3, [r1, #0]
    25c0:	4907      	ldr	r1, [pc, #28]	; (25e0 <bSL_ReadMessageStandard+0x168>)
    25c2:	54a8      	strb	r0, [r5, r2]
    25c4:	780a      	ldrb	r2, [r1, #0]
    25c6:	2400      	movs	r4, #0
    25c8:	4402      	add	r2, r0
    25ca:	54ec      	strb	r4, [r5, r3]
    25cc:	700a      	strb	r2, [r1, #0]
    25ce:	e78c      	b.n	24ea <bSL_ReadMessageStandard+0x72>
    25d0:	7030      	strb	r0, [r6, #0]
    25d2:	2400      	movs	r4, #0
    25d4:	e789      	b.n	24ea <bSL_ReadMessageStandard+0x72>
    25d6:	bf00      	nop
    25d8:	04014452 	.word	0x04014452
    25dc:	04014450 	.word	0x04014450
    25e0:	04014458 	.word	0x04014458
    25e4:	0401444c 	.word	0x0401444c
    25e8:	04014456 	.word	0x04014456
    25ec:	04014454 	.word	0x04014454
    25f0:	00028ee8 	.word	0x00028ee8
    25f4:	00028ef0 	.word	0x00028ef0
    25f8:	00028f1d 	.word	0x00028f1d
    25fc:	00028f28 	.word	0x00028f28

00002600 <bSL_ReadMessageHisto>:
    2600:	2b0d      	cmp	r3, #13
    2602:	b5f8      	push	{r3, r4, r5, r6, r7, lr}
    2604:	4e36      	ldr	r6, [pc, #216]	; (26e0 <bSL_ReadMessageHisto+0xe0>)
    2606:	460f      	mov	r7, r1
    2608:	4615      	mov	r5, r2
    260a:	d018      	beq.n	263e <bSL_ReadMessageHisto+0x3e>
    260c:	2b20      	cmp	r3, #32
    260e:	d02c      	beq.n	266a <bSL_ReadMessageHisto+0x6a>
    2610:	2b0a      	cmp	r3, #10
    2612:	d140      	bne.n	2696 <bSL_ReadMessageHisto+0x96>
    2614:	2400      	movs	r4, #0
    2616:	4b33      	ldr	r3, [pc, #204]	; (26e4 <bSL_ReadMessageHisto+0xe4>)
    2618:	4622      	mov	r2, r4
    261a:	4621      	mov	r1, r4
    261c:	4638      	mov	r0, r7
    261e:	701c      	strb	r4, [r3, #0]
    2620:	f024 fe4e 	bl	272c0 <memset>
    2624:	4622      	mov	r2, r4
    2626:	4621      	mov	r1, r4
    2628:	4628      	mov	r0, r5
    262a:	f024 fe49 	bl	272c0 <memset>
    262e:	2301      	movs	r3, #1
    2630:	7033      	strb	r3, [r6, #0]
    2632:	4b2d      	ldr	r3, [pc, #180]	; (26e8 <bSL_ReadMessageHisto+0xe8>)
    2634:	701c      	strb	r4, [r3, #0]
    2636:	4b2d      	ldr	r3, [pc, #180]	; (26ec <bSL_ReadMessageHisto+0xec>)
    2638:	801c      	strh	r4, [r3, #0]
    263a:	2000      	movs	r0, #0
    263c:	e014      	b.n	2668 <bSL_ReadMessageHisto+0x68>
    263e:	7830      	ldrb	r0, [r6, #0]
    2640:	b190      	cbz	r0, 2668 <bSL_ReadMessageHisto+0x68>
    2642:	4b29      	ldr	r3, [pc, #164]	; (26e8 <bSL_ReadMessageHisto+0xe8>)
    2644:	781b      	ldrb	r3, [r3, #0]
    2646:	2b01      	cmp	r3, #1
    2648:	d9f7      	bls.n	263a <bSL_ReadMessageHisto+0x3a>
    264a:	4b26      	ldr	r3, [pc, #152]	; (26e4 <bSL_ReadMessageHisto+0xe4>)
    264c:	7819      	ldrb	r1, [r3, #0]
    264e:	f001 013f 	and.w	r1, r1, #63	; 0x3f
    2652:	3120      	adds	r1, #32
    2654:	7019      	strb	r1, [r3, #0]
    2656:	4b26      	ldr	r3, [pc, #152]	; (26f0 <bSL_ReadMessageHisto+0xf0>)
    2658:	781a      	ldrb	r2, [r3, #0]
    265a:	4291      	cmp	r1, r2
    265c:	d004      	beq.n	2668 <bSL_ReadMessageHisto+0x68>
    265e:	4825      	ldr	r0, [pc, #148]	; (26f4 <bSL_ReadMessageHisto+0xf4>)
    2660:	f000 fc18 	bl	2e94 <DbgConsole_Printf>
    2664:	2000      	movs	r0, #0
    2666:	7030      	strb	r0, [r6, #0]
    2668:	bdf8      	pop	{r3, r4, r5, r6, r7, pc}
    266a:	7830      	ldrb	r0, [r6, #0]
    266c:	2800      	cmp	r0, #0
    266e:	d0fb      	beq.n	2668 <bSL_ReadMessageHisto+0x68>
    2670:	491d      	ldr	r1, [pc, #116]	; (26e8 <bSL_ReadMessageHisto+0xe8>)
    2672:	780a      	ldrb	r2, [r1, #0]
    2674:	3201      	adds	r2, #1
    2676:	b2d2      	uxtb	r2, r2
    2678:	2a01      	cmp	r2, #1
    267a:	700a      	strb	r2, [r1, #0]
    267c:	bf98      	it	ls
    267e:	4a19      	ldrls	r2, [pc, #100]	; (26e4 <bSL_ReadMessageHisto+0xe4>)
    2680:	491a      	ldr	r1, [pc, #104]	; (26ec <bSL_ReadMessageHisto+0xec>)
    2682:	bf94      	ite	ls
    2684:	7813      	ldrbls	r3, [r2, #0]
    2686:	4a1a      	ldrhi	r2, [pc, #104]	; (26f0 <bSL_ReadMessageHisto+0xf0>)
    2688:	f04f 0000 	mov.w	r0, #0
    268c:	bf98      	it	ls
    268e:	3320      	addls	r3, #32
    2690:	8008      	strh	r0, [r1, #0]
    2692:	7013      	strb	r3, [r2, #0]
    2694:	e7e8      	b.n	2668 <bSL_ReadMessageHisto+0x68>
    2696:	7830      	ldrb	r0, [r6, #0]
    2698:	2800      	cmp	r0, #0
    269a:	d0e5      	beq.n	2668 <bSL_ReadMessageHisto+0x68>
    269c:	4a12      	ldr	r2, [pc, #72]	; (26e8 <bSL_ReadMessageHisto+0xe8>)
    269e:	7811      	ldrb	r1, [r2, #0]
    26a0:	b959      	cbnz	r1, 26ba <bSL_ReadMessageHisto+0xba>
    26a2:	4c12      	ldr	r4, [pc, #72]	; (26ec <bSL_ReadMessageHisto+0xec>)
    26a4:	8820      	ldrh	r0, [r4, #0]
    26a6:	1c42      	adds	r2, r0, #1
    26a8:	b292      	uxth	r2, r2
    26aa:	8022      	strh	r2, [r4, #0]
    26ac:	4c0d      	ldr	r4, [pc, #52]	; (26e4 <bSL_ReadMessageHisto+0xe4>)
    26ae:	543b      	strb	r3, [r7, r0]
    26b0:	7820      	ldrb	r0, [r4, #0]
    26b2:	54b9      	strb	r1, [r7, r2]
    26b4:	4403      	add	r3, r0
    26b6:	7023      	strb	r3, [r4, #0]
    26b8:	e7bf      	b.n	263a <bSL_ReadMessageHisto+0x3a>
    26ba:	2901      	cmp	r1, #1
    26bc:	d10c      	bne.n	26d8 <bSL_ReadMessageHisto+0xd8>
    26be:	480b      	ldr	r0, [pc, #44]	; (26ec <bSL_ReadMessageHisto+0xec>)
    26c0:	8801      	ldrh	r1, [r0, #0]
    26c2:	1c4a      	adds	r2, r1, #1
    26c4:	b292      	uxth	r2, r2
    26c6:	8002      	strh	r2, [r0, #0]
    26c8:	4806      	ldr	r0, [pc, #24]	; (26e4 <bSL_ReadMessageHisto+0xe4>)
    26ca:	546b      	strb	r3, [r5, r1]
    26cc:	7801      	ldrb	r1, [r0, #0]
    26ce:	440b      	add	r3, r1
    26d0:	7003      	strb	r3, [r0, #0]
    26d2:	2000      	movs	r0, #0
    26d4:	54a8      	strb	r0, [r5, r2]
    26d6:	e7c7      	b.n	2668 <bSL_ReadMessageHisto+0x68>
    26d8:	4a05      	ldr	r2, [pc, #20]	; (26f0 <bSL_ReadMessageHisto+0xf0>)
    26da:	7013      	strb	r3, [r2, #0]
    26dc:	e7ad      	b.n	263a <bSL_ReadMessageHisto+0x3a>
    26de:	bf00      	nop
    26e0:	04014453 	.word	0x04014453
    26e4:	04014457 	.word	0x04014457
    26e8:	04014451 	.word	0x04014451
    26ec:	0401444e 	.word	0x0401444e
    26f0:	04014455 	.word	0x04014455
    26f4:	00028f60 	.word	0x00028f60

000026f8 <eCLD_LixeeCreateLinky>:
    26f8:	b530      	push	{r4, r5, lr}
    26fa:	b085      	sub	sp, #20
    26fc:	2500      	movs	r5, #0
    26fe:	e9cd 5501 	strd	r5, r5, [sp, #4]
    2702:	9d08      	ldr	r5, [sp, #32]
    2704:	9500      	str	r5, [sp, #0]
    2706:	461c      	mov	r4, r3
    2708:	f006 fed8 	bl	94bc <vZCL_InitializeClusterInstance>
    270c:	b15c      	cbz	r4, 2726 <eCLD_LixeeCreateLinky+0x2e>
    270e:	4623      	mov	r3, r4
    2710:	f240 4204 	movw	r2, #1028	; 0x404
    2714:	f823 2b08 	strh.w	r2, [r3], #8
    2718:	6063      	str	r3, [r4, #4]
    271a:	f104 0314 	add.w	r3, r4, #20
    271e:	6123      	str	r3, [r4, #16]
    2720:	2301      	movs	r3, #1
    2722:	81a2      	strh	r2, [r4, #12]
    2724:	84a3      	strh	r3, [r4, #36]	; 0x24
    2726:	2000      	movs	r0, #0
    2728:	b005      	add	sp, #20
    272a:	bd30      	pop	{r4, r5, pc}

0000272c <eCLD_MeterIdentificationCreateMeterIdentification>:
    272c:	b530      	push	{r4, r5, lr}
    272e:	b085      	sub	sp, #20
    2730:	2400      	movs	r4, #0
    2732:	9d08      	ldr	r5, [sp, #32]
    2734:	9500      	str	r5, [sp, #0]
    2736:	e9cd 4401 	strd	r4, r4, [sp, #4]
    273a:	f006 febf 	bl	94bc <vZCL_InitializeClusterInstance>
    273e:	4620      	mov	r0, r4
    2740:	b005      	add	sp, #20
    2742:	bd30      	pop	{r4, r5, pc}

00002744 <bTSL25721_Init>:
    2744:	2001      	movs	r0, #1
    2746:	4770      	bx	lr

00002748 <vScheduleSleep.isra.0>:
    2748:	b508      	push	{r3, lr}
    274a:	f241 7170 	movw	r1, #6000	; 0x1770
    274e:	4a05      	ldr	r2, [pc, #20]	; (2764 <vScheduleSleep.isra.0+0x1c>)
    2750:	4805      	ldr	r0, [pc, #20]	; (2768 <vScheduleSleep.isra.0+0x20>)
    2752:	f004 ff1d 	bl	7590 <PWR_eScheduleActivity>
    2756:	e8bd 4008 	ldmia.w	sp!, {r3, lr}
    275a:	4804      	ldr	r0, [pc, #16]	; (276c <vScheduleSleep.isra.0+0x24>)
    275c:	f241 7170 	movw	r1, #6000	; 0x1770
    2760:	f000 bb98 	b.w	2e94 <DbgConsole_Printf>
    2764:	00002885 	.word	0x00002885
    2768:	0401445c 	.word	0x0401445c
    276c:	00028ff0 	.word	0x00028ff0

00002770 <vAttemptToSleep>:
    2770:	e92d 41f0 	stmdb	sp!, {r4, r5, r6, r7, r8, lr}
    2774:	4b2c      	ldr	r3, [pc, #176]	; (2828 <vAttemptToSleep+0xb8>)
    2776:	4e2d      	ldr	r6, [pc, #180]	; (282c <vAttemptToSleep+0xbc>)
    2778:	f893 8000 	ldrb.w	r8, [r3]
    277c:	4b2c      	ldr	r3, [pc, #176]	; (2830 <vAttemptToSleep+0xc0>)
    277e:	4d2d      	ldr	r5, [pc, #180]	; (2834 <vAttemptToSleep+0xc4>)
    2780:	7818      	ldrb	r0, [r3, #0]
    2782:	f001 f889 	bl	3898 <ZTIMER_eGetState>
    2786:	4b2c      	ldr	r3, [pc, #176]	; (2838 <vAttemptToSleep+0xc8>)
    2788:	1e81      	subs	r1, r0, #2
    278a:	424c      	negs	r4, r1
    278c:	7818      	ldrb	r0, [r3, #0]
    278e:	414c      	adcs	r4, r1
    2790:	f001 f882 	bl	3898 <ZTIMER_eGetState>
    2794:	4b29      	ldr	r3, [pc, #164]	; (283c <vAttemptToSleep+0xcc>)
    2796:	2802      	cmp	r0, #2
    2798:	7818      	ldrb	r0, [r3, #0]
    279a:	bf08      	it	eq
    279c:	3401      	addeq	r4, #1
    279e:	f001 f87b 	bl	3898 <ZTIMER_eGetState>
    27a2:	4b27      	ldr	r3, [pc, #156]	; (2840 <vAttemptToSleep+0xd0>)
    27a4:	2802      	cmp	r0, #2
    27a6:	bf08      	it	eq
    27a8:	3401      	addeq	r4, #1
    27aa:	7818      	ldrb	r0, [r3, #0]
    27ac:	bf08      	it	eq
    27ae:	b2e4      	uxtbeq	r4, r4
    27b0:	f001 f872 	bl	3898 <ZTIMER_eGetState>
    27b4:	2802      	cmp	r0, #2
    27b6:	bf08      	it	eq
    27b8:	3401      	addeq	r4, #1
    27ba:	7830      	ldrb	r0, [r6, #0]
    27bc:	bf08      	it	eq
    27be:	b2e4      	uxtbeq	r4, r4
    27c0:	f001 f86a 	bl	3898 <ZTIMER_eGetState>
    27c4:	1e82      	subs	r2, r0, #2
    27c6:	4257      	negs	r7, r2
    27c8:	7828      	ldrb	r0, [r5, #0]
    27ca:	4157      	adcs	r7, r2
    27cc:	f001 f864 	bl	3898 <ZTIMER_eGetState>
    27d0:	2802      	cmp	r0, #2
    27d2:	bf08      	it	eq
    27d4:	3701      	addeq	r7, #1
    27d6:	45b8      	cmp	r8, r7
    27d8:	d124      	bne.n	2824 <vAttemptToSleep+0xb4>
    27da:	bb1c      	cbnz	r4, 2824 <vAttemptToSleep+0xb4>
    27dc:	4819      	ldr	r0, [pc, #100]	; (2844 <vAttemptToSleep+0xd4>)
    27de:	f000 fb59 	bl	2e94 <DbgConsole_Printf>
    27e2:	7830      	ldrb	r0, [r6, #0]
    27e4:	f001 f858 	bl	3898 <ZTIMER_eGetState>
    27e8:	2801      	cmp	r0, #1
    27ea:	d002      	beq.n	27f2 <vAttemptToSleep+0x82>
    27ec:	7830      	ldrb	r0, [r6, #0]
    27ee:	f001 f82d 	bl	384c <ZTIMER_eStop>
    27f2:	7828      	ldrb	r0, [r5, #0]
    27f4:	f001 f850 	bl	3898 <ZTIMER_eGetState>
    27f8:	2801      	cmp	r0, #1
    27fa:	d002      	beq.n	2802 <vAttemptToSleep+0x92>
    27fc:	7828      	ldrb	r0, [r5, #0]
    27fe:	f001 f825 	bl	384c <ZTIMER_eStop>
    2802:	f04f 4380 	mov.w	r3, #1073741824	; 0x40000000
    2806:	f8d3 3a3c 	ldr.w	r3, [r3, #2620]	; 0xa3c
    280a:	075b      	lsls	r3, r3, #29
    280c:	d506      	bpl.n	281c <vAttemptToSleep+0xac>
    280e:	f7ff ff9b 	bl	2748 <vScheduleSleep.isra.0>
    2812:	480d      	ldr	r0, [pc, #52]	; (2848 <vAttemptToSleep+0xd8>)
    2814:	e8bd 41f0 	ldmia.w	sp!, {r4, r5, r6, r7, r8, lr}
    2818:	f000 bb3c 	b.w	2e94 <DbgConsole_Printf>
    281c:	f7ff ff94 	bl	2748 <vScheduleSleep.isra.0>
    2820:	480a      	ldr	r0, [pc, #40]	; (284c <vAttemptToSleep+0xdc>)
    2822:	e7f7      	b.n	2814 <vAttemptToSleep+0xa4>
    2824:	e8bd 81f0 	ldmia.w	sp!, {r4, r5, r6, r7, r8, pc}
    2828:	04015268 	.word	0x04015268
    282c:	0401215b 	.word	0x0401215b
    2830:	04012156 	.word	0x04012156
    2834:	04012158 	.word	0x04012158
    2838:	04012159 	.word	0x04012159
    283c:	04012155 	.word	0x04012155
    2840:	0401215a 	.word	0x0401215a
    2844:	0002900d 	.word	0x0002900d
    2848:	00029019 	.word	0x00029019
    284c:	00029031 	.word	0x00029031

00002850 <ForceNoSleep>:
    2850:	b51f      	push	{r0, r1, r2, r3, r4, lr}
    2852:	4c0a      	ldr	r4, [pc, #40]	; (287c <ForceNoSleep+0x2c>)
    2854:	7820      	ldrb	r0, [r4, #0]
    2856:	f001 f81f 	bl	3898 <ZTIMER_eGetState>
    285a:	2802      	cmp	r0, #2
    285c:	d004      	beq.n	2868 <ForceNoSleep+0x18>
    285e:	7820      	ldrb	r0, [r4, #0]
    2860:	f44f 717a 	mov.w	r1, #1000	; 0x3e8
    2864:	f000 ffc8 	bl	37f8 <ZTIMER_eStart>
    2868:	2303      	movs	r3, #3
    286a:	a901      	add	r1, sp, #4
    286c:	4804      	ldr	r0, [pc, #16]	; (2880 <ForceNoSleep+0x30>)
    286e:	f88d 3004 	strb.w	r3, [sp, #4]
    2872:	f000 fef4 	bl	365e <ZQ_bQueueSend>
    2876:	b004      	add	sp, #16
    2878:	bd10      	pop	{r4, pc}
    287a:	bf00      	nop
    287c:	0401215b 	.word	0x0401215b
    2880:	04011f54 	.word	0x04011f54

00002884 <vWakeCallBack>:
    2884:	f7ff bfe4 	b.w	2850 <ForceNoSleep>

00002888 <vStartPollTimer>:
    2888:	4b03      	ldr	r3, [pc, #12]	; (2898 <vStartPollTimer+0x10>)
    288a:	6018      	str	r0, [r3, #0]
    288c:	4b03      	ldr	r3, [pc, #12]	; (289c <vStartPollTimer+0x14>)
    288e:	4601      	mov	r1, r0
    2890:	7818      	ldrb	r0, [r3, #0]
    2892:	f000 bfb1 	b.w	37f8 <ZTIMER_eStart>
    2896:	bf00      	nop
    2898:	0401446c 	.word	0x0401446c
    289c:	04012159 	.word	0x04012159

000028a0 <APP_cbTimerPoll>:
    28a0:	b508      	push	{r3, lr}
    28a2:	f7fd fffd 	bl	8a0 <ZPS_pvAplZdoGetAplHandle>
    28a6:	f012 fc15 	bl	150d4 <zps_eAplZdoPoll>
    28aa:	4b04      	ldr	r3, [pc, #16]	; (28bc <APP_cbTimerPoll+0x1c>)
    28ac:	6819      	ldr	r1, [r3, #0]
    28ae:	4b04      	ldr	r3, [pc, #16]	; (28c0 <APP_cbTimerPoll+0x20>)
    28b0:	7818      	ldrb	r0, [r3, #0]
    28b2:	e8bd 4008 	ldmia.w	sp!, {r3, lr}
    28b6:	f000 bf9f 	b.w	37f8 <ZTIMER_eStart>
    28ba:	bf00      	nop
    28bc:	0401446c 	.word	0x0401446c
    28c0:	04012159 	.word	0x04012159

000028c4 <vHandlePollResponse>:
    28c4:	b508      	push	{r3, lr}
    28c6:	7a03      	ldrb	r3, [r0, #8]
    28c8:	b10b      	cbz	r3, 28ce <vHandlePollResponse+0xa>
    28ca:	2be9      	cmp	r3, #233	; 0xe9
    28cc:	d105      	bne.n	28da <vHandlePollResponse+0x16>
    28ce:	f7fd ffe7 	bl	8a0 <ZPS_pvAplZdoGetAplHandle>
    28d2:	e8bd 4008 	ldmia.w	sp!, {r3, lr}
    28d6:	f012 bbfd 	b.w	150d4 <zps_eAplZdoPoll>
    28da:	bd08      	pop	{r3, pc}

000028dc <vHandleFailedToJoin>:
    28dc:	b508      	push	{r3, lr}
    28de:	f000 f865 	bl	29ac <vEventStopFindAndBind>
    28e2:	4b05      	ldr	r3, [pc, #20]	; (28f8 <vHandleFailedToJoin+0x1c>)
    28e4:	2200      	movs	r2, #0
    28e6:	701a      	strb	r2, [r3, #0]
    28e8:	4b04      	ldr	r3, [pc, #16]	; (28fc <vHandleFailedToJoin+0x20>)
    28ea:	7818      	ldrb	r0, [r3, #0]
    28ec:	f000 ffae 	bl	384c <ZTIMER_eStop>
    28f0:	4b03      	ldr	r3, [pc, #12]	; (2900 <vHandleFailedToJoin+0x24>)
    28f2:	2201      	movs	r2, #1
    28f4:	701a      	strb	r2, [r3, #0]
    28f6:	bd08      	pop	{r3, pc}
    28f8:	04011f50 	.word	0x04011f50
    28fc:	04012158 	.word	0x04012158
    2900:	0401443c 	.word	0x0401443c

00002904 <vHandleFailedRejoin>:
    2904:	b508      	push	{r3, lr}
    2906:	4b06      	ldr	r3, [pc, #24]	; (2920 <vHandleFailedRejoin+0x1c>)
    2908:	7818      	ldrb	r0, [r3, #0]
    290a:	f000 ffc5 	bl	3898 <ZTIMER_eGetState>
    290e:	2802      	cmp	r0, #2
    2910:	d005      	beq.n	291e <vHandleFailedRejoin+0x1a>
    2912:	e8bd 4008 	ldmia.w	sp!, {r3, lr}
    2916:	f44f 707a 	mov.w	r0, #1000	; 0x3e8
    291a:	f000 b9c7 	b.w	2cac <vStartBlinkTimer>
    291e:	bd08      	pop	{r3, pc}
    2920:	04012155 	.word	0x04012155

00002924 <vHandleNetworkJoinEndDevice>:
    2924:	b570      	push	{r4, r5, r6, lr}
    2926:	f7fd ffbb 	bl	8a0 <ZPS_pvAplZdoGetAplHandle>
    292a:	f012 fb61 	bl	14ff0 <zps_pvAplZdoGetNwkHandle>
    292e:	f01a fdf0 	bl	1d512 <ZPS_u64NwkNibGetEpid>
    2932:	4605      	mov	r5, r0
    2934:	460c      	mov	r4, r1
    2936:	f7fd ffb3 	bl	8a0 <ZPS_pvAplZdoGetAplHandle>
    293a:	462a      	mov	r2, r5
    293c:	4623      	mov	r3, r4
    293e:	e8bd 4070 	ldmia.w	sp!, {r4, r5, r6, lr}
    2942:	f011 bcf8 	b.w	14336 <zps_eAplAibSetApsUseExtendedPanId>

00002946 <vHandleNetworkLeave>:
    2946:	b508      	push	{r3, lr}
    2948:	e9d0 2302 	ldrd	r2, r3, [r0, #8]
    294c:	4313      	orrs	r3, r2
    294e:	d108      	bne.n	2962 <vHandleNetworkLeave+0x1c>
    2950:	7c03      	ldrb	r3, [r0, #16]
    2952:	b933      	cbnz	r3, 2962 <vHandleNetworkLeave+0x1c>
    2954:	f7ff f91c 	bl	1b90 <APP_vFactoryResetRecords>
    2958:	b672      	cpsid	i
    295a:	e8bd 4008 	ldmia.w	sp!, {r3, lr}
    295e:	f001 bf49 	b.w	47f4 <RESET_SystemReset>
    2962:	bd08      	pop	{r3, pc}

00002964 <vHandleNetworkJoinAndRejoin>:
    2964:	b508      	push	{r3, lr}
    2966:	4808      	ldr	r0, [pc, #32]	; (2988 <vHandleNetworkJoinAndRejoin+0x24>)
    2968:	f000 fa94 	bl	2e94 <DbgConsole_Printf>
    296c:	f000 f9ae 	bl	2ccc <vStopBlinkTimer>
    2970:	4906      	ldr	r1, [pc, #24]	; (298c <vHandleNetworkJoinAndRejoin+0x28>)
    2972:	2202      	movs	r2, #2
    2974:	2001      	movs	r0, #1
    2976:	700a      	strb	r2, [r1, #0]
    2978:	f00d fcc8 	bl	1030c <PDM_eSaveRecordData>
    297c:	f7fd ff90 	bl	8a0 <ZPS_pvAplZdoGetAplHandle>
    2980:	e8bd 4008 	ldmia.w	sp!, {r3, lr}
    2984:	f012 b810 	b.w	149a8 <zps_vSaveAllZpsRecords>
    2988:	00029048 	.word	0x00029048
    298c:	0401443d 	.word	0x0401443d

00002990 <vHandleNetworkLeaveConfirm>:
    2990:	b508      	push	{r3, lr}
    2992:	e9d0 2302 	ldrd	r2, r3, [r0, #8]
    2996:	4313      	orrs	r3, r2
    2998:	d106      	bne.n	29a8 <vHandleNetworkLeaveConfirm+0x18>
    299a:	f7ff f8f9 	bl	1b90 <APP_vFactoryResetRecords>
    299e:	b672      	cpsid	i
    29a0:	e8bd 4008 	ldmia.w	sp!, {r3, lr}
    29a4:	f001 bf26 	b.w	47f4 <RESET_SystemReset>
    29a8:	bd08      	pop	{r3, pc}
    29aa:	Address 0x000029aa is out of bounds.


000029ac <vEventStopFindAndBind>:
    29ac:	b508      	push	{r3, lr}
    29ae:	4807      	ldr	r0, [pc, #28]	; (29cc <vEventStopFindAndBind+0x20>)
    29b0:	f000 fa70 	bl	2e94 <DbgConsole_Printf>
    29b4:	f7fe f998 	bl	ce8 <vAPP_ZCL_DeviceSpecific_IdentifyOff>
    29b8:	f00a fe3a 	bl	d630 <BDB_vFbExitAsInitiator>
    29bc:	f000 f986 	bl	2ccc <vStopBlinkTimer>
    29c0:	4b03      	ldr	r3, [pc, #12]	; (29d0 <vEventStopFindAndBind+0x24>)
    29c2:	7818      	ldrb	r0, [r3, #0]
    29c4:	e8bd 4008 	ldmia.w	sp!, {r3, lr}
    29c8:	f000 bf40 	b.w	384c <ZTIMER_eStop>
    29cc:	0002905b 	.word	0x0002905b
    29d0:	04012159 	.word	0x04012159

000029d4 <vDioEventHandler>:
    29d4:	b513      	push	{r0, r1, r4, lr}
    29d6:	4604      	mov	r4, r0
    29d8:	4601      	mov	r1, r0
    29da:	481c      	ldr	r0, [pc, #112]	; (2a4c <vDioEventHandler+0x78>)
    29dc:	f000 fa5a 	bl	2e94 <DbgConsole_Printf>
    29e0:	2c01      	cmp	r4, #1
    29e2:	d01b      	beq.n	2a1c <vDioEventHandler+0x48>
    29e4:	2c80      	cmp	r4, #128	; 0x80
    29e6:	d02a      	beq.n	2a3e <vDioEventHandler+0x6a>
    29e8:	bb74      	cbnz	r4, 2a48 <vDioEventHandler+0x74>
    29ea:	4819      	ldr	r0, [pc, #100]	; (2a50 <vDioEventHandler+0x7c>)
    29ec:	f000 fa52 	bl	2e94 <DbgConsole_Printf>
    29f0:	4b18      	ldr	r3, [pc, #96]	; (2a54 <vDioEventHandler+0x80>)
    29f2:	f64f 72ff 	movw	r2, #65535	; 0xffff
    29f6:	20ff      	movs	r0, #255	; 0xff
    29f8:	811a      	strh	r2, [r3, #8]
    29fa:	f7fe f96f 	bl	cdc <vAPP_ZCL_DeviceSpecific_SetIdentifyTime>
    29fe:	4b16      	ldr	r3, [pc, #88]	; (2a58 <vDioEventHandler+0x84>)
    2a00:	7818      	ldrb	r0, [r3, #0]
    2a02:	f00a fd8d 	bl	d520 <BDB_eFbTriggerAsInitiator>
    2a06:	f44f 707a 	mov.w	r0, #1000	; 0x3e8
    2a0a:	f7ff ff3d 	bl	2888 <vStartPollTimer>
    2a0e:	f44f 70fa 	mov.w	r0, #500	; 0x1f4
    2a12:	b002      	add	sp, #8
    2a14:	e8bd 4010 	ldmia.w	sp!, {r4, lr}
    2a18:	f000 b948 	b.w	2cac <vStartBlinkTimer>
    2a1c:	480f      	ldr	r0, [pc, #60]	; (2a5c <vDioEventHandler+0x88>)
    2a1e:	f000 fa39 	bl	2e94 <DbgConsole_Printf>
    2a22:	f7fd ff3d 	bl	8a0 <ZPS_pvAplZdoGetAplHandle>
    2a26:	2300      	movs	r3, #0
    2a28:	e9cd 3300 	strd	r3, r3, [sp]
    2a2c:	2200      	movs	r2, #0
    2a2e:	2300      	movs	r3, #0
    2a30:	f012 fb32 	bl	15098 <zps_eAplZdoLeaveNetwork>
    2a34:	b002      	add	sp, #8
    2a36:	e8bd 4010 	ldmia.w	sp!, {r4, lr}
    2a3a:	f00c b89f 	b.w	eb7c <PDM_vDeleteAllDataRecords>
    2a3e:	b002      	add	sp, #8
    2a40:	e8bd 4010 	ldmia.w	sp!, {r4, lr}
    2a44:	f7ff bfb2 	b.w	29ac <vEventStopFindAndBind>
    2a48:	b002      	add	sp, #8
    2a4a:	bd10      	pop	{r4, pc}
    2a4c:	00029080 	.word	0x00029080
    2a50:	000290c7 	.word	0x000290c7
    2a54:	04015b10 	.word	0x04015b10
    2a58:	000281d7 	.word	0x000281d7
    2a5c:	000290ed 	.word	0x000290ed

00002a60 <vAppHandleAppEvent>:
    2a60:	b530      	push	{r4, r5, lr}
    2a62:	b085      	sub	sp, #20
    2a64:	ab04      	add	r3, sp, #16
    2a66:	e903 0007 	stmdb	r3, {r0, r1, r2}
    2a6a:	f89d 4008 	ldrb.w	r4, [sp, #8]
    2a6e:	9d03      	ldr	r5, [sp, #12]
    2a70:	f7fd ff16 	bl	8a0 <ZPS_pvAplZdoGetAplHandle>
    2a74:	f012 fb2e 	bl	150d4 <zps_eAplZdoPoll>
    2a78:	f89d 3004 	ldrb.w	r3, [sp, #4]
    2a7c:	3b01      	subs	r3, #1
    2a7e:	2b0a      	cmp	r3, #10
    2a80:	d86c      	bhi.n	2b5c <vAppHandleAppEvent+0xfc>
    2a82:	e8df f003 	tbb	[pc, r3]
    2a86:	0618      	.short	0x0618
    2a88:	406b6b29 	.word	0x406b6b29
    2a8c:	6b6b6b58 	.word	0x6b6b6b58
    2a90:	23          	.byte	0x23
    2a91:	00          	.byte	0x00
    2a92:	4621      	mov	r1, r4
    2a94:	4832      	ldr	r0, [pc, #200]	; (2b60 <vAppHandleAppEvent+0x100>)
    2a96:	f000 f9fd 	bl	2e94 <DbgConsole_Printf>
    2a9a:	4832      	ldr	r0, [pc, #200]	; (2b64 <vAppHandleAppEvent+0x104>)
    2a9c:	4629      	mov	r1, r5
    2a9e:	f000 f9f9 	bl	2e94 <DbgConsole_Printf>
    2aa2:	4831      	ldr	r0, [pc, #196]	; (2b68 <vAppHandleAppEvent+0x108>)
    2aa4:	4621      	mov	r1, r4
    2aa6:	f000 f9f5 	bl	2e94 <DbgConsole_Printf>
    2aaa:	4620      	mov	r0, r4
    2aac:	b005      	add	sp, #20
    2aae:	e8bd 4030 	ldmia.w	sp!, {r4, r5, lr}
    2ab2:	f7ff bf8f 	b.w	29d4 <vDioEventHandler>
    2ab6:	4621      	mov	r1, r4
    2ab8:	4829      	ldr	r0, [pc, #164]	; (2b60 <vAppHandleAppEvent+0x100>)
    2aba:	f000 f9eb 	bl	2e94 <DbgConsole_Printf>
    2abe:	4829      	ldr	r0, [pc, #164]	; (2b64 <vAppHandleAppEvent+0x104>)
    2ac0:	4629      	mov	r1, r5
    2ac2:	f000 f9e7 	bl	2e94 <DbgConsole_Printf>
    2ac6:	f044 0480 	orr.w	r4, r4, #128	; 0x80
    2aca:	e7ea      	b.n	2aa2 <vAppHandleAppEvent+0x42>
    2acc:	4827      	ldr	r0, [pc, #156]	; (2b6c <vAppHandleAppEvent+0x10c>)
    2ace:	2101      	movs	r1, #1
    2ad0:	f000 f9e0 	bl	2e94 <DbgConsole_Printf>
    2ad4:	2001      	movs	r0, #1
    2ad6:	e7e9      	b.n	2aac <vAppHandleAppEvent+0x4c>
    2ad8:	4c25      	ldr	r4, [pc, #148]	; (2b70 <vAppHandleAppEvent+0x110>)
    2ada:	4b26      	ldr	r3, [pc, #152]	; (2b74 <vAppHandleAppEvent+0x114>)
    2adc:	4826      	ldr	r0, [pc, #152]	; (2b78 <vAppHandleAppEvent+0x118>)
    2ade:	f8b3 5458 	ldrh.w	r5, [r3, #1112]	; 0x458
    2ae2:	7823      	ldrb	r3, [r4, #0]
    2ae4:	4629      	mov	r1, r5
    2ae6:	3301      	adds	r3, #1
    2ae8:	7023      	strb	r3, [r4, #0]
    2aea:	f000 f9d3 	bl	2e94 <DbgConsole_Printf>
    2aee:	7823      	ldrb	r3, [r4, #0]
    2af0:	429d      	cmp	r5, r3
    2af2:	dc03      	bgt.n	2afc <vAppHandleAppEvent+0x9c>
    2af4:	f7fe fed0 	bl	1898 <vAPP_LinkySensorSample>
    2af8:	2300      	movs	r3, #0
    2afa:	7023      	strb	r3, [r4, #0]
    2afc:	b005      	add	sp, #20
    2afe:	e8bd 4030 	ldmia.w	sp!, {r4, r5, lr}
    2b02:	f000 b8b1 	b.w	2c68 <vUpdateZCLTickSinceSleep>
    2b06:	481d      	ldr	r0, [pc, #116]	; (2b7c <vAppHandleAppEvent+0x11c>)
    2b08:	f000 f9c4 	bl	2e94 <DbgConsole_Printf>
    2b0c:	4a1c      	ldr	r2, [pc, #112]	; (2b80 <vAppHandleAppEvent+0x120>)
    2b0e:	7813      	ldrb	r3, [r2, #0]
    2b10:	f043 0301 	orr.w	r3, r3, #1
    2b14:	7013      	strb	r3, [r2, #0]
    2b16:	4b1b      	ldr	r3, [pc, #108]	; (2b84 <vAppHandleAppEvent+0x124>)
    2b18:	f44f 717a 	mov.w	r1, #1000	; 0x3e8
    2b1c:	7818      	ldrb	r0, [r3, #0]
    2b1e:	f000 fe6b 	bl	37f8 <ZTIMER_eStart>
    2b22:	f44f 707a 	mov.w	r0, #1000	; 0x3e8
    2b26:	f7ff feaf 	bl	2888 <vStartPollTimer>
    2b2a:	20fa      	movs	r0, #250	; 0xfa
    2b2c:	b005      	add	sp, #20
    2b2e:	e8bd 4030 	ldmia.w	sp!, {r4, r5, lr}
    2b32:	f000 b8bb 	b.w	2cac <vStartBlinkTimer>
    2b36:	4814      	ldr	r0, [pc, #80]	; (2b88 <vAppHandleAppEvent+0x128>)
    2b38:	f000 f9ac 	bl	2e94 <DbgConsole_Printf>
    2b3c:	4b10      	ldr	r3, [pc, #64]	; (2b80 <vAppHandleAppEvent+0x120>)
    2b3e:	2200      	movs	r2, #0
    2b40:	701a      	strb	r2, [r3, #0]
    2b42:	4b10      	ldr	r3, [pc, #64]	; (2b84 <vAppHandleAppEvent+0x124>)
    2b44:	7818      	ldrb	r0, [r3, #0]
    2b46:	f000 fe81 	bl	384c <ZTIMER_eStop>
    2b4a:	4b10      	ldr	r3, [pc, #64]	; (2b8c <vAppHandleAppEvent+0x12c>)
    2b4c:	7818      	ldrb	r0, [r3, #0]
    2b4e:	f000 fe7d 	bl	384c <ZTIMER_eStop>
    2b52:	b005      	add	sp, #20
    2b54:	e8bd 4030 	ldmia.w	sp!, {r4, r5, lr}
    2b58:	f000 b8b8 	b.w	2ccc <vStopBlinkTimer>
    2b5c:	b005      	add	sp, #20
    2b5e:	bd30      	pop	{r4, r5, pc}
    2b60:	0002910f 	.word	0x0002910f
    2b64:	00029137 	.word	0x00029137
    2b68:	00029161 	.word	0x00029161
    2b6c:	0002918c 	.word	0x0002918c
    2b70:	04014470 	.word	0x04014470
    2b74:	04013fd8 	.word	0x04013fd8
    2b78:	000291be 	.word	0x000291be
    2b7c:	000291db 	.word	0x000291db
    2b80:	04011f50 	.word	0x04011f50
    2b84:	04012158 	.word	0x04012158
    2b88:	00029209 	.word	0x00029209
    2b8c:	04012159 	.word	0x04012159

00002b90 <vManagePowerOnCountLoadRecord>:
    2b90:	b507      	push	{r0, r1, r2, lr}
    2b92:	4905      	ldr	r1, [pc, #20]	; (2ba8 <vManagePowerOnCountLoadRecord+0x18>)
    2b94:	f10d 0306 	add.w	r3, sp, #6
    2b98:	2201      	movs	r2, #1
    2b9a:	200a      	movs	r0, #10
    2b9c:	f00b ff90 	bl	eac0 <PDM_eReadDataFromRecord>
    2ba0:	b003      	add	sp, #12
    2ba2:	f85d fb04 	ldr.w	pc, [sp], #4
    2ba6:	bf00      	nop
    2ba8:	04014472 	.word	0x04014472

00002bac <vManagePowerOnCountInit>:
    2bac:	b538      	push	{r3, r4, r5, lr}
    2bae:	4a0f      	ldr	r2, [pc, #60]	; (2bec <vManagePowerOnCountInit+0x40>)
    2bb0:	4c0f      	ldr	r4, [pc, #60]	; (2bf0 <vManagePowerOnCountInit+0x44>)
    2bb2:	7812      	ldrb	r2, [r2, #0]
    2bb4:	7820      	ldrb	r0, [r4, #0]
    2bb6:	b922      	cbnz	r2, 2bc2 <vManagePowerOnCountInit+0x16>
    2bb8:	21fa      	movs	r1, #250	; 0xfa
    2bba:	e8bd 4038 	ldmia.w	sp!, {r3, r4, r5, lr}
    2bbe:	f000 be1b 	b.w	37f8 <ZTIMER_eStart>
    2bc2:	4d0c      	ldr	r5, [pc, #48]	; (2bf4 <vManagePowerOnCountInit+0x48>)
    2bc4:	f000 fe42 	bl	384c <ZTIMER_eStop>
    2bc8:	782b      	ldrb	r3, [r5, #0]
    2bca:	2201      	movs	r2, #1
    2bcc:	3301      	adds	r3, #1
    2bce:	4629      	mov	r1, r5
    2bd0:	200a      	movs	r0, #10
    2bd2:	702b      	strb	r3, [r5, #0]
    2bd4:	f00d fb9a 	bl	1030c <PDM_eSaveRecordData>
    2bd8:	782b      	ldrb	r3, [r5, #0]
    2bda:	2b03      	cmp	r3, #3
    2bdc:	d102      	bne.n	2be4 <vManagePowerOnCountInit+0x38>
    2bde:	20fa      	movs	r0, #250	; 0xfa
    2be0:	f000 f864 	bl	2cac <vStartBlinkTimer>
    2be4:	7820      	ldrb	r0, [r4, #0]
    2be6:	f240 61d6 	movw	r1, #1750	; 0x6d6
    2bea:	e7e6      	b.n	2bba <vManagePowerOnCountInit+0xe>
    2bec:	04014471 	.word	0x04014471
    2bf0:	0401215a 	.word	0x0401215a
    2bf4:	04014472 	.word	0x04014472

00002bf8 <vAPP_cbTimerPowerOnCount>:
    2bf8:	b51f      	push	{r0, r1, r2, r3, r4, lr}
    2bfa:	4b12      	ldr	r3, [pc, #72]	; (2c44 <vAPP_cbTimerPowerOnCount+0x4c>)
    2bfc:	781a      	ldrb	r2, [r3, #0]
    2bfe:	b92a      	cbnz	r2, 2c0c <vAPP_cbTimerPowerOnCount+0x14>
    2c00:	2201      	movs	r2, #1
    2c02:	701a      	strb	r2, [r3, #0]
    2c04:	f7ff ffd2 	bl	2bac <vManagePowerOnCountInit>
    2c08:	b004      	add	sp, #16
    2c0a:	bd10      	pop	{r4, pc}
    2c0c:	2300      	movs	r3, #0
    2c0e:	f88d 3004 	strb.w	r3, [sp, #4]
    2c12:	4b0d      	ldr	r3, [pc, #52]	; (2c48 <vAPP_cbTimerPowerOnCount+0x50>)
    2c14:	4c0d      	ldr	r4, [pc, #52]	; (2c4c <vAPP_cbTimerPowerOnCount+0x54>)
    2c16:	7818      	ldrb	r0, [r3, #0]
    2c18:	f000 fe18 	bl	384c <ZTIMER_eStop>
    2c1c:	7822      	ldrb	r2, [r4, #0]
    2c1e:	480c      	ldr	r0, [pc, #48]	; (2c50 <vAPP_cbTimerPowerOnCount+0x58>)
    2c20:	2a03      	cmp	r2, #3
    2c22:	bf08      	it	eq
    2c24:	2306      	moveq	r3, #6
    2c26:	a901      	add	r1, sp, #4
    2c28:	bf08      	it	eq
    2c2a:	f88d 3004 	strbeq.w	r3, [sp, #4]
    2c2e:	f000 fd16 	bl	365e <ZQ_bQueueSend>
    2c32:	2300      	movs	r3, #0
    2c34:	4905      	ldr	r1, [pc, #20]	; (2c4c <vAPP_cbTimerPowerOnCount+0x54>)
    2c36:	7023      	strb	r3, [r4, #0]
    2c38:	2201      	movs	r2, #1
    2c3a:	200a      	movs	r0, #10
    2c3c:	f00d fb66 	bl	1030c <PDM_eSaveRecordData>
    2c40:	e7e2      	b.n	2c08 <vAPP_cbTimerPowerOnCount+0x10>
    2c42:	bf00      	nop
    2c44:	04014471 	.word	0x04014471
    2c48:	0401215a 	.word	0x0401215a
    2c4c:	04014472 	.word	0x04014472
    2c50:	04011f54 	.word	0x04011f54

00002c54 <vDecrementTickCount>:
    2c54:	4a03      	ldr	r2, [pc, #12]	; (2c64 <vDecrementTickCount+0x10>)
    2c56:	6813      	ldr	r3, [r2, #0]
    2c58:	2b3d      	cmp	r3, #61	; 0x3d
    2c5a:	bf14      	ite	ne
    2c5c:	3301      	addne	r3, #1
    2c5e:	2300      	moveq	r3, #0
    2c60:	6013      	str	r3, [r2, #0]
    2c62:	4770      	bx	lr
    2c64:	04014474 	.word	0x04014474

00002c68 <vUpdateZCLTickSinceSleep>:
    2c68:	b530      	push	{r4, r5, lr}
    2c6a:	b09b      	sub	sp, #108	; 0x6c
    2c6c:	ab0c      	add	r3, sp, #48	; 0x30
    2c6e:	4c09      	ldr	r4, [pc, #36]	; (2c94 <vUpdateZCLTickSinceSleep+0x2c>)
    2c70:	930a      	str	r3, [sp, #40]	; 0x28
    2c72:	2508      	movs	r5, #8
    2c74:	6823      	ldr	r3, [r4, #0]
    2c76:	2b09      	cmp	r3, #9
    2c78:	d903      	bls.n	2c82 <vUpdateZCLTickSinceSleep+0x1a>
    2c7a:	2300      	movs	r3, #0
    2c7c:	6023      	str	r3, [r4, #0]
    2c7e:	b01b      	add	sp, #108	; 0x6c
    2c80:	bd30      	pop	{r4, r5, pc}
    2c82:	4668      	mov	r0, sp
    2c84:	f88d 5000 	strb.w	r5, [sp]
    2c88:	f007 ffc0 	bl	ac0c <vZCL_EventHandler>
    2c8c:	6823      	ldr	r3, [r4, #0]
    2c8e:	3301      	adds	r3, #1
    2c90:	6023      	str	r3, [r4, #0]
    2c92:	e7ef      	b.n	2c74 <vUpdateZCLTickSinceSleep+0xc>
    2c94:	04014474 	.word	0x04014474

00002c98 <vStartAwakeTimer>:
    2c98:	4b03      	ldr	r3, [pc, #12]	; (2ca8 <vStartAwakeTimer+0x10>)
    2c9a:	f44f 717a 	mov.w	r1, #1000	; 0x3e8
    2c9e:	4341      	muls	r1, r0
    2ca0:	7818      	ldrb	r0, [r3, #0]
    2ca2:	f000 bda9 	b.w	37f8 <ZTIMER_eStart>
    2ca6:	bf00      	nop
    2ca8:	04012154 	.word	0x04012154

00002cac <vStartBlinkTimer>:
    2cac:	4b04      	ldr	r3, [pc, #16]	; (2cc0 <vStartBlinkTimer+0x14>)
    2cae:	6018      	str	r0, [r3, #0]
    2cb0:	4b04      	ldr	r3, [pc, #16]	; (2cc4 <vStartBlinkTimer+0x18>)
    2cb2:	2200      	movs	r2, #0
    2cb4:	729a      	strb	r2, [r3, #10]
    2cb6:	4b04      	ldr	r3, [pc, #16]	; (2cc8 <vStartBlinkTimer+0x1c>)
    2cb8:	4601      	mov	r1, r0
    2cba:	7818      	ldrb	r0, [r3, #0]
    2cbc:	f000 bd9c 	b.w	37f8 <ZTIMER_eStart>
    2cc0:	0401447c 	.word	0x0401447c
    2cc4:	40080000 	.word	0x40080000
    2cc8:	04012155 	.word	0x04012155

00002ccc <vStopBlinkTimer>:
    2ccc:	b508      	push	{r3, lr}
    2cce:	4b05      	ldr	r3, [pc, #20]	; (2ce4 <vStopBlinkTimer+0x18>)
    2cd0:	7818      	ldrb	r0, [r3, #0]
    2cd2:	f000 fdbb 	bl	384c <ZTIMER_eStop>
    2cd6:	4b04      	ldr	r3, [pc, #16]	; (2ce8 <vStopBlinkTimer+0x1c>)
    2cd8:	2200      	movs	r2, #0
    2cda:	601a      	str	r2, [r3, #0]
    2cdc:	4b03      	ldr	r3, [pc, #12]	; (2cec <vStopBlinkTimer+0x20>)
    2cde:	2201      	movs	r2, #1
    2ce0:	729a      	strb	r2, [r3, #10]
    2ce2:	bd08      	pop	{r3, pc}
    2ce4:	04012155 	.word	0x04012155
    2ce8:	0401447c 	.word	0x0401447c
    2cec:	40080000 	.word	0x40080000

00002cf0 <vAPP_cbTimerAwake>:
    2cf0:	f7ff bfec 	b.w	2ccc <vStopBlinkTimer>

00002cf4 <vToggleLED>:
    2cf4:	4b05      	ldr	r3, [pc, #20]	; (2d0c <vToggleLED+0x18>)
    2cf6:	781a      	ldrb	r2, [r3, #0]
    2cf8:	2a00      	cmp	r2, #0
    2cfa:	bf0c      	ite	eq
    2cfc:	2101      	moveq	r1, #1
    2cfe:	2100      	movne	r1, #0
    2d00:	7019      	strb	r1, [r3, #0]
    2d02:	4b03      	ldr	r3, [pc, #12]	; (2d10 <vToggleLED+0x1c>)
    2d04:	bf18      	it	ne
    2d06:	2201      	movne	r2, #1
    2d08:	729a      	strb	r2, [r3, #10]
    2d0a:	4770      	bx	lr
    2d0c:	04014478 	.word	0x04014478
    2d10:	40080000 	.word	0x40080000

00002d14 <vAPP_cbBlinkLED>:
    2d14:	4b06      	ldr	r3, [pc, #24]	; (2d30 <vAPP_cbBlinkLED+0x1c>)
    2d16:	b510      	push	{r4, lr}
    2d18:	681c      	ldr	r4, [r3, #0]
    2d1a:	b144      	cbz	r4, 2d2e <vAPP_cbBlinkLED+0x1a>
    2d1c:	f7ff ffea 	bl	2cf4 <vToggleLED>
    2d20:	4b04      	ldr	r3, [pc, #16]	; (2d34 <vAPP_cbBlinkLED+0x20>)
    2d22:	4621      	mov	r1, r4
    2d24:	7818      	ldrb	r0, [r3, #0]
    2d26:	e8bd 4010 	ldmia.w	sp!, {r4, lr}
    2d2a:	f000 bd65 	b.w	37f8 <ZTIMER_eStart>
    2d2e:	bd10      	pop	{r4, pc}
    2d30:	0401447c 	.word	0x0401447c
    2d34:	04012155 	.word	0x04012155

00002d38 <DbgConsole_SendDataReliable>:
    2d38:	b510      	push	{r4, lr}
    2d3a:	460c      	mov	r4, r1
    2d3c:	4601      	mov	r1, r0
    2d3e:	b930      	cbnz	r0, 2d4e <DbgConsole_SendDataReliable+0x16>
    2d40:	4b0b      	ldr	r3, [pc, #44]	; (2d70 <DbgConsole_SendDataReliable+0x38>)
    2d42:	4a0c      	ldr	r2, [pc, #48]	; (2d74 <DbgConsole_SendDataReliable+0x3c>)
    2d44:	f240 11d1 	movw	r1, #465	; 0x1d1
    2d48:	480b      	ldr	r0, [pc, #44]	; (2d78 <DbgConsole_SendDataReliable+0x40>)
    2d4a:	f005 fb7f 	bl	844c <__assert_func>
    2d4e:	b924      	cbnz	r4, 2d5a <DbgConsole_SendDataReliable+0x22>
    2d50:	4b0a      	ldr	r3, [pc, #40]	; (2d7c <DbgConsole_SendDataReliable+0x44>)
    2d52:	4a08      	ldr	r2, [pc, #32]	; (2d74 <DbgConsole_SendDataReliable+0x3c>)
    2d54:	f44f 71e9 	mov.w	r1, #466	; 0x1d2
    2d58:	e7f6      	b.n	2d48 <DbgConsole_SendDataReliable+0x10>
    2d5a:	4622      	mov	r2, r4
    2d5c:	4808      	ldr	r0, [pc, #32]	; (2d80 <DbgConsole_SendDataReliable+0x48>)
    2d5e:	f005 fa37 	bl	81d0 <SerialManager_WriteBlocking>
    2d62:	2800      	cmp	r0, #0
    2d64:	bf0c      	ite	eq
    2d66:	4620      	moveq	r0, r4
    2d68:	f04f 30ff 	movne.w	r0, #4294967295
    2d6c:	bd10      	pop	{r4, pc}
    2d6e:	bf00      	nop
    2d70:	00029236 	.word	0x00029236
    2d74:	000292d1 	.word	0x000292d1
    2d78:	00029241 	.word	0x00029241
    2d7c:	0002929f 	.word	0x0002929f
    2d80:	04014498 	.word	0x04014498

00002d84 <DbgConsole_PrintCallback>:
    2d84:	e92d 43f8 	stmdb	sp!, {r3, r4, r5, r6, r7, r8, r9, lr}
    2d88:	2500      	movs	r5, #0
    2d8a:	4606      	mov	r6, r0
    2d8c:	460c      	mov	r4, r1
    2d8e:	4690      	mov	r8, r2
    2d90:	461f      	mov	r7, r3
    2d92:	46a9      	mov	r9, r5
    2d94:	42bd      	cmp	r5, r7
    2d96:	db01      	blt.n	2d9c <DbgConsole_PrintCallback+0x18>
    2d98:	e8bd 83f8 	ldmia.w	sp!, {r3, r4, r5, r6, r7, r8, r9, pc}
    2d9c:	6821      	ldr	r1, [r4, #0]
    2d9e:	1c4b      	adds	r3, r1, #1
    2da0:	2b7f      	cmp	r3, #127	; 0x7f
    2da2:	d904      	bls.n	2dae <DbgConsole_PrintCallback+0x2a>
    2da4:	4630      	mov	r0, r6
    2da6:	f7ff ffc7 	bl	2d38 <DbgConsole_SendDataReliable>
    2daa:	f8c4 9000 	str.w	r9, [r4]
    2dae:	6823      	ldr	r3, [r4, #0]
    2db0:	f806 8003 	strb.w	r8, [r6, r3]
    2db4:	6823      	ldr	r3, [r4, #0]
    2db6:	3301      	adds	r3, #1
    2db8:	6023      	str	r3, [r4, #0]
    2dba:	3501      	adds	r5, #1
    2dbc:	e7ea      	b.n	2d94 <DbgConsole_PrintCallback+0x10>
    2dbe:	Address 0x00002dbe is out of bounds.


00002dc0 <DbgConsole_Init>:
    2dc0:	b510      	push	{r4, lr}
    2dc2:	b088      	sub	sp, #32
    2dc4:	e9cd 3104 	strd	r3, r1, [sp, #16]
    2dc8:	2301      	movs	r3, #1
    2dca:	2100      	movs	r1, #0
    2dcc:	429a      	cmp	r2, r3
    2dce:	f8ad 1018 	strh.w	r1, [sp, #24]
    2dd2:	f88d 001a 	strb.w	r0, [sp, #26]
    2dd6:	f88d 301b 	strb.w	r3, [sp, #27]
    2dda:	f88d 301c 	strb.w	r3, [sp, #28]
    2dde:	f88d 2008 	strb.w	r2, [sp, #8]
    2de2:	d12e      	bne.n	2e42 <DbgConsole_Init+0x82>
    2de4:	4c18      	ldr	r4, [pc, #96]	; (2e48 <DbgConsole_Init+0x88>)
    2de6:	ab04      	add	r3, sp, #16
    2de8:	221c      	movs	r2, #28
    2dea:	4620      	mov	r0, r4
    2dec:	9303      	str	r3, [sp, #12]
    2dee:	f024 fa67 	bl	272c0 <memset>
    2df2:	4669      	mov	r1, sp
    2df4:	4620      	mov	r0, r4
    2df6:	6124      	str	r4, [r4, #16]
    2df8:	f005 f8f0 	bl	7fdc <SerialManager_Init>
    2dfc:	b130      	cbz	r0, 2e0c <DbgConsole_Init+0x4c>
    2dfe:	4b13      	ldr	r3, [pc, #76]	; (2e4c <DbgConsole_Init+0x8c>)
    2e00:	4a13      	ldr	r2, [pc, #76]	; (2e50 <DbgConsole_Init+0x90>)
    2e02:	f44f 7133 	mov.w	r1, #716	; 0x2cc
    2e06:	4813      	ldr	r0, [pc, #76]	; (2e54 <DbgConsole_Init+0x94>)
    2e08:	f005 fb20 	bl	844c <__assert_func>
    2e0c:	6920      	ldr	r0, [r4, #16]
    2e0e:	f104 0114 	add.w	r1, r4, #20
    2e12:	f005 f935 	bl	8080 <SerialManager_OpenWriteHandle>
    2e16:	b120      	cbz	r0, 2e22 <DbgConsole_Init+0x62>
    2e18:	4b0c      	ldr	r3, [pc, #48]	; (2e4c <DbgConsole_Init+0x8c>)
    2e1a:	4a0d      	ldr	r2, [pc, #52]	; (2e50 <DbgConsole_Init+0x90>)
    2e1c:	f240 21d6 	movw	r1, #726	; 0x2d6
    2e20:	e7f1      	b.n	2e06 <DbgConsole_Init+0x46>
    2e22:	6920      	ldr	r0, [r4, #16]
    2e24:	f104 0118 	add.w	r1, r4, #24
    2e28:	f005 f97c 	bl	8124 <SerialManager_OpenReadHandle>
    2e2c:	b120      	cbz	r0, 2e38 <DbgConsole_Init+0x78>
    2e2e:	4b07      	ldr	r3, [pc, #28]	; (2e4c <DbgConsole_Init+0x8c>)
    2e30:	4a07      	ldr	r2, [pc, #28]	; (2e50 <DbgConsole_Init+0x90>)
    2e32:	f240 21e1 	movw	r1, #737	; 0x2e1
    2e36:	e7e6      	b.n	2e06 <DbgConsole_Init+0x46>
    2e38:	4b07      	ldr	r3, [pc, #28]	; (2e58 <DbgConsole_Init+0x98>)
    2e3a:	6922      	ldr	r2, [r4, #16]
    2e3c:	601a      	str	r2, [r3, #0]
    2e3e:	b008      	add	sp, #32
    2e40:	bd10      	pop	{r4, pc}
    2e42:	f243 5021 	movw	r0, #13601	; 0x3521
    2e46:	e7fa      	b.n	2e3e <DbgConsole_Init+0x7e>
    2e48:	04014484 	.word	0x04014484
    2e4c:	000292a9 	.word	0x000292a9
    2e50:	000292ed 	.word	0x000292ed
    2e54:	00029241 	.word	0x00029241
    2e58:	04014480 	.word	0x04014480

00002e5c <DbgConsole_Deinit>:
    2e5c:	b510      	push	{r4, lr}
    2e5e:	4c0b      	ldr	r4, [pc, #44]	; (2e8c <DbgConsole_Deinit+0x30>)
    2e60:	6923      	ldr	r3, [r4, #16]
    2e62:	b14b      	cbz	r3, 2e78 <DbgConsole_Deinit+0x1c>
    2e64:	f104 0014 	add.w	r0, r4, #20
    2e68:	f005 f934 	bl	80d4 <SerialManager_CloseWriteHandle>
    2e6c:	6923      	ldr	r3, [r4, #16]
    2e6e:	b11b      	cbz	r3, 2e78 <DbgConsole_Deinit+0x1c>
    2e70:	f104 0018 	add.w	r0, r4, #24
    2e74:	f005 f984 	bl	8180 <SerialManager_CloseReadHandle>
    2e78:	6920      	ldr	r0, [r4, #16]
    2e7a:	b128      	cbz	r0, 2e88 <DbgConsole_Deinit+0x2c>
    2e7c:	f005 f8da 	bl	8034 <SerialManager_Deinit>
    2e80:	b910      	cbnz	r0, 2e88 <DbgConsole_Deinit+0x2c>
    2e82:	4b03      	ldr	r3, [pc, #12]	; (2e90 <DbgConsole_Deinit+0x34>)
    2e84:	6120      	str	r0, [r4, #16]
    2e86:	6018      	str	r0, [r3, #0]
    2e88:	2000      	movs	r0, #0
    2e8a:	bd10      	pop	{r4, pc}
    2e8c:	04014484 	.word	0x04014484
    2e90:	04014480 	.word	0x04014480

00002e94 <DbgConsole_Printf>:
    2e94:	b40f      	push	{r0, r1, r2, r3}
    2e96:	b500      	push	{lr}
    2e98:	b0a3      	sub	sp, #140	; 0x8c
    2e9a:	2100      	movs	r1, #0
    2e9c:	227c      	movs	r2, #124	; 0x7c
    2e9e:	a803      	add	r0, sp, #12
    2ea0:	9102      	str	r1, [sp, #8]
    2ea2:	f024 fa0d 	bl	272c0 <memset>
    2ea6:	4b09      	ldr	r3, [pc, #36]	; (2ecc <DbgConsole_Printf+0x38>)
    2ea8:	6818      	ldr	r0, [r3, #0]
    2eaa:	b150      	cbz	r0, 2ec2 <DbgConsole_Printf+0x2e>
    2eac:	a925      	add	r1, sp, #148	; 0x94
    2eae:	4b08      	ldr	r3, [pc, #32]	; (2ed0 <DbgConsole_Printf+0x3c>)
    2eb0:	9824      	ldr	r0, [sp, #144]	; 0x90
    2eb2:	9101      	str	r1, [sp, #4]
    2eb4:	aa02      	add	r2, sp, #8
    2eb6:	f004 fdd3 	bl	7a60 <StrFormatPrintf>
    2eba:	4601      	mov	r1, r0
    2ebc:	a802      	add	r0, sp, #8
    2ebe:	f7ff ff3b 	bl	2d38 <DbgConsole_SendDataReliable>
    2ec2:	b023      	add	sp, #140	; 0x8c
    2ec4:	f85d eb04 	ldr.w	lr, [sp], #4
    2ec8:	b004      	add	sp, #16
    2eca:	4770      	bx	lr
    2ecc:	04014480 	.word	0x04014480
    2ed0:	00002d85 	.word	0x00002d85

00002ed4 <GPIO_PinInit>:
    2ed4:	b510      	push	{r4, lr}
    2ed6:	2401      	movs	r4, #1
    2ed8:	fa04 f202 	lsl.w	r2, r4, r2
    2edc:	781c      	ldrb	r4, [r3, #0]
    2ede:	b924      	cbnz	r4, 2eea <GPIO_PinInit+0x16>
    2ee0:	f501 6110 	add.w	r1, r1, #2304	; 0x900
    2ee4:	f840 2021 	str.w	r2, [r0, r1, lsl #2]
    2ee8:	bd10      	pop	{r4, pc}
    2eea:	785b      	ldrb	r3, [r3, #1]
    2eec:	b933      	cbnz	r3, 2efc <GPIO_PinInit+0x28>
    2eee:	f501 630a 	add.w	r3, r1, #2208	; 0x8a0
    2ef2:	f840 2023 	str.w	r2, [r0, r3, lsl #2]
    2ef6:	f501 610e 	add.w	r1, r1, #2272	; 0x8e0
    2efa:	e7f3      	b.n	2ee4 <GPIO_PinInit+0x10>
    2efc:	f501 6308 	add.w	r3, r1, #2176	; 0x880
    2f00:	e7f7      	b.n	2ef2 <GPIO_PinInit+0x1e>
    2f02:	Address 0x00002f02 is out of bounds.


00002f04 <GINT_GetInstance>:
    2f04:	b508      	push	{r3, lr}
    2f06:	4b05      	ldr	r3, [pc, #20]	; (2f1c <GINT_GetInstance+0x18>)
    2f08:	4298      	cmp	r0, r3
    2f0a:	d005      	beq.n	2f18 <GINT_GetInstance+0x14>
    2f0c:	4b04      	ldr	r3, [pc, #16]	; (2f20 <GINT_GetInstance+0x1c>)
    2f0e:	4a05      	ldr	r2, [pc, #20]	; (2f24 <GINT_GetInstance+0x20>)
    2f10:	4805      	ldr	r0, [pc, #20]	; (2f28 <GINT_GetInstance+0x24>)
    2f12:	2137      	movs	r1, #55	; 0x37
    2f14:	f005 fa9a 	bl	844c <__assert_func>
    2f18:	2000      	movs	r0, #0
    2f1a:	bd08      	pop	{r3, pc}
    2f1c:	40011000 	.word	0x40011000
    2f20:	000292fd 	.word	0x000292fd
    2f24:	00029365 	.word	0x00029365
    2f28:	00029320 	.word	0x00029320

00002f2c <GINT_Init>:
    2f2c:	b508      	push	{r3, lr}
    2f2e:	f7ff ffe9 	bl	2f04 <GINT_GetInstance>
    2f32:	4b06      	ldr	r3, [pc, #24]	; (2f4c <GINT_Init+0x20>)
    2f34:	2200      	movs	r2, #0
    2f36:	f843 2020 	str.w	r2, [r3, r0, lsl #2]
    2f3a:	2013      	movs	r0, #19
    2f3c:	f001 fb8a 	bl	4654 <CLOCK_EnableClock>
    2f40:	e8bd 4008 	ldmia.w	sp!, {r3, lr}
    2f44:	2013      	movs	r0, #19
    2f46:	f001 bc4b 	b.w	47e0 <RESET_PeripheralReset>
    2f4a:	bf00      	nop
    2f4c:	040144a0 	.word	0x040144a0

00002f50 <GINT_SetCtrl>:
    2f50:	b5f8      	push	{r3, r4, r5, r6, r7, lr}
    2f52:	460c      	mov	r4, r1
    2f54:	4615      	mov	r5, r2
    2f56:	461f      	mov	r7, r3
    2f58:	4606      	mov	r6, r0
    2f5a:	0064      	lsls	r4, r4, #1
    2f5c:	f7ff ffd2 	bl	2f04 <GINT_GetInstance>
    2f60:	00ad      	lsls	r5, r5, #2
    2f62:	4b05      	ldr	r3, [pc, #20]	; (2f78 <GINT_SetCtrl+0x28>)
    2f64:	f004 0402 	and.w	r4, r4, #2
    2f68:	f005 0504 	and.w	r5, r5, #4
    2f6c:	432c      	orrs	r4, r5
    2f6e:	6034      	str	r4, [r6, #0]
    2f70:	f843 7020 	str.w	r7, [r3, r0, lsl #2]
    2f74:	bdf8      	pop	{r3, r4, r5, r6, r7, pc}
    2f76:	bf00      	nop
    2f78:	040144a0 	.word	0x040144a0

00002f7c <GINT_ConfigPins>:
    2f7c:	eb00 0181 	add.w	r1, r0, r1, lsl #2
    2f80:	620a      	str	r2, [r1, #32]
    2f82:	640b      	str	r3, [r1, #64]	; 0x40
    2f84:	4770      	bx	lr
    2f86:	Address 0x00002f86 is out of bounds.


00002f88 <GINT_EnableCallback>:
    2f88:	b510      	push	{r4, lr}
    2f8a:	4604      	mov	r4, r0
    2f8c:	f7ff ffba 	bl	2f04 <GINT_GetInstance>
    2f90:	6823      	ldr	r3, [r4, #0]
    2f92:	f043 0301 	orr.w	r3, r3, #1
    2f96:	6023      	str	r3, [r4, #0]
    2f98:	4b02      	ldr	r3, [pc, #8]	; (2fa4 <GINT_EnableCallback+0x1c>)
    2f9a:	2204      	movs	r2, #4
    2f9c:	f8c3 2180 	str.w	r2, [r3, #384]	; 0x180
    2fa0:	601a      	str	r2, [r3, #0]
    2fa2:	bd10      	pop	{r4, pc}
    2fa4:	e000e100 	.word	0xe000e100

00002fa8 <GINT_DisableCallback>:
    2fa8:	b510      	push	{r4, lr}
    2faa:	4604      	mov	r4, r0
    2fac:	f7ff ffaa 	bl	2f04 <GINT_GetInstance>
    2fb0:	4a07      	ldr	r2, [pc, #28]	; (2fd0 <GINT_DisableCallback+0x28>)
    2fb2:	2104      	movs	r1, #4
    2fb4:	f8c2 1080 	str.w	r1, [r2, #128]	; 0x80
    2fb8:	f3bf 8f4f 	dsb	sy
    2fbc:	f3bf 8f6f 	isb	sy
    2fc0:	6823      	ldr	r3, [r4, #0]
    2fc2:	f043 0301 	orr.w	r3, r3, #1
    2fc6:	6023      	str	r3, [r4, #0]
    2fc8:	f8c2 1180 	str.w	r1, [r2, #384]	; 0x180
    2fcc:	bd10      	pop	{r4, pc}
    2fce:	bf00      	nop
    2fd0:	e000e100 	.word	0xe000e100

00002fd4 <GINT0_DriverIRQHandler>:
    2fd4:	4a06      	ldr	r2, [pc, #24]	; (2ff0 <GINT0_DriverIRQHandler+0x1c>)
    2fd6:	b508      	push	{r3, lr}
    2fd8:	6813      	ldr	r3, [r2, #0]
    2fda:	f043 0301 	orr.w	r3, r3, #1
    2fde:	6013      	str	r3, [r2, #0]
    2fe0:	4b04      	ldr	r3, [pc, #16]	; (2ff4 <GINT0_DriverIRQHandler+0x20>)
    2fe2:	681b      	ldr	r3, [r3, #0]
    2fe4:	b103      	cbz	r3, 2fe8 <GINT0_DriverIRQHandler+0x14>
    2fe6:	4798      	blx	r3
    2fe8:	f3bf 8f4f 	dsb	sy
    2fec:	bd08      	pop	{r3, pc}
    2fee:	bf00      	nop
    2ff0:	40011000 	.word	0x40011000
    2ff4:	040144a0 	.word	0x040144a0

00002ff8 <BOARD_InitClocks>:
    2ff8:	b510      	push	{r4, lr}
    2ffa:	f001 fa42 	bl	4482 <CLOCK_EnableAPBBridge>
    2ffe:	4824      	ldr	r0, [pc, #144]	; (3090 <BOARD_InitClocks+0x98>)
    3000:	4c24      	ldr	r4, [pc, #144]	; (3094 <BOARD_InitClocks+0x9c>)
    3002:	f001 fb27 	bl	4654 <CLOCK_EnableClock>
    3006:	4824      	ldr	r0, [pc, #144]	; (3098 <BOARD_InitClocks+0xa0>)
    3008:	f001 fb24 	bl	4654 <CLOCK_EnableClock>
    300c:	4823      	ldr	r0, [pc, #140]	; (309c <BOARD_InitClocks+0xa4>)
    300e:	f001 fb21 	bl	4654 <CLOCK_EnableClock>
    3012:	200d      	movs	r0, #13
    3014:	f001 fb1e 	bl	4654 <CLOCK_EnableClock>
    3018:	200b      	movs	r0, #11
    301a:	f001 fb1b 	bl	4654 <CLOCK_EnableClock>
    301e:	200e      	movs	r0, #14
    3020:	f001 fb18 	bl	4654 <CLOCK_EnableClock>
    3024:	201b      	movs	r0, #27
    3026:	f001 fb15 	bl	4654 <CLOCK_EnableClock>
    302a:	f8d4 30b8 	ldr.w	r3, [r4, #184]	; 0xb8
    302e:	f443 0380 	orr.w	r3, r3, #4194304	; 0x400000
    3032:	f8c4 30b8 	str.w	r3, [r4, #184]	; 0xb8
    3036:	f241 00ac 	movw	r0, #4268	; 0x10ac
    303a:	f000 ff43 	bl	3ec4 <CLOCK_AttachClk>
    303e:	f240 100d 	movw	r0, #269	; 0x10d
    3042:	f001 fb07 	bl	4654 <CLOCK_EnableClock>
    3046:	f44f 708a 	mov.w	r0, #276	; 0x114
    304a:	f001 fb03 	bl	4654 <CLOCK_EnableClock>
    304e:	f241 00ad 	movw	r0, #4269	; 0x10ad
    3052:	f000 ff37 	bl	3ec4 <CLOCK_AttachClk>
    3056:	f44f 708c 	mov.w	r0, #280	; 0x118
    305a:	f001 fafb 	bl	4654 <CLOCK_EnableClock>
    305e:	f241 00ad 	movw	r0, #4269	; 0x10ad
    3062:	f000 ff2f 	bl	3ec4 <CLOCK_AttachClk>
    3066:	f241 00a9 	movw	r0, #4265	; 0x10a9
    306a:	f000 ff2b 	bl	3ec4 <CLOCK_AttachClk>
    306e:	f8d4 30b8 	ldr.w	r3, [r4, #184]	; 0xb8
    3072:	f443 0380 	orr.w	r3, r3, #4194304	; 0x400000
    3076:	f8c4 30b8 	str.w	r3, [r4, #184]	; 0xb8
    307a:	f242 00b1 	movw	r0, #8369	; 0x20b1
    307e:	f000 ff21 	bl	3ec4 <CLOCK_AttachClk>
    3082:	2201      	movs	r2, #1
    3084:	e8bd 4010 	ldmia.w	sp!, {r4, lr}
    3088:	4611      	mov	r1, r2
    308a:	20db      	movs	r0, #219	; 0xdb
    308c:	f000 bf9e 	b.w	3fcc <CLOCK_SetClkDiv>
    3090:	00010008 	.word	0x00010008
    3094:	40012000 	.word	0x40012000
    3098:	00010004 	.word	0x00010004
    309c:	00010005 	.word	0x00010005

000030a0 <BOARD_InitHardware>:
    30a0:	b508      	push	{r3, lr}
    30a2:	f04f 4380 	mov.w	r3, #1073741824	; 0x40000000
    30a6:	4a0f      	ldr	r2, [pc, #60]	; (30e4 <BOARD_InitHardware+0x44>)
    30a8:	f8c3 2ff0 	str.w	r2, [r3, #4080]	; 0xff0
    30ac:	f002 f886 	bl	51bc <POWER_Init>
    30b0:	480d      	ldr	r0, [pc, #52]	; (30e8 <BOARD_InitHardware+0x48>)
    30b2:	f001 fb95 	bl	47e0 <RESET_PeripheralReset>
    30b6:	200e      	movs	r0, #14
    30b8:	f001 fb92 	bl	47e0 <RESET_PeripheralReset>
    30bc:	480b      	ldr	r0, [pc, #44]	; (30ec <BOARD_InitHardware+0x4c>)
    30be:	f001 fb8f 	bl	47e0 <RESET_PeripheralReset>
    30c2:	480b      	ldr	r0, [pc, #44]	; (30f0 <BOARD_InitHardware+0x50>)
    30c4:	f001 fb8c 	bl	47e0 <RESET_PeripheralReset>
    30c8:	4a0a      	ldr	r2, [pc, #40]	; (30f4 <BOARD_InitHardware+0x54>)
    30ca:	6813      	ldr	r3, [r2, #0]
    30cc:	f043 0308 	orr.w	r3, r3, #8
    30d0:	6013      	str	r3, [r2, #0]
    30d2:	f7ff ff91 	bl	2ff8 <BOARD_InitClocks>
    30d6:	f000 fd5d 	bl	3b94 <BOARD_InitDebugConsole>
    30da:	e8bd 4008 	ldmia.w	sp!, {r3, lr}
    30de:	f000 b80b 	b.w	30f8 <BOARD_InitPins>
    30e2:	bf00      	nop
    30e4:	87654320 	.word	0x87654320
    30e8:	0001000b 	.word	0x0001000b
    30ec:	0001000d 	.word	0x0001000d
    30f0:	00010014 	.word	0x00010014
    30f4:	40012000 	.word	0x40012000

000030f8 <BOARD_InitPins>:
    30f8:	4b04      	ldr	r3, [pc, #16]	; (310c <BOARD_InitPins+0x14>)
    30fa:	2292      	movs	r2, #146	; 0x92
    30fc:	621a      	str	r2, [r3, #32]
    30fe:	625a      	str	r2, [r3, #36]	; 0x24
    3100:	605a      	str	r2, [r3, #4]
    3102:	631a      	str	r2, [r3, #48]	; 0x30
    3104:	2298      	movs	r2, #152	; 0x98
    3106:	629a      	str	r2, [r3, #40]	; 0x28
    3108:	4770      	bx	lr
    310a:	bf00      	nop
    310c:	4000f000 	.word	0x4000f000

00003110 <BOARD_SetPinsForPowerMode>:
    3110:	b5f7      	push	{r0, r1, r2, r4, r5, r6, r7, lr}
    3112:	4e0b      	ldr	r6, [pc, #44]	; (3140 <BOARD_SetPinsForPowerMode+0x30>)
    3114:	4f0b      	ldr	r7, [pc, #44]	; (3144 <BOARD_SetPinsForPowerMode+0x34>)
    3116:	2400      	movs	r4, #0
    3118:	f44f 7580 	mov.w	r5, #256	; 0x100
    311c:	2c0a      	cmp	r4, #10
    311e:	d00a      	beq.n	3136 <BOARD_SetPinsForPowerMode+0x26>
    3120:	ab01      	add	r3, sp, #4
    3122:	4622      	mov	r2, r4
    3124:	2100      	movs	r1, #0
    3126:	4630      	mov	r0, r6
    3128:	f8ad 5004 	strh.w	r5, [sp, #4]
    312c:	f7ff fed2 	bl	2ed4 <GPIO_PinInit>
    3130:	2380      	movs	r3, #128	; 0x80
    3132:	f847 3024 	str.w	r3, [r7, r4, lsl #2]
    3136:	3401      	adds	r4, #1
    3138:	2c16      	cmp	r4, #22
    313a:	d1ef      	bne.n	311c <BOARD_SetPinsForPowerMode+0xc>
    313c:	b003      	add	sp, #12
    313e:	bdf0      	pop	{r4, r5, r6, r7, pc}
    3140:	40080000 	.word	0x40080000
    3144:	4000f000 	.word	0x4000f000

00003148 <flashConfig_ExtractGpAdcTrimValues>:
    3148:	490b      	ldr	r1, [pc, #44]	; (3178 <flashConfig_ExtractGpAdcTrimValues+0x30>)
    314a:	680a      	ldr	r2, [r1, #0]
    314c:	4603      	mov	r3, r0
    314e:	f012 0001 	ands.w	r0, r2, #1
    3152:	b510      	push	{r4, lr}
    3154:	d00f      	beq.n	3176 <flashConfig_ExtractGpAdcTrimValues+0x2e>
    3156:	f3c2 0449 	ubfx	r4, r2, #1, #10
    315a:	801c      	strh	r4, [r3, #0]
    315c:	f3c2 24c9 	ubfx	r4, r2, #11, #10
    3160:	f3c2 5249 	ubfx	r2, r2, #21, #10
    3164:	809a      	strh	r2, [r3, #4]
    3166:	684a      	ldr	r2, [r1, #4]
    3168:	805c      	strh	r4, [r3, #2]
    316a:	f3c2 010b 	ubfx	r1, r2, #0, #12
    316e:	f3c2 320b 	ubfx	r2, r2, #12, #12
    3172:	80d9      	strh	r1, [r3, #6]
    3174:	811a      	strh	r2, [r3, #8]
    3176:	bd10      	pop	{r4, pc}
    3178:	0009fc80 	.word	0x0009fc80

0000317c <flashConfig_ExtractTempSensorTrimValues>:
    317c:	4a15      	ldr	r2, [pc, #84]	; (31d4 <flashConfig_ExtractTempSensorTrimValues+0x58>)
    317e:	4603      	mov	r3, r0
    3180:	6810      	ldr	r0, [r2, #0]
    3182:	f010 0001 	ands.w	r0, r0, #1
    3186:	b510      	push	{r4, lr}
    3188:	d023      	beq.n	31d2 <flashConfig_ExtractTempSensorTrimValues+0x56>
    318a:	6951      	ldr	r1, [r2, #20]
    318c:	8019      	strh	r1, [r3, #0]
    318e:	0c09      	lsrs	r1, r1, #16
    3190:	8059      	strh	r1, [r3, #2]
    3192:	6991      	ldr	r1, [r2, #24]
    3194:	8099      	strh	r1, [r3, #4]
    3196:	0c09      	lsrs	r1, r1, #16
    3198:	80d9      	strh	r1, [r3, #6]
    319a:	69d1      	ldr	r1, [r2, #28]
    319c:	8119      	strh	r1, [r3, #8]
    319e:	0c09      	lsrs	r1, r1, #16
    31a0:	8159      	strh	r1, [r3, #10]
    31a2:	6a11      	ldr	r1, [r2, #32]
    31a4:	8199      	strh	r1, [r3, #12]
    31a6:	0c09      	lsrs	r1, r1, #16
    31a8:	81d9      	strh	r1, [r3, #14]
    31aa:	490b      	ldr	r1, [pc, #44]	; (31d8 <flashConfig_ExtractTempSensorTrimValues+0x5c>)
    31ac:	880c      	ldrh	r4, [r1, #0]
    31ae:	6a51      	ldr	r1, [r2, #36]	; 0x24
    31b0:	821c      	strh	r4, [r3, #16]
    31b2:	0c09      	lsrs	r1, r1, #16
    31b4:	8259      	strh	r1, [r3, #18]
    31b6:	3214      	adds	r2, #20
    31b8:	6951      	ldr	r1, [r2, #20]
    31ba:	6992      	ldr	r2, [r2, #24]
    31bc:	835a      	strh	r2, [r3, #26]
    31be:	f3c1 040b 	ubfx	r4, r1, #0, #12
    31c2:	829c      	strh	r4, [r3, #20]
    31c4:	0c12      	lsrs	r2, r2, #16
    31c6:	f3c1 3409 	ubfx	r4, r1, #12, #10
    31ca:	0d89      	lsrs	r1, r1, #22
    31cc:	82dc      	strh	r4, [r3, #22]
    31ce:	8319      	strh	r1, [r3, #24]
    31d0:	839a      	strh	r2, [r3, #28]
    31d2:	bd10      	pop	{r4, pc}
    31d4:	0009fc8c 	.word	0x0009fc8c
    31d8:	0009fcb0 	.word	0x0009fcb0

000031dc <temp_computation>:
    31dc:	4b1e      	ldr	r3, [pc, #120]	; (3258 <temp_computation+0x7c>)
    31de:	b5f0      	push	{r4, r5, r6, r7, lr}
    31e0:	681c      	ldr	r4, [r3, #0]
    31e2:	f9b4 3014 	ldrsh.w	r3, [r4, #20]
    31e6:	fb03 0312 	mls	r3, r3, r2, r0
    31ea:	8ba0      	ldrh	r0, [r4, #28]
    31ec:	fb10 f003 	smulbb	r0, r0, r3
    31f0:	1406      	asrs	r6, r0, #16
    31f2:	f5c6 2680 	rsb	r6, r6, #262144	; 0x40000
    31f6:	b21d      	sxth	r5, r3
    31f8:	fbb6 f3f2 	udiv	r3, r6, r2
    31fc:	0776      	lsls	r6, r6, #29
    31fe:	d504      	bpl.n	320a <temp_computation+0x2e>
    3200:	2800      	cmp	r0, #0
    3202:	bfb4      	ite	lt
    3204:	f103 33ff 	addlt.w	r3, r3, #4294967295
    3208:	3301      	addge	r3, #1
    320a:	f9b4 001a 	ldrsh.w	r0, [r4, #26]
    320e:	f9b4 c012 	ldrsh.w	ip, [r4, #18]
    3212:	f994 7011 	ldrsb.w	r7, [r4, #17]
    3216:	4343      	muls	r3, r0
    3218:	1418      	asrs	r0, r3, #16
    321a:	f9b4 300c 	ldrsh.w	r3, [r4, #12]
    321e:	1acb      	subs	r3, r1, r3
    3220:	4343      	muls	r3, r0
    3222:	f994 1010 	ldrsb.w	r1, [r4, #16]
    3226:	eb0c 3363 	add.w	r3, ip, r3, asr #13
    322a:	ebc1 16e3 	rsb	r6, r1, r3, asr #7
    322e:	4376      	muls	r6, r6
    3230:	ebc1 11ec 	rsb	r1, r1, ip, asr #7
    3234:	11b0      	asrs	r0, r6, #6
    3236:	4349      	muls	r1, r1
    3238:	4378      	muls	r0, r7
    323a:	1189      	asrs	r1, r1, #6
    323c:	eb03 13a0 	add.w	r3, r3, r0, asr #6
    3240:	4379      	muls	r1, r7
    3242:	8ae0      	ldrh	r0, [r4, #22]
    3244:	eba3 13a1 	sub.w	r3, r3, r1, asr #6
    3248:	fb10 f505 	smulbb	r5, r0, r5
    324c:	fb95 f2f2 	sdiv	r2, r5, r2
    3250:	eba3 2062 	sub.w	r0, r3, r2, asr #9
    3254:	bdf0      	pop	{r4, r5, r6, r7, pc}
    3256:	bf00      	nop
    3258:	0401196c 	.word	0x0401196c

0000325c <ADC_Configuration>:
    325c:	b5f8      	push	{r3, r4, r5, r6, r7, lr}
    325e:	4d19      	ldr	r5, [pc, #100]	; (32c4 <ADC_Configuration+0x68>)
    3260:	2201      	movs	r2, #1
    3262:	f04f 4380 	mov.w	r3, #1073741824	; 0x40000000
    3266:	702a      	strb	r2, [r5, #0]
    3268:	f8d3 32a4 	ldr.w	r3, [r3, #676]	; 0x2a4
    326c:	f013 0303 	ands.w	r3, r3, #3
    3270:	4604      	mov	r4, r0
    3272:	460f      	mov	r7, r1
    3274:	d006      	beq.n	3284 <ADC_Configuration+0x28>
    3276:	4293      	cmp	r3, r2
    3278:	d020      	beq.n	32bc <ADC_Configuration+0x60>
    327a:	4813      	ldr	r0, [pc, #76]	; (32c8 <ADC_Configuration+0x6c>)
    327c:	f7ff fe0a 	bl	2e94 <DbgConsole_Printf>
    3280:	2000      	movs	r0, #0
    3282:	e01a      	b.n	32ba <ADC_Configuration+0x5e>
    3284:	2108      	movs	r1, #8
    3286:	20e5      	movs	r0, #229	; 0xe5
    3288:	f000 fea0 	bl	3fcc <CLOCK_SetClkDiv>
    328c:	2600      	movs	r6, #0
    328e:	490d      	ldr	r1, [pc, #52]	; (32c4 <ADC_Configuration+0x68>)
    3290:	722e      	strb	r6, [r5, #8]
    3292:	4620      	mov	r0, r4
    3294:	60ee      	str	r6, [r5, #12]
    3296:	f000 f8f9 	bl	348c <ADC_Init>
    329a:	490c      	ldr	r1, [pc, #48]	; (32cc <ADC_Configuration+0x70>)
    329c:	4b0c      	ldr	r3, [pc, #48]	; (32d0 <ADC_Configuration+0x74>)
    329e:	608b      	str	r3, [r1, #8]
    32a0:	4620      	mov	r0, r4
    32a2:	e9c1 6600 	strd	r6, r6, [r1]
    32a6:	f000 f943 	bl	3530 <ADC_SetConvSeqAConfig>
    32aa:	4638      	mov	r0, r7
    32ac:	f001 f8f0 	bl	4490 <CLOCK_uDelay>
    32b0:	68a3      	ldr	r3, [r4, #8]
    32b2:	f043 4300 	orr.w	r3, r3, #2147483648	; 0x80000000
    32b6:	60a3      	str	r3, [r4, #8]
    32b8:	2001      	movs	r0, #1
    32ba:	bdf8      	pop	{r3, r4, r5, r6, r7, pc}
    32bc:	461a      	mov	r2, r3
    32be:	2103      	movs	r1, #3
    32c0:	e7e1      	b.n	3286 <ADC_Configuration+0x2a>
    32c2:	bf00      	nop
    32c4:	040144a4 	.word	0x040144a4
    32c8:	00029376 	.word	0x00029376
    32cc:	040144b4 	.word	0x040144b4
    32d0:	01000001 	.word	0x01000001

000032d4 <load_calibration_param_from_flash>:
    32d4:	b570      	push	{r4, r5, r6, lr}
    32d6:	4606      	mov	r6, r0
    32d8:	4819      	ldr	r0, [pc, #100]	; (3340 <load_calibration_param_from_flash+0x6c>)
    32da:	f7ff ff35 	bl	3148 <flashConfig_ExtractGpAdcTrimValues>
    32de:	4604      	mov	r4, r0
    32e0:	b920      	cbnz	r0, 32ec <load_calibration_param_from_flash+0x18>
    32e2:	4818      	ldr	r0, [pc, #96]	; (3344 <load_calibration_param_from_flash+0x70>)
    32e4:	f7ff fdd6 	bl	2e94 <DbgConsole_Printf>
    32e8:	4620      	mov	r0, r4
    32ea:	bd70      	pop	{r4, r5, r6, pc}
    32ec:	4d16      	ldr	r5, [pc, #88]	; (3348 <load_calibration_param_from_flash+0x74>)
    32ee:	4628      	mov	r0, r5
    32f0:	f7ff ff44 	bl	317c <flashConfig_ExtractTempSensorTrimValues>
    32f4:	4604      	mov	r4, r0
    32f6:	b908      	cbnz	r0, 32fc <load_calibration_param_from_flash+0x28>
    32f8:	4814      	ldr	r0, [pc, #80]	; (334c <load_calibration_param_from_flash+0x78>)
    32fa:	e7f3      	b.n	32e4 <load_calibration_param_from_flash+0x10>
    32fc:	f9b5 2016 	ldrsh.w	r2, [r5, #22]
    3300:	0590      	lsls	r0, r2, #22
    3302:	bf42      	ittt	mi
    3304:	ea6f 5282 	mvnmi.w	r2, r2, lsl #22
    3308:	ea6f 5292 	mvnmi.w	r2, r2, lsr #22
    330c:	82ea      	strhmi	r2, [r5, #22]
    330e:	f9b5 2018 	ldrsh.w	r2, [r5, #24]
    3312:	0591      	lsls	r1, r2, #22
    3314:	490a      	ldr	r1, [pc, #40]	; (3340 <load_calibration_param_from_flash+0x6c>)
    3316:	bf48      	it	mi
    3318:	ea6f 5282 	mvnmi.w	r2, r2, lsl #22
    331c:	880b      	ldrh	r3, [r1, #0]
    331e:	8849      	ldrh	r1, [r1, #2]
    3320:	bf44      	itt	mi
    3322:	ea6f 5292 	mvnmi.w	r2, r2, lsr #22
    3326:	832a      	strhmi	r2, [r5, #24]
    3328:	f3c3 0209 	ubfx	r2, r3, #0, #10
    332c:	4b08      	ldr	r3, [pc, #32]	; (3350 <load_calibration_param_from_flash+0x7c>)
    332e:	ea03 2381 	and.w	r3, r3, r1, lsl #10
    3332:	4313      	orrs	r3, r2
    3334:	6773      	str	r3, [r6, #116]	; 0x74
    3336:	4b07      	ldr	r3, [pc, #28]	; (3354 <load_calibration_param_from_flash+0x80>)
    3338:	2201      	movs	r2, #1
    333a:	701a      	strb	r2, [r3, #0]
    333c:	e7d4      	b.n	32e8 <load_calibration_param_from_flash+0x14>
    333e:	bf00      	nop
    3340:	040144c0 	.word	0x040144c0
    3344:	000293b8 	.word	0x000293b8
    3348:	040144cc 	.word	0x040144cc
    334c:	000293fd 	.word	0x000293fd
    3350:	000ffc00 	.word	0x000ffc00
    3354:	040144ca 	.word	0x040144ca

00003358 <get_temperature>:
    3358:	e92d 47ff 	stmdb	sp!, {r0, r1, r2, r3, r4, r5, r6, r7, r8, r9, sl, lr}
    335c:	461f      	mov	r7, r3
    335e:	4b42      	ldr	r3, [pc, #264]	; (3468 <get_temperature+0x110>)
    3360:	781b      	ldrb	r3, [r3, #0]
    3362:	4689      	mov	r9, r1
    3364:	4604      	mov	r4, r0
    3366:	4611      	mov	r1, r2
    3368:	b923      	cbnz	r3, 3374 <get_temperature+0x1c>
    336a:	2600      	movs	r6, #0
    336c:	4630      	mov	r0, r6
    336e:	b004      	add	sp, #16
    3370:	e8bd 87f0 	ldmia.w	sp!, {r4, r5, r6, r7, r8, r9, sl, pc}
    3374:	f7ff ff72 	bl	325c <ADC_Configuration>
    3378:	4606      	mov	r6, r0
    337a:	2800      	cmp	r0, #0
    337c:	d0f5      	beq.n	336a <get_temperature+0x12>
    337e:	68a3      	ldr	r3, [r4, #8]
    3380:	4d3a      	ldr	r5, [pc, #232]	; (346c <get_temperature+0x114>)
    3382:	f023 4300 	bic.w	r3, r3, #2147483648	; 0x80000000
    3386:	60a3      	str	r3, [r4, #8]
    3388:	2101      	movs	r1, #1
    338a:	4620      	mov	r0, r4
    338c:	f000 f93a 	bl	3604 <ADC_EnableTemperatureSensor>
    3390:	2064      	movs	r0, #100	; 0x64
    3392:	f001 f87d 	bl	4490 <CLOCK_uDelay>
    3396:	6f23      	ldr	r3, [r4, #112]	; 0x70
    3398:	f423 437e 	bic.w	r3, r3, #65024	; 0xfe00
    339c:	f443 433e 	orr.w	r3, r3, #48640	; 0xbe00
    33a0:	6723      	str	r3, [r4, #112]	; 0x70
    33a2:	2301      	movs	r3, #1
    33a4:	fa03 f309 	lsl.w	r3, r3, r9
    33a8:	602b      	str	r3, [r5, #0]
    33aa:	2102      	movs	r1, #2
    33ac:	f240 1301 	movw	r3, #257	; 0x101
    33b0:	e9c5 1301 	strd	r1, r3, [r5, #4]
    33b4:	4620      	mov	r0, r4
    33b6:	4629      	mov	r1, r5
    33b8:	f000 f8ba 	bl	3530 <ADC_SetConvSeqAConfig>
    33bc:	68a3      	ldr	r3, [r4, #8]
    33be:	f04f 0a00 	mov.w	sl, #0
    33c2:	f043 4300 	orr.w	r3, r3, #2147483648	; 0x80000000
    33c6:	60a3      	str	r3, [r4, #8]
    33c8:	46d0      	mov	r8, sl
    33ca:	45ba      	cmp	sl, r7
    33cc:	d128      	bne.n	3420 <get_temperature+0xc8>
    33ce:	2100      	movs	r1, #0
    33d0:	4620      	mov	r0, r4
    33d2:	f000 f917 	bl	3604 <ADC_EnableTemperatureSensor>
    33d6:	68a3      	ldr	r3, [r4, #8]
    33d8:	4924      	ldr	r1, [pc, #144]	; (346c <get_temperature+0x114>)
    33da:	f023 4300 	bic.w	r3, r3, #2147483648	; 0x80000000
    33de:	60a3      	str	r3, [r4, #8]
    33e0:	6f22      	ldr	r2, [r4, #112]	; 0x70
    33e2:	f422 427e 	bic.w	r2, r2, #65024	; 0xfe00
    33e6:	f442 5220 	orr.w	r2, r2, #10240	; 0x2800
    33ea:	6722      	str	r2, [r4, #112]	; 0x70
    33ec:	2302      	movs	r3, #2
    33ee:	2240      	movs	r2, #64	; 0x40
    33f0:	e9c5 2300 	strd	r2, r3, [r5]
    33f4:	f240 1301 	movw	r3, #257	; 0x101
    33f8:	60ab      	str	r3, [r5, #8]
    33fa:	4620      	mov	r0, r4
    33fc:	f000 f898 	bl	3530 <ADC_SetConvSeqAConfig>
    3400:	68a3      	ldr	r3, [r4, #8]
    3402:	2500      	movs	r5, #0
    3404:	f043 4300 	orr.w	r3, r3, #2147483648	; 0x80000000
    3408:	60a3      	str	r3, [r4, #8]
    340a:	46a9      	mov	r9, r5
    340c:	42af      	cmp	r7, r5
    340e:	d119      	bne.n	3444 <get_temperature+0xec>
    3410:	463a      	mov	r2, r7
    3412:	4641      	mov	r1, r8
    3414:	4648      	mov	r0, r9
    3416:	f7ff fee1 	bl	31dc <temp_computation>
    341a:	9b0c      	ldr	r3, [sp, #48]	; 0x30
    341c:	6018      	str	r0, [r3, #0]
    341e:	e7a5      	b.n	336c <get_temperature+0x14>
    3420:	68a3      	ldr	r3, [r4, #8]
    3422:	f043 6380 	orr.w	r3, r3, #67108864	; 0x4000000
    3426:	60a3      	str	r3, [r4, #8]
    3428:	466a      	mov	r2, sp
    342a:	4649      	mov	r1, r9
    342c:	4620      	mov	r0, r4
    342e:	f000 f8a9 	bl	3584 <ADC_GetChannelConversionResult>
    3432:	2800      	cmp	r0, #0
    3434:	d0f8      	beq.n	3428 <get_temperature+0xd0>
    3436:	9b00      	ldr	r3, [sp, #0]
    3438:	4498      	add	r8, r3
    343a:	fa1f f888 	uxth.w	r8, r8
    343e:	f10a 0a01 	add.w	sl, sl, #1
    3442:	e7c2      	b.n	33ca <get_temperature+0x72>
    3444:	68a3      	ldr	r3, [r4, #8]
    3446:	f043 6380 	orr.w	r3, r3, #67108864	; 0x4000000
    344a:	60a3      	str	r3, [r4, #8]
    344c:	466a      	mov	r2, sp
    344e:	2106      	movs	r1, #6
    3450:	4620      	mov	r0, r4
    3452:	f000 f897 	bl	3584 <ADC_GetChannelConversionResult>
    3456:	2800      	cmp	r0, #0
    3458:	d0f8      	beq.n	344c <get_temperature+0xf4>
    345a:	9b00      	ldr	r3, [sp, #0]
    345c:	4499      	add	r9, r3
    345e:	fa1f f989 	uxth.w	r9, r9
    3462:	3501      	adds	r5, #1
    3464:	e7d2      	b.n	340c <get_temperature+0xb4>
    3466:	bf00      	nop
    3468:	040144ca 	.word	0x040144ca
    346c:	040144b4 	.word	0x040144b4

00003470 <ADC_GetInstance.part.0>:
    3470:	b508      	push	{r3, lr}
    3472:	4a03      	ldr	r2, [pc, #12]	; (3480 <ADC_GetInstance.part.0+0x10>)
    3474:	4b03      	ldr	r3, [pc, #12]	; (3484 <ADC_GetInstance.part.0+0x14>)
    3476:	4804      	ldr	r0, [pc, #16]	; (3488 <ADC_GetInstance.part.0+0x18>)
    3478:	2125      	movs	r1, #37	; 0x25
    347a:	f004 ffe7 	bl	844c <__assert_func>
    347e:	bf00      	nop
    3480:	000294eb 	.word	0x000294eb
    3484:	00029451 	.word	0x00029451
    3488:	00029473 	.word	0x00029473

0000348c <ADC_Init>:
    348c:	b538      	push	{r3, r4, r5, lr}
    348e:	4605      	mov	r5, r0
    3490:	460c      	mov	r4, r1
    3492:	b929      	cbnz	r1, 34a0 <ADC_Init+0x14>
    3494:	4b20      	ldr	r3, [pc, #128]	; (3518 <ADC_Init+0x8c>)
    3496:	4a21      	ldr	r2, [pc, #132]	; (351c <ADC_Init+0x90>)
    3498:	4821      	ldr	r0, [pc, #132]	; (3520 <ADC_Init+0x94>)
    349a:	2132      	movs	r1, #50	; 0x32
    349c:	f004 ffd6 	bl	844c <__assert_func>
    34a0:	4b20      	ldr	r3, [pc, #128]	; (3524 <ADC_Init+0x98>)
    34a2:	4298      	cmp	r0, r3
    34a4:	d135      	bne.n	3512 <ADC_Init+0x86>
    34a6:	201b      	movs	r0, #27
    34a8:	f001 f8d4 	bl	4654 <CLOCK_EnableClock>
    34ac:	2300      	movs	r3, #0
    34ae:	666b      	str	r3, [r5, #100]	; 0x64
    34b0:	7821      	ldrb	r1, [r4, #0]
    34b2:	7922      	ldrb	r2, [r4, #4]
    34b4:	2901      	cmp	r1, #1
    34b6:	d101      	bne.n	34bc <ADC_Init+0x30>
    34b8:	f442 7280 	orr.w	r2, r2, #256	; 0x100
    34bc:	7a23      	ldrb	r3, [r4, #8]
    34be:	025b      	lsls	r3, r3, #9
    34c0:	2901      	cmp	r1, #1
    34c2:	f403 63c0 	and.w	r3, r3, #1536	; 0x600
    34c6:	ea43 0302 	orr.w	r3, r3, r2
    34ca:	bf01      	itttt	eq
    34cc:	68e2      	ldreq	r2, [r4, #12]
    34ce:	0312      	lsleq	r2, r2, #12
    34d0:	f402 42e0 	andeq.w	r2, r2, #28672	; 0x7000
    34d4:	4313      	orreq	r3, r2
    34d6:	4a13      	ldr	r2, [pc, #76]	; (3524 <ADC_Init+0x98>)
    34d8:	6013      	str	r3, [r2, #0]
    34da:	6f13      	ldr	r3, [r2, #112]	; 0x70
    34dc:	f043 0301 	orr.w	r3, r3, #1
    34e0:	6713      	str	r3, [r2, #112]	; 0x70
    34e2:	b931      	cbnz	r1, 34f2 <ADC_Init+0x66>
    34e4:	68e3      	ldr	r3, [r4, #12]
    34e6:	6f11      	ldr	r1, [r2, #112]	; 0x70
    34e8:	021b      	lsls	r3, r3, #8
    34ea:	f403 7380 	and.w	r3, r3, #256	; 0x100
    34ee:	430b      	orrs	r3, r1
    34f0:	6713      	str	r3, [r2, #112]	; 0x70
    34f2:	490d      	ldr	r1, [pc, #52]	; (3528 <ADC_Init+0x9c>)
    34f4:	f44f 7096 	mov.w	r0, #300	; 0x12c
    34f8:	f001 fcb8 	bl	4e6c <SDK_DelayAtLeastUs>
    34fc:	4b0b      	ldr	r3, [pc, #44]	; (352c <ADC_Init+0xa0>)
    34fe:	4a09      	ldr	r2, [pc, #36]	; (3524 <ADC_Init+0x98>)
    3500:	681b      	ldr	r3, [r3, #0]
    3502:	f013 0f01 	tst.w	r3, #1
    3506:	bf1c      	itt	ne
    3508:	085b      	lsrne	r3, r3, #1
    350a:	6753      	strne	r3, [r2, #116]	; 0x74
    350c:	2301      	movs	r3, #1
    350e:	66d3      	str	r3, [r2, #108]	; 0x6c
    3510:	bd38      	pop	{r3, r4, r5, pc}
    3512:	f7ff ffad 	bl	3470 <ADC_GetInstance.part.0>
    3516:	bf00      	nop
    3518:	000294b7 	.word	0x000294b7
    351c:	000294fb 	.word	0x000294fb
    3520:	00029473 	.word	0x00029473
    3524:	40089000 	.word	0x40089000
    3528:	02dc6c00 	.word	0x02dc6c00
    352c:	0009fc80 	.word	0x0009fc80

00003530 <ADC_SetConvSeqAConfig>:
    3530:	b508      	push	{r3, lr}
    3532:	b931      	cbnz	r1, 3542 <ADC_SetConvSeqAConfig+0x12>
    3534:	4b10      	ldr	r3, [pc, #64]	; (3578 <ADC_SetConvSeqAConfig+0x48>)
    3536:	4a11      	ldr	r2, [pc, #68]	; (357c <ADC_SetConvSeqAConfig+0x4c>)
    3538:	4811      	ldr	r0, [pc, #68]	; (3580 <ADC_SetConvSeqAConfig+0x50>)
    353a:	f44f 7199 	mov.w	r1, #306	; 0x132
    353e:	f004 ff85 	bl	844c <__assert_func>
    3542:	684b      	ldr	r3, [r1, #4]
    3544:	780a      	ldrb	r2, [r1, #0]
    3546:	031b      	lsls	r3, r3, #12
    3548:	f403 337c 	and.w	r3, r3, #258048	; 0x3f000
    354c:	4313      	orrs	r3, r2
    354e:	7a0a      	ldrb	r2, [r1, #8]
    3550:	2a01      	cmp	r2, #1
    3552:	7a4a      	ldrb	r2, [r1, #9]
    3554:	bf08      	it	eq
    3556:	f443 2380 	orreq.w	r3, r3, #262144	; 0x40000
    355a:	b10a      	cbz	r2, 3560 <ADC_SetConvSeqAConfig+0x30>
    355c:	f443 2300 	orr.w	r3, r3, #524288	; 0x80000
    3560:	7aca      	ldrb	r2, [r1, #11]
    3562:	2a01      	cmp	r2, #1
    3564:	7a8a      	ldrb	r2, [r1, #10]
    3566:	bf08      	it	eq
    3568:	f043 4380 	orreq.w	r3, r3, #1073741824	; 0x40000000
    356c:	b10a      	cbz	r2, 3572 <ADC_SetConvSeqAConfig+0x42>
    356e:	f043 5380 	orr.w	r3, r3, #268435456	; 0x10000000
    3572:	6083      	str	r3, [r0, #8]
    3574:	bd08      	pop	{r3, pc}
    3576:	bf00      	nop
    3578:	000294b7 	.word	0x000294b7
    357c:	00029504 	.word	0x00029504
    3580:	00029473 	.word	0x00029473

00003584 <ADC_GetChannelConversionResult>:
    3584:	b508      	push	{r3, lr}
    3586:	b932      	cbnz	r2, 3596 <ADC_GetChannelConversionResult+0x12>
    3588:	4b1a      	ldr	r3, [pc, #104]	; (35f4 <ADC_GetChannelConversionResult+0x70>)
    358a:	4a1b      	ldr	r2, [pc, #108]	; (35f8 <ADC_GetChannelConversionResult+0x74>)
    358c:	f240 11d9 	movw	r1, #473	; 0x1d9
    3590:	481a      	ldr	r0, [pc, #104]	; (35fc <ADC_GetChannelConversionResult+0x78>)
    3592:	f004 ff5b 	bl	844c <__assert_func>
    3596:	2907      	cmp	r1, #7
    3598:	d904      	bls.n	35a4 <ADC_GetChannelConversionResult+0x20>
    359a:	4b19      	ldr	r3, [pc, #100]	; (3600 <ADC_GetChannelConversionResult+0x7c>)
    359c:	4a16      	ldr	r2, [pc, #88]	; (35f8 <ADC_GetChannelConversionResult+0x74>)
    359e:	f44f 71ed 	mov.w	r1, #474	; 0x1da
    35a2:	e7f5      	b.n	3590 <ADC_GetChannelConversionResult+0xc>
    35a4:	3108      	adds	r1, #8
    35a6:	f850 1021 	ldr.w	r1, [r0, r1, lsl #2]
    35aa:	2900      	cmp	r1, #0
    35ac:	da1f      	bge.n	35ee <ADC_GetChannelConversionResult+0x6a>
    35ae:	6800      	ldr	r0, [r0, #0]
    35b0:	f3c0 2041 	ubfx	r0, r0, #9, #2
    35b4:	f3c1 130b 	ubfx	r3, r1, #4, #12
    35b8:	2802      	cmp	r0, #2
    35ba:	6013      	str	r3, [r2, #0]
    35bc:	d013      	beq.n	35e6 <ADC_GetChannelConversionResult+0x62>
    35be:	2803      	cmp	r0, #3
    35c0:	d013      	beq.n	35ea <ADC_GetChannelConversionResult+0x66>
    35c2:	2801      	cmp	r0, #1
    35c4:	d101      	bne.n	35ca <ADC_GetChannelConversionResult+0x46>
    35c6:	089b      	lsrs	r3, r3, #2
    35c8:	6013      	str	r3, [r2, #0]
    35ca:	f3c1 4301 	ubfx	r3, r1, #16, #2
    35ce:	7113      	strb	r3, [r2, #4]
    35d0:	f3c1 4381 	ubfx	r3, r1, #18, #2
    35d4:	7153      	strb	r3, [r2, #5]
    35d6:	f3c1 6383 	ubfx	r3, r1, #26, #4
    35da:	f3c1 7180 	ubfx	r1, r1, #30, #1
    35de:	6093      	str	r3, [r2, #8]
    35e0:	7311      	strb	r1, [r2, #12]
    35e2:	2001      	movs	r0, #1
    35e4:	bd08      	pop	{r3, pc}
    35e6:	091b      	lsrs	r3, r3, #4
    35e8:	e7ee      	b.n	35c8 <ADC_GetChannelConversionResult+0x44>
    35ea:	099b      	lsrs	r3, r3, #6
    35ec:	e7ec      	b.n	35c8 <ADC_GetChannelConversionResult+0x44>
    35ee:	2000      	movs	r0, #0
    35f0:	e7f8      	b.n	35e4 <ADC_GetChannelConversionResult+0x60>
    35f2:	bf00      	nop
    35f4:	000294c6 	.word	0x000294c6
    35f8:	0002951a 	.word	0x0002951a
    35fc:	00029473 	.word	0x00029473
    3600:	000294d3 	.word	0x000294d3

00003604 <ADC_EnableTemperatureSensor>:
    3604:	f04f 4380 	mov.w	r3, #1073741824	; 0x40000000
    3608:	b189      	cbz	r1, 362e <ADC_EnableTemperatureSensor+0x2a>
    360a:	2201      	movs	r2, #1
    360c:	64da      	str	r2, [r3, #76]	; 0x4c
    360e:	f503 3300 	add.w	r3, r3, #131072	; 0x20000
    3612:	2208      	movs	r2, #8
    3614:	f8c3 20a0 	str.w	r2, [r3, #160]	; 0xa0
    3618:	f8d3 20a0 	ldr.w	r2, [r3, #160]	; 0xa0
    361c:	f042 0201 	orr.w	r2, r2, #1
    3620:	f8c3 20a0 	str.w	r2, [r3, #160]	; 0xa0
    3624:	6f03      	ldr	r3, [r0, #112]	; 0x70
    3626:	f443 433e 	orr.w	r3, r3, #48640	; 0xbe00
    362a:	6703      	str	r3, [r0, #112]	; 0x70
    362c:	4770      	bx	lr
    362e:	6cdb      	ldr	r3, [r3, #76]	; 0x4c
    3630:	2b01      	cmp	r3, #1
    3632:	d1fb      	bne.n	362c <ADC_EnableTemperatureSensor+0x28>
    3634:	4b05      	ldr	r3, [pc, #20]	; (364c <ADC_EnableTemperatureSensor+0x48>)
    3636:	f8c3 10a0 	str.w	r1, [r3, #160]	; 0xa0
    363a:	6f03      	ldr	r3, [r0, #112]	; 0x70
    363c:	f423 433e 	bic.w	r3, r3, #48640	; 0xbe00
    3640:	6703      	str	r3, [r0, #112]	; 0x70
    3642:	6f03      	ldr	r3, [r0, #112]	; 0x70
    3644:	f443 5320 	orr.w	r3, r3, #10240	; 0x2800
    3648:	e7ef      	b.n	362a <ADC_EnableTemperatureSensor+0x26>
    364a:	bf00      	nop
    364c:	40020000 	.word	0x40020000

00003650 <ZQ_vQueueCreate>:
    3650:	b538      	push	{r3, r4, r5, lr}
    3652:	4604      	mov	r4, r0
    3654:	4615      	mov	r5, r2
    3656:	f003 f870 	bl	673a <ListInit>
    365a:	60e5      	str	r5, [r4, #12]
    365c:	bd38      	pop	{r3, r4, r5, pc}

0000365e <ZQ_bQueueSend>:
    365e:	b570      	push	{r4, r5, r6, lr}
    3660:	4604      	mov	r4, r0
    3662:	4675      	mov	r5, lr
    3664:	460e      	mov	r6, r1
    3666:	f004 ffb9 	bl	85dc <OSA_InterruptDisable>
    366a:	4620      	mov	r0, r4
    366c:	f003 f8a4 	bl	67b8 <ListGetAvailable>
    3670:	b908      	cbnz	r0, 3676 <ZQ_bQueueSend+0x18>
    3672:	8963      	ldrh	r3, [r4, #10]
    3674:	b9a3      	cbnz	r3, 36a0 <ZQ_bQueueSend+0x42>
    3676:	462a      	mov	r2, r5
    3678:	68e0      	ldr	r0, [r4, #12]
    367a:	2100      	movs	r1, #0
    367c:	f003 f8e8 	bl	6850 <MEM_BufferAllocWithId>
    3680:	4605      	mov	r5, r0
    3682:	b168      	cbz	r0, 36a0 <ZQ_bQueueSend+0x42>
    3684:	68e2      	ldr	r2, [r4, #12]
    3686:	4631      	mov	r1, r6
    3688:	f002 feaf 	bl	63ea <FLib_MemCpy>
    368c:	4629      	mov	r1, r5
    368e:	4620      	mov	r0, r4
    3690:	f003 f896 	bl	67c0 <ListAddTailMsg>
    3694:	f017 fe58 	bl	1b348 <PWRM_eStartActivity>
    3698:	f004 ff9e 	bl	85d8 <OSA_InterruptEnable>
    369c:	2001      	movs	r0, #1
    369e:	bd70      	pop	{r4, r5, r6, pc}
    36a0:	f004 ff9a 	bl	85d8 <OSA_InterruptEnable>
    36a4:	2000      	movs	r0, #0
    36a6:	e7fa      	b.n	369e <ZQ_bQueueSend+0x40>

000036a8 <ZQ_bQueueReceive>:
    36a8:	b570      	push	{r4, r5, r6, lr}
    36aa:	4605      	mov	r5, r0
    36ac:	460e      	mov	r6, r1
    36ae:	f004 ff95 	bl	85dc <OSA_InterruptDisable>
    36b2:	682c      	ldr	r4, [r5, #0]
    36b4:	b18c      	cbz	r4, 36da <ZQ_bQueueReceive+0x32>
    36b6:	4628      	mov	r0, r5
    36b8:	f003 f885 	bl	67c6 <ListRemoveHeadMsg>
    36bc:	68ea      	ldr	r2, [r5, #12]
    36be:	4601      	mov	r1, r0
    36c0:	4604      	mov	r4, r0
    36c2:	4630      	mov	r0, r6
    36c4:	f002 fe91 	bl	63ea <FLib_MemCpy>
    36c8:	4620      	mov	r0, r4
    36ca:	f003 f882 	bl	67d2 <MSG_Free>
    36ce:	f017 fe40 	bl	1b352 <PWRM_eFinishActivity>
    36d2:	f004 ff81 	bl	85d8 <OSA_InterruptEnable>
    36d6:	2001      	movs	r0, #1
    36d8:	bd70      	pop	{r4, r5, r6, pc}
    36da:	f004 ff7d 	bl	85d8 <OSA_InterruptEnable>
    36de:	4620      	mov	r0, r4
    36e0:	e7fa      	b.n	36d8 <ZQ_bQueueReceive+0x30>

000036e2 <ZQ_u32QueueGetQueueSize>:
    36e2:	8940      	ldrh	r0, [r0, #10]
    36e4:	4770      	bx	lr

000036e6 <ZQ_u32QueueGetQueueMessageWaiting>:
    36e6:	8900      	ldrh	r0, [r0, #8]
    36e8:	4770      	bx	lr
    36ea:	Address 0x000036ea is out of bounds.


000036ec <ZTIMER_eInit>:
    36ec:	b510      	push	{r4, lr}
    36ee:	b158      	cbz	r0, 3708 <ZTIMER_eInit+0x1c>
    36f0:	b151      	cbz	r1, 3708 <ZTIMER_eInit+0x1c>
    36f2:	4a06      	ldr	r2, [pc, #24]	; (370c <ZTIMER_eInit+0x20>)
    36f4:	2400      	movs	r4, #0
    36f6:	7111      	strb	r1, [r2, #4]
    36f8:	6090      	str	r0, [r2, #8]
    36fa:	6014      	str	r4, [r2, #0]
    36fc:	010a      	lsls	r2, r1, #4
    36fe:	4621      	mov	r1, r4
    3700:	f023 fdde 	bl	272c0 <memset>
    3704:	4620      	mov	r0, r4
    3706:	bd10      	pop	{r4, pc}
    3708:	2001      	movs	r0, #1
    370a:	e7fc      	b.n	3706 <ZTIMER_eInit+0x1a>
    370c:	040144ec 	.word	0x040144ec

00003710 <ZTIMER_vSleep>:
    3710:	4a02      	ldr	r2, [pc, #8]	; (371c <ZTIMER_vSleep+0xc>)
    3712:	6813      	ldr	r3, [r2, #0]
    3714:	f023 0301 	bic.w	r3, r3, #1
    3718:	6013      	str	r3, [r2, #0]
    371a:	4770      	bx	lr
    371c:	e000e010 	.word	0xe000e010

00003720 <ZTIMER_vWake>:
    3720:	f004 bf36 	b.w	8590 <OSA_TimeInit>

00003724 <ZTIMER_vTask>:
    3724:	e92d 43f0 	stmdb	sp!, {r4, r5, r6, r7, r8, r9, lr}
    3728:	4c24      	ldr	r4, [pc, #144]	; (37bc <ZTIMER_vTask+0x98>)
    372a:	b085      	sub	sp, #20
    372c:	6823      	ldr	r3, [r4, #0]
    372e:	9302      	str	r3, [sp, #8]
    3730:	f004 ff46 	bl	85c0 <OSA_TimeGetMsec>
    3734:	9003      	str	r0, [sp, #12]
    3736:	9a03      	ldr	r2, [sp, #12]
    3738:	9b02      	ldr	r3, [sp, #8]
    373a:	429a      	cmp	r2, r3
    373c:	d30b      	bcc.n	3756 <ZTIMER_vTask+0x32>
    373e:	9b03      	ldr	r3, [sp, #12]
    3740:	9a02      	ldr	r2, [sp, #8]
    3742:	1a9b      	subs	r3, r3, r2
    3744:	6023      	str	r3, [r4, #0]
    3746:	6823      	ldr	r3, [r4, #0]
    3748:	2b00      	cmp	r3, #0
    374a:	d133      	bne.n	37b4 <ZTIMER_vTask+0x90>
    374c:	9b03      	ldr	r3, [sp, #12]
    374e:	6023      	str	r3, [r4, #0]
    3750:	b005      	add	sp, #20
    3752:	e8bd 83f0 	ldmia.w	sp!, {r4, r5, r6, r7, r8, r9, pc}
    3756:	9b02      	ldr	r3, [sp, #8]
    3758:	43db      	mvns	r3, r3
    375a:	6023      	str	r3, [r4, #0]
    375c:	9a03      	ldr	r2, [sp, #12]
    375e:	6823      	ldr	r3, [r4, #0]
    3760:	4413      	add	r3, r2
    3762:	e7ef      	b.n	3744 <ZTIMER_vTask+0x20>
    3764:	68a7      	ldr	r7, [r4, #8]
    3766:	eb07 1506 	add.w	r5, r7, r6, lsl #4
    376a:	ea4f 1906 	mov.w	r9, r6, lsl #4
    376e:	786b      	ldrb	r3, [r5, #1]
    3770:	2b02      	cmp	r3, #2
    3772:	d106      	bne.n	3782 <ZTIMER_vTask+0x5e>
    3774:	686b      	ldr	r3, [r5, #4]
    3776:	6822      	ldr	r2, [r4, #0]
    3778:	4293      	cmp	r3, r2
    377a:	d907      	bls.n	378c <ZTIMER_vTask+0x68>
    377c:	6822      	ldr	r2, [r4, #0]
    377e:	1a9b      	subs	r3, r3, r2
    3780:	606b      	str	r3, [r5, #4]
    3782:	3601      	adds	r6, #1
    3784:	7923      	ldrb	r3, [r4, #4]
    3786:	429e      	cmp	r6, r3
    3788:	dbec      	blt.n	3764 <ZTIMER_vTask+0x40>
    378a:	e7df      	b.n	374c <ZTIMER_vTask+0x28>
    378c:	a801      	add	r0, sp, #4
    378e:	f004 ff27 	bl	85e0 <OSA_InterruptEnableRestricted>
    3792:	f885 8001 	strb.w	r8, [r5, #1]
    3796:	f817 3009 	ldrb.w	r3, [r7, r9]
    379a:	07db      	lsls	r3, r3, #31
    379c:	d501      	bpl.n	37a2 <ZTIMER_vTask+0x7e>
